(dp0
S'map07227'
p1
S'Histamine H2/H3 receptor agonists/antagonists'
p2
sS'map01010'
p3
S'Overview of biosynthetic pathways'
p4
sS'map07226'
p5
S'Progesterone, androgen and estrogen receptor agonists/antagonists'
p6
sS'map00195'
p7
S'Photosynthesis'
p8
sS'map04330'
p9
S'Notch signaling pathway'
p10
sS'map07221'
p11
S'Nicotinic cholinergic receptor antagonists'
p12
sS'map00650'
p13
S'Butanoate metabolism'
p14
sS'map07218'
p15
S'HIV protease inhibitors'
p16
sS'map00710'
p17
S'Carbon fixation in photosynthetic organisms'
p18
sS'map00300'
p19
S'Lysine biosynthesis'
p20
sS'map07229'
p21
S'Angiotensin receptor and endothelin receptor antagonists'
p22
sS'map07213'
p23
S'Dopamine receptor agonists/antagonists'
p24
sS'map07228'
p25
S'Eicosanoid receptor agonists/antagonists'
p26
sS'map07025'
p27
S'Quinolines'
p28
sS'map07024'
p29
S'HMG-CoA reductase inhibitors'
p30
sS'map07027'
p31
S'Antidepressants'
p32
sS'map07026'
p33
S'Antifungal agents'
p34
sS'map07021'
p35
S'Aminoglycosides'
p36
sS'map07020'
p37
S'Macrolides and ketolides'
p38
sS'map07023'
p39
S'Rifamycins'
p40
sS'map07029'
p41
S'Antipsychotics - phenothiazines'
p42
sS'map07028'
p43
S'Antipsychotics'
p44
sS'map05120'
p45
S'Epithelial cell signaling in Helicobacter pylori infection'
p46
sS'map00970'
p47
S'Aminoacyl-tRNA biosynthesis'
p48
sS'map00572'
p49
S'Arabinogalactan biosynthesis - Mycobacterium'
p50
sS'map00565'
p51
S'Ether lipid metabolism'
p52
sS'map00571'
p53
S'Lipoarabinomannan (LAM) biosynthesis'
p54
sS'map04657'
p55
S'IL-17 signaling pathway'
p56
sS'map00270'
p57
S'Cysteine and methionine metabolism'
p58
sS'map04659'
p59
S'Th17 cell differentiation'
p60
sS'map04658'
p61
S'Th1 and Th2 cell differentiation'
p62
sS'map04662'
p63
S'B cell receptor signaling pathway'
p64
sS'map00563'
p65
S'Glycosylphosphatidylinositol (GPI)-anchor biosynthesis'
p66
sS'map07110'
p67
S'Benzoic acid family'
p68
sS'map07112'
p69
S'1,2-Diphenyl substitution family'
p70
sS'map07114'
p71
S'Naphthalene family'
p72
sS'map07117'
p73
S'Benzodiazepine family'
p74
sS'map07050'
p75
S'Antirheumatics - DMARDs and biological agents'
p76
sS'map07051'
p77
S'Antidiabetics'
p78
sS'map07052'
p79
S'Antidyslipidemic agents'
p80
sS'map07053'
p81
S'Anti-HIV agents'
p82
sS'map07054'
p83
S'Antiglaucoma agents'
p84
sS'map07055'
p85
S'Sulfonamide derivatives - overview'
p86
sS'map07056'
p87
S'Agents for Alzheimer-type dementia'
p88
sS'map04728'
p89
S'Dopaminergic synapse'
p90
sS'map04727'
p91
S'GABAergic synapse'
p92
sS'map04726'
p93
S'Serotonergic synapse'
p94
sS'map04725'
p95
S'Cholinergic synapse'
p96
sS'map04724'
p97
S'Glutamatergic synapse'
p98
sS'map04723'
p99
S'Retrograde endocannabinoid signaling'
p100
sS'map04722'
p101
S'Neurotrophin signaling pathway'
p102
sS'map04721'
p103
S'Synaptic vesicle cycle'
p104
sS'map04720'
p105
S'Long-term potentiation'
p106
sS'map00051'
p107
S'Fructose and mannose metabolism'
p108
sS'map00053'
p109
S'Ascorbate and aldarate metabolism'
p110
sS'map00052'
p111
S'Galactose metabolism'
p112
sS'map05418'
p113
S'Fluid shear stress and atherosclerosis'
p114
sS'map05416'
p115
S'Viral myocarditis'
p116
sS'map05414'
p117
S'Dilated cardiomyopathy (DCM)'
p118
sS'map05412'
p119
S'Arrhythmogenic right ventricular cardiomyopathy (ARVC)'
p120
sS'map05410'
p121
S'Hypertrophic cardiomyopathy (HCM)'
p122
sS'map03010'
p123
S'Ribosome'
p124
sS'map04978'
p125
S'Mineral absorption'
p126
sS'map04979'
p127
S'Cholesterol metabolism'
p128
sS'map00280'
p129
S'Valine, leucine and isoleucine degradation'
p130
sS'map00281'
p131
S'Geraniol degradation'
p132
sS'map02026'
p133
S'Biofilm formation - Escherichia coli'
p134
sS'map04973'
p135
S'Carbohydrate digestion and absorption'
p136
sS'map02024'
p137
S'Quorum sensing'
p138
sS'map02025'
p139
S'Biofilm formation - Pseudomonas aeruginosa'
p140
sS'map04976'
p141
S'Bile secretion'
p142
sS'map04977'
p143
S'Vitamin digestion and absorption'
p144
sS'map02020'
p145
S'Two-component system'
p146
sS'map04975'
p147
S'Fat digestion and absorption'
p148
sS'map04150'
p149
S'mTOR signaling pathway'
p150
sS'map04151'
p151
S'PI3K-Akt signaling pathway'
p152
sS'map04152'
p153
S'AMPK signaling pathway'
p154
sS'map05215'
p155
S'Prostate cancer'
p156
sS'map03430'
p157
S'Mismatch repair'
p158
sS'map04270'
p159
S'Vascular smooth muscle contraction'
p160
sS'map04060'
p161
S'Cytokine-cytokine receptor interaction'
p162
sS'map04370'
p163
S'VEGF signaling pathway'
p164
sS'map04371'
p165
S'Apelin signaling pathway'
p166
sS'map00020'
p167
S'Citrate cycle (TCA cycle)'
p168
sS'map04072'
p169
S'Phospholipase D signaling pathway'
p170
sS'map00750'
p171
S'Vitamin B6 metabolism'
p172
sS'map04070'
p173
S'Phosphatidylinositol signaling system'
p174
sS'map04075'
p175
S'Plant hormone signal transduction'
p176
sS'map05211'
p177
S'Renal cell carcinoma'
p178
sS'map00450'
p179
S'Selenocompound metabolism'
p180
sS'map04650'
p181
S'Natural killer cell mediated cytotoxicity'
p182
sS'map05212'
p183
S'Pancreatic cancer'
p184
sS'map00590'
p185
S'Arachidonic acid metabolism'
p186
sS'map00591'
p187
S'Linoleic acid metabolism'
p188
sS'map00592'
p189
S'alpha-Linolenic acid metabolism'
p190
sS'map05213'
p191
S'Endometrial cancer'
p192
sS'map04380'
p193
S'Osteoclast differentiation'
p194
sS'map01120'
p195
S'Microbial metabolism in diverse environments'
p196
sS'map05218'
p197
S'Melanoma'
p198
sS'map05219'
p199
S'Bladder cancer'
p200
sS'map00930'
p201
S'Caprolactam degradation'
p202
sS'map00626'
p203
S'Naphthalene degradation'
p204
sS'map00627'
p205
S'Aminobenzoate degradation'
p206
sS'map00624'
p207
S'Polycyclic aromatic hydrocarbon degradation'
p208
sS'map00625'
p209
S'Chloroalkane and chloroalkene degradation'
p210
sS'map00622'
p211
S'Xylene degradation'
p212
sS'map00623'
p213
S'Toluene degradation'
p214
sS'map00620'
p215
S'Pyruvate metabolism'
p216
sS'map00621'
p217
S'Dioxin degradation'
p218
sS'map01052'
p219
S'Type I polyketide structures'
p220
sS'map01053'
p221
S'Biosynthesis of siderophore group nonribosomal peptides'
p222
sS'map01051'
p223
S'Biosynthesis of ansamycins'
p224
sS'map01056'
p225
S'Biosynthesis of type II polyketide backbone'
p226
sS'map01057'
p227
S'Biosynthesis of type II polyketide products'
p228
sS'map01054'
p229
S'Nonribosomal peptide structures'
p230
sS'map01055'
p231
S'Biosynthesis of vancomycin group antibiotics'
p232
sS'map01058'
p233
S'Acridone alkaloid biosynthesis'
p234
sS'map01059'
p235
S'Biosynthesis of enediyne antibiotics'
p236
sS'map05214'
p237
S'Glioma'
p238
sS'map01220'
p239
S'Degradation of aromatic compounds'
p240
sS'map05216'
p241
S'Thyroid cancer'
p242
sS'map05217'
p243
S'Basal cell carcinoma'
p244
sS'map00231'
p245
S'Puromycin biosynthesis'
p246
sS'map00230'
p247
S'Purine metabolism'
p248
sS'map04750'
p249
S'Inflammatory mediator regulation of TRP channels'
p250
sS'map00232'
p251
S'Caffeine metabolism'
p252
sS'map00330'
p253
S'Arginine and proline metabolism'
p254
sS'map00331'
p255
S'Clavulanic acid biosynthesis'
p256
sS'map00332'
p257
S'Carbapenem biosynthesis'
p258
sS'map00333'
p259
S'Prodigiosin biosynthesis'
p260
sS'map07043'
p261
S'Antineoplastics - hormones'
p262
sS'map07018'
p263
S'Sulfonamide derivatives - hypoglycemic agents'
p264
sS'map07019'
p265
S'Tetracyclines'
p266
sS'map07042'
p267
S'Antineoplastics - agents from natural products'
p268
sS'map07014'
p269
S'Quinolones'
p270
sS'map07015'
p271
S'Local analgesics'
p272
sS'map07016'
p273
S'Sulfonamide derivatives - sulfa drugs'
p274
sS'map07017'
p275
S'Sulfonamide derivatives - diuretics'
p276
sS'map07011'
p277
S'Penicillins'
p278
sS'map07012'
p279
S'Cephalosporins - parenteral agents'
p280
sS'map07013'
p281
S'Cephalosporins - oral agents'
p282
sS'map07040'
p283
S'Antineoplastics - alkylating agents'
p284
sS'map05170'
p285
S'Human immunodeficiency virus 1 infection'
p286
sS'map07234'
p287
S'Neurotransmitter transporter inhibitors'
p288
sS'map07235'
p289
S'N-Metyl-D-aspartic acid receptor antagonists'
p290
sS'map00480'
p291
S'Glutathione metabolism'
p292
sS'map07230'
p293
S'GABA-A receptor agonists/antagonists'
p294
sS'map07045'
p295
S'Antineoplastics - protein kinases inhibitors'
p296
sS'map07232'
p297
S'Potassium channel blocking and opening drugs'
p298
sS'map07233'
p299
S'Ion transporter inhibitors'
p300
sS'map00521'
p301
S'Streptomycin biosynthesis'
p302
sS'map00520'
p303
S'Amino sugar and nucleotide sugar metabolism'
p304
sS'map00523'
p305
S'Polyketide sugar unit biosynthesis'
p306
sS'map00522'
p307
S'Biosynthesis of 12-, 14- and 16-membered macrolides'
p308
sS'map00525'
p309
S'Acarbose and validamycin biosynthesis'
p310
sS'map00524'
p311
S'Neomycin, kanamycin and gentamicin biosynthesis'
p312
sS'map00240'
p313
S'Pyrimidine metabolism'
p314
sS'map02060'
p315
S'Phosphotransferase system (PTS)'
p316
sS'map05210'
p317
S'Colorectal cancer'
p318
sS'map04614'
p319
S'Renin-angiotensin system'
p320
sS'map04612'
p321
S'Antigen processing and presentation'
p322
sS'map04611'
p323
S'Platelet activation'
p324
sS'map04610'
p325
S'Complement and coagulation cascades'
p326
sS'map03040'
p327
S'Spliceosome'
p328
sS'map05165'
p329
S'Human papillomavirus infection'
p330
sS'map00061'
p331
S'Fatty acid biosynthesis'
p332
sS'map00062'
p333
S'Fatty acid elongation'
p334
sS'map00791'
p335
S'Atrazine degradation'
p336
sS'map00140'
p337
S'Steroid hormone biosynthesis'
p338
sS'map00410'
p339
S'beta-Alanine metabolism'
p340
sS'map04921'
p341
S'Oxytocin signaling pathway'
p342
sS'map04920'
p343
S'Adipocytokine signaling pathway'
p344
sS'map04923'
p345
S'Regulation of lipolysis in adipocytes'
p346
sS'map04922'
p347
S'Glucagon signaling pathway'
p348
sS'map04925'
p349
S'Aldosterone synthesis and secretion'
p350
sS'map04924'
p351
S'Renin secretion'
p352
sS'map04927'
p353
S'Cortisol synthesis and secretion'
p354
sS'map04926'
p355
S'Relaxin signaling pathway'
p356
sS'map04928'
p357
S'Parathyroid hormone synthesis, secretion and action'
p358
sS'map04530'
p359
S'Tight junction'
p360
sS'map03460'
p361
S'Fanconi anemia pathway'
p362
sS'map00660'
p363
S'C5-Branched dibasic acid metabolism'
p364
sS'map04320'
p365
S'Dorso-ventral axis formation'
p366
sS'map00460'
p367
S'Cyanoamino acid metabolism'
p368
sS'map05140'
p369
S'Leishmaniasis'
p370
sS'map05142'
p371
S'Chagas disease (American trypanosomiasis)'
p372
sS'map05143'
p373
S'African trypanosomiasis'
p374
sS'map05144'
p375
S'Malaria'
p376
sS'map01501'
p377
S'beta-Lactam resistance'
p378
sS'map01502'
p379
S'Vancomycin resistance'
p380
sS'map01503'
p381
S'Cationic antimicrobial peptide (CAMP) resistance'
p382
sS'map00999'
p383
S'Biosynthesis of secondary metabolites - unclassified'
p384
sS'map07231'
p385
S'Sodium channel blocking drugs'
p386
sS'map04810'
p387
S'Regulation of actin cytoskeleton'
p388
sS'map00960'
p389
S'Tropane, piperidine and pyridine alkaloid biosynthesis'
p390
sS'map00965'
p391
S'Betalain biosynthesis'
p392
sS'map00966'
p393
S'Glucosinolate biosynthesis'
p394
sS'map05134'
p395
S'Legionellosis'
p396
sS'map05131'
p397
S'Shigellosis'
p398
sS'map05130'
p399
S'Pathogenic Escherichia coli infection'
p400
sS'map05133'
p401
S'Pertussis'
p402
sS'map05132'
p403
S'Salmonella infection'
p404
sS'map05034'
p405
S'Alcoholism'
p406
sS'map05030'
p407
S'Cocaine addiction'
p408
sS'map05031'
p409
S'Amphetamine addiction'
p410
sS'map05032'
p411
S'Morphine addiction'
p412
sS'map05033'
p413
S'Nicotine addiction'
p414
sS'map04666'
p415
S'Fc gamma R-mediated phagocytosis'
p416
sS'map00564'
p417
S'Glycerophospholipid metabolism'
p418
sS'map04664'
p419
S'Fc epsilon RI signaling pathway'
p420
sS'map05323'
p421
S'Rheumatoid arthritis'
p422
sS'map00561'
p423
S'Glycerolipid metabolism'
p424
sS'map04660'
p425
S'T cell receptor signaling pathway'
p426
sS'map00562'
p427
S'Inositol phosphate metabolism'
p428
sS'map01210'
p429
S'2-Oxocarboxylic acid metabolism'
p430
sS'map01212'
p431
S'Fatty acid metabolism'
p432
sS'map04668'
p433
S'TNF signaling pathway'
p434
sS'map00363'
p435
S'Bisphenol degradation'
p436
sS'map00362'
p437
S'Benzoate degradation'
p438
sS'map00361'
p439
S'Chlorocyclohexane and chlorobenzene degradation'
p440
sS'map00360'
p441
S'Phenylalanine metabolism'
p442
sS'map00365'
p443
S'Furfural degradation'
p444
sS'map00364'
p445
S'Fluorobenzoate degradation'
p446
sS'map05320'
p447
S'Autoimmune thyroid disease'
p448
sS'map04712'
p449
S'Circadian rhythm - plant'
p450
sS'map04713'
p451
S'Circadian entrainment'
p452
sS'map04710'
p453
S'Circadian rhythm'
p454
sS'map04711'
p455
S'Circadian rhythm - fly'
p456
sS'map07047'
p457
S'Osteoporosis drugs'
p458
sS'map07046'
p459
S'Immunosuppressive agents'
p460
sS'map04714'
p461
S'Thermogenesis'
p462
sS'map07044'
p463
S'Antiviral agents'
p464
sS'map07049'
p465
S'Antithrombosis agents'
p466
sS'map07048'
p467
S'Antimigraines'
p468
sS'map05310'
p469
S'Asthma'
p470
sS'map00510'
p471
S'N-Glycan biosynthesis'
p472
sS'map00511'
p473
S'Other glycan degradation'
p474
sS'map00512'
p475
S'Mucin type O-glycan biosynthesis'
p476
sS'map00513'
p477
S'Various types of N-glycan biosynthesis'
p478
sS'map00514'
p479
S'Other types of O-glycan biosynthesis'
p480
sS'map00515'
p481
S'Mannose type O-glycan biosynthesis'
p482
sS'map00100'
p483
S'Steroid biosynthesis'
p484
sS'map02030'
p485
S'Bacterial chemotaxis'
p486
sS'map00290'
p487
S'Valine, leucine and isoleucine biosynthesis'
p488
sS'map04964'
p489
S'Proximal tubule bicarbonate reclamation'
p490
sS'map04966'
p491
S'Collecting duct acid secretion'
p492
sS'map04961'
p493
S'Endocrine and other factor-regulated calcium reabsorption'
p494
sS'map04960'
p495
S'Aldosterone-regulated sodium reabsorption'
p496
sS'map04962'
p497
S'Vasopressin-regulated water reabsorption'
p498
sS'map04146'
p499
S'Peroxisome'
p500
sS'map04145'
p501
S'Phagosome'
p502
sS'map04144'
p503
S'Endocytosis'
p504
sS'map00190'
p505
S'Oxidative phosphorylation'
p506
sS'map04142'
p507
S'Lysosome'
p508
sS'map04141'
p509
S'Protein processing in endoplasmic reticulum'
p510
sS'map04140'
p511
S'Autophagy - animal'
p512
sS'map03420'
p513
S'Nucleotide excision repair'
p514
sS'map03030'
p515
S'DNA replication'
p516
sS'map04360'
p517
S'Axon guidance'
p518
sS'map00030'
p519
S'Pentose phosphate pathway'
p520
sS'map00196'
p521
S'Photosynthesis - antenna proteins'
p522
sS'map04918'
p523
S'Thyroid hormone synthesis'
p524
sS'map04919'
p525
S'Thyroid hormone signaling pathway'
p526
sS'map04910'
p527
S'Insulin signaling pathway'
p528
sS'map04911'
p529
S'Insulin secretion'
p530
sS'map04912'
p531
S'GnRH signaling pathway'
p532
sS'map04913'
p533
S'Ovarian steroidogenesis'
p534
sS'map04914'
p535
S'Progesterone-mediated oocyte maturation'
p536
sS'map04915'
p537
S'Estrogen signaling pathway'
p538
sS'map04916'
p539
S'Melanogenesis'
p540
sS'map04917'
p541
S'Prolactin signaling pathway'
p542
sS'map04218'
p543
S'Cellular senescence'
p544
sS'map04213'
p545
S'Longevity regulating pathway - multiple species'
p546
sS'map04212'
p547
S'Longevity regulating pathway - worm'
p548
sS'map04211'
p549
S'Longevity regulating pathway'
p550
sS'map04210'
p551
S'Apoptosis'
p552
sS'map04217'
p553
S'Necroptosis'
p554
sS'map04216'
p555
S'Ferroptosis'
p556
sS'map04215'
p557
S'Apoptosis - multiple species'
p558
sS'map04214'
p559
S'Apoptosis - fly'
p560
sS'map00630'
p561
S'Glyoxylate and dicarboxylate metabolism'
p562
sS'map00633'
p563
S'Nitrotoluene degradation'
p564
sS'map00920'
p565
S'Sulfur metabolism'
p566
sS'map00730'
p567
S'Thiamine metabolism'
p568
sS'map01040'
p569
S'Biosynthesis of unsaturated fatty acids'
p570
sS'map05206'
p571
S'MicroRNAs in cancer'
p572
sS'map05205'
p573
S'Proteoglycans in cancer'
p574
sS'map05204'
p575
S'Chemical carcinogenesis'
p576
sS'map05203'
p577
S'Viral carcinogenesis'
p578
sS'map05202'
p579
S'Transcriptional misregulation in cancer'
p580
sS'map05200'
p581
S'Pathways in cancer'
p582
sS'map00950'
p583
S'Isoquinoline alkaloid biosynthesis'
p584
sS'map01130'
p585
S'Biosynthesis of antibiotics'
p586
sS'map05100'
p587
S'Bacterial invasion of epithelial cells'
p588
sS'map04136'
p589
S'Autophagy - other'
p590
sS'map04137'
p591
S'Mitophagy - animal'
p592
sS'map07225'
p593
S'Glucocorticoid and mineralocorticoid receptor agonists/antagonists'
p594
sS'map07224'
p595
S'Opioid receptor agonists/antagonists'
p596
sS'map07223'
p597
S'Retinoic acid receptor (RAR) and retinoid X receptor (RXR) agonists/antagonists'
p598
sS'map07222'
p599
S'Peroxisome proliferator-activated receptor (PPAR) agonists'
p600
sS'map04130'
p601
S'SNARE interactions in vesicular transport'
p602
sS'map07220'
p603
S'Cholinergic and anticholinergic drugs'
p604
sS'map05332'
p605
S'Graft-versus-host disease'
p606
sS'map05330'
p607
S'Allograft rejection'
p608
sS'map00550'
p609
S'Peptidoglycan biosynthesis'
p610
sS'map04138'
p611
S'Autophagy - yeast'
p612
sS'map04139'
p613
S'Mitophagy - yeast'
p614
sS'map00253'
p615
S'Tetracycline biosynthesis'
p616
sS'map00250'
p617
S'Alanine, aspartate and glutamate metabolism'
p618
sS'map00254'
p619
S'Aflatoxin biosynthesis'
p620
sS'map00740'
p621
S'Riboflavin metabolism'
p622
sS'map04622'
p623
S'RIG-I-like receptor signaling pathway'
p624
sS'map04623'
p625
S'Cytosolic DNA-sensing pathway'
p626
sS'map04620'
p627
S'Toll-like receptor signaling pathway'
p628
sS'map04621'
p629
S'NOD-like receptor signaling pathway'
p630
sS'map04626'
p631
S'Plant-pathogen interaction'
p632
sS'map04624'
p633
S'Toll and Imd signaling pathway'
p634
sS'map04625'
p635
S'C-type lectin receptor signaling pathway'
p636
sS'map04740'
p637
S'Olfactory transduction'
p638
sS'map04742'
p639
S'Taste transduction'
p640
sS'map04745'
p641
S'Phototransduction - fly'
p642
sS'map04744'
p643
S'Phototransduction'
p644
sS'map03070'
p645
S'Bacterial secretion system'
p646
sS'map04550'
p647
S'Signaling pathways regulating pluripotency of stem cells'
p648
sS'map00780'
p649
S'Biotin metabolism'
p650
sS'map07057'
p651
S'Antiparkinsonian agents'
p652
sS'map00785'
p653
S'Lipoic acid metabolism'
p654
sS'map05225'
p655
S'Hepatocellular carcinoma'
p656
sS'map00073'
p657
S'Cutin, suberine and wax biosynthesis'
p658
sS'map00072'
p659
S'Synthesis and degradation of ketone bodies'
p660
sS'map00071'
p661
S'Fatty acid degradation'
p662
sS'map05224'
p663
S'Breast cancer'
p664
sS'map05226'
p665
S'Gastric cancer'
p666
sS'map05221'
p667
S'Acute myeloid leukemia'
p668
sS'map05220'
p669
S'Chronic myeloid leukemia'
p670
sS'map04950'
p671
S'Maturity onset diabetes of the young'
p672
sS'map05223'
p673
S'Non-small cell lung cancer'
p674
sS'map05222'
p675
S'Small cell lung cancer'
p676
sS'map04520'
p677
S'Adherens junction'
p678
sS'map00790'
p679
S'Folate biosynthesis'
p680
sS'map05150'
p681
S'Staphylococcus aureus infection'
p682
sS'map03410'
p683
S'Base excision repair'
p684
sS'map00670'
p685
S'One carbon pool by folate'
p686
sS'map04310'
p687
S'Wnt signaling pathway'
p688
sS'map00770'
p689
S'Pantothenate and CoA biosynthesis'
p690
sS'map00473'
p691
S'D-Alanine metabolism'
p692
sS'map00472'
p693
S'D-Arginine and D-ornithine metabolism'
p694
sS'map00471'
p695
S'D-Glutamine and D-glutamate metabolism'
p696
sS'map01100'
p697
S'Metabolic pathways'
p698
sS'map05152'
p699
S'Tuberculosis'
p700
sS'map00984'
p701
S'Steroid degradation'
p702
sS'map00983'
p703
S'Drug metabolism - other enzymes'
p704
sS'map00982'
p705
S'Drug metabolism - cytochrome P450'
p706
sS'map00981'
p707
S'Insect hormone biosynthesis'
p708
sS'map00980'
p709
S'Metabolism of xenobiotics by cytochrome P450'
p710
sS'map07211'
p711
S'Serotonin receptor agonists/antagonists'
p712
sS'map00600'
p713
S'Sphingolipid metabolism'
p714
sS'map00601'
p715
S'Glycosphingolipid biosynthesis - lacto and neolacto series'
p716
sS'map00603'
p717
S'Glycosphingolipid biosynthesis - globo and isoglobo series'
p718
sS'map00604'
p719
S'Glycosphingolipid biosynthesis - ganglio series'
p720
sS'map01070'
p721
S'Biosynthesis of plant hormones'
p722
sS'map05020'
p723
S'Prion diseases'
p724
sS'map01200'
p725
S'Carbon metabolism'
p726
sS'map00350'
p727
S'Tyrosine metabolism'
p728
sS'map03320'
p729
S'PPAR signaling pathway'
p730
sS'map04514'
p731
S'Cell adhesion molecules (CAMs)'
p732
sS'map04510'
p733
S'Focal adhesion'
p734
sS'map04512'
p735
S'ECM-receptor interaction'
p736
sS'map00130'
p737
S'Ubiquinone and other terpenoid-quinone biosynthesis'
p738
sS'map00500'
p739
S'Starch and sucrose metabolism'
p740
sS'map02040'
p741
S'Flagellar assembly'
p742
sS'map04972'
p743
S'Pancreatic secretion'
p744
sS'map04670'
p745
S'Leukocyte transendothelial migration'
p746
sS'map04672'
p747
S'Intestinal immune network for IgA production'
p748
sS'map04970'
p749
S'Salivary secretion'
p750
sS'map00533'
p751
S'Glycosaminoglycan biosynthesis - keratan sulfate'
p752
sS'map04971'
p753
S'Gastric acid secretion'
p754
sS'map03020'
p755
S'RNA polymerase'
p756
sS'map04350'
p757
S'TGF-beta signaling pathway'
p758
sS'map03022'
p759
S'Basal transcription factors'
p760
sS'map03450'
p761
S'Non-homologous end-joining'
p762
sS'map04974'
p763
S'Protein digestion and absorption'
p764
sS'map00680'
p765
S'Methane metabolism'
p766
sS'map00430'
p767
S'Taurine and hypotaurine metabolism'
p768
sS'map03440'
p769
S'Homologous recombination'
p770
sS'map00640'
p771
S'Propanoate metabolism'
p772
sS'map00642'
p773
S'Ethylbenzene degradation'
p774
sS'map00643'
p775
S'Styrene degradation'
p776
sS'map00720'
p777
S'Carbon fixation pathways in prokaryotes'
p778
sS'map00310'
p779
S'Lysine degradation'
p780
sS'map00311'
p781
S'Penicillin and cephalosporin biosynthesis'
p782
sS'map07032'
p783
S'Hypnotics'
p784
sS'map07033'
p785
S'Anticonvulsants'
p786
sS'map07030'
p787
S'Anxiolytics'
p788
sS'map07031'
p789
S'Antipsychotics - butyrophenones'
p790
sS'map07036'
p791
S'Calcium channel blocking drugs'
p792
sS'map07037'
p793
S'Antiarrhythmic drugs'
p794
sS'map07034'
p795
S'Eicosanoids'
p796
sS'map07035'
p797
S'Prostaglandins'
p798
sS'map07038'
p799
S'Antiulcer drugs'
p800
sS'map07039'
p801
S'Opioid analgesics'
p802
sS'map00860'
p803
S'Porphyrin and chlorophyll metabolism'
p804
sS'map00943'
p805
S'Isoflavonoid biosynthesis'
p806
sS'map00942'
p807
S'Anthocyanin biosynthesis'
p808
sS'map00941'
p809
S'Flavonoid biosynthesis'
p810
sS'map00940'
p811
S'Phenylpropanoid biosynthesis'
p812
sS'map00945'
p813
S'Stilbenoid, diarylheptanoid and gingerol biosynthesis'
p814
sS'map00944'
p815
S'Flavone and flavonol biosynthesis'
p816
sS'map05111'
p817
S'Biofilm formation - Vibrio cholerae'
p818
sS'map05110'
p819
S'Vibrio cholerae infection'
p820
sS'map04640'
p821
S'Hematopoietic cell lineage'
p822
sS'map00540'
p823
S'Lipopolysaccharide biosynthesis'
p824
sS'map00260'
p825
S'Glycine, serine and threonine metabolism'
p826
sS'map00261'
p827
S'Monobactam biosynthesis'
p828
sS'map00380'
p829
S'Tryptophan metabolism'
p830
sS'map04630'
p831
S'JAK-STAT signaling pathway'
p832
sS'map05230'
p833
S'Central carbon metabolism in cancer'
p834
sS'map05231'
p835
S'Choline metabolism in cancer'
p836
sS'map04730'
p837
S'Long-term depression'
p838
sS'map04392'
p839
S'Hippo signaling pathway - multiple species'
p840
sS'map03060'
p841
S'Protein export'
p842
sS'map04390'
p843
S'Hippo signaling pathway'
p844
sS'map04391'
p845
S'Hippo signaling pathway - fly'
p846
sS'map04015'
p847
S'Rap1 signaling pathway'
p848
sS'map04014'
p849
S'Ras signaling pathway'
p850
sS'map00040'
p851
S'Pentose and glucuronate interconversions'
p852
sS'map04540'
p853
S'Gap junction'
p854
sS'map04011'
p855
S'MAPK signaling pathway - yeast'
p856
sS'map04010'
p857
S'MAPK signaling pathway'
p858
sS'map04013'
p859
S'MAPK signaling pathway - fly'
p860
sS'map04012'
p861
S'ErbB signaling pathway'
p862
sS'map04071'
p863
S'Sphingolipid signaling pathway'
p864
sS'map05321'
p865
S'Inflammatory bowel disease (IBD)'
p866
sS'map03008'
p867
S'Ribosome biogenesis in eukaryotes'
p868
sS'map02010'
p869
S'ABC transporters'
p870
sS'map04080'
p871
S'Neuroactive ligand-receptor interaction'
p872
sS'map07219'
p873
S'Cyclooxygenase inhibitors'
p874
sS'map04940'
p875
S'Type I diabetes mellitus'
p876
sS'map07212'
p877
S'Histamine H1 receptor antagonists'
p878
sS'map04120'
p879
S'Ubiquitin mediated proteolysis'
p880
sS'map04122'
p881
S'Sulfur relay system'
p882
sS'map07216'
p883
S'Catecholamine transferase inhibitors'
p884
sS'map07217'
p885
S'Renin-angiotensin system inhibitors'
p886
sS'map07214'
p887
S'beta-Adrenergic receptor agonists/antagonists'
p888
sS'map07215'
p889
S'alpha-Adrenergic receptor agonists/antagonists'
p890
sS'map05322'
p891
S'Systemic lupus erythematosus'
p892
sS'map04341'
p893
S'Hedgehog signaling pathway - fly'
p894
sS'map04260'
p895
S'Cardiac muscle contraction'
p896
sS'map04261'
p897
S'Adrenergic signaling in cardiomyocytes'
p898
sS'map04068'
p899
S'FoxO signaling pathway'
p900
sS'map03013'
p901
S'RNA transport'
p902
sS'map03015'
p903
S'mRNA surveillance pathway'
p904
sS'map03018'
p905
S'RNA degradation'
p906
sS'map04062'
p907
S'Chemokine signaling pathway'
p908
sS'map04064'
p909
S'NF-kappa B signaling pathway'
p910
sS'map04066'
p911
S'HIF-1 signaling pathway'
p912
sS'map00760'
p913
S'Nicotinate and nicotinamide metabolism'
p914
sS'map00440'
p915
S'Phosphonate and phosphinate metabolism'
p916
sS'map07041'
p917
S'Antineoplastics - antimetabolic agents'
p918
sS'map05166'
p919
S'Human T-cell leukemia virus 1 infection'
p920
sS'map05167'
p921
S'Kaposi sarcoma-associated herpesvirus infection'
p922
sS'map05164'
p923
S'Influenza A'
p924
sS'map01110'
p925
S'Biosynthesis of secondary metabolites'
p926
sS'map05162'
p927
S'Measles'
p928
sS'map05163'
p929
S'Human cytomegalovirus infection'
p930
sS'map05160'
p931
S'Hepatitis C'
p932
sS'map05161'
p933
S'Hepatitis B'
p934
sS'map05168'
p935
S'Herpes simplex infection'
p936
sS'map05169'
p937
S'Epstein-Barr virus infection'
p938
sS'map05145'
p939
S'Toxoplasmosis'
p940
sS'map05146'
p941
S'Amoebiasis'
p942
sS'map00909'
p943
S'Sesquiterpenoid and triterpenoid biosynthesis'
p944
sS'map00908'
p945
S'Zeatin biosynthesis'
p946
sS'map00906'
p947
S'Carotenoid biosynthesis'
p948
sS'map00905'
p949
S'Brassinosteroid biosynthesis'
p950
sS'map00904'
p951
S'Diterpenoid biosynthesis'
p952
sS'map00903'
p953
S'Limonene and pinene degradation'
p954
sS'map00902'
p955
S'Monoterpenoid biosynthesis'
p956
sS'map00901'
p957
S'Indole alkaloid biosynthesis'
p958
sS'map00900'
p959
S'Terpenoid backbone biosynthesis'
p960
sS'map05012'
p961
S'Parkinson disease'
p962
sS'map05010'
p963
S'Alzheimer disease'
p964
sS'map05016'
p965
S'Huntington disease'
p966
sS'map05014'
p967
S'Amyotrophic lateral sclerosis (ALS)'
p968
sS'map01066'
p969
S'Biosynthesis of alkaloids derived from terpenoid and polyketide'
p970
sS'map01065'
p971
S'Biosynthesis of alkaloids derived from histidine and purine'
p972
sS'map01064'
p973
S'Biosynthesis of alkaloids derived from ornithine, lysine and nicotinic acid'
p974
sS'map01063'
p975
S'Biosynthesis of alkaloids derived from shikimate pathway'
p976
sS'map01062'
p977
S'Biosynthesis of terpenoids and steroids'
p978
sS'map01061'
p979
S'Biosynthesis of phenylpropanoids'
p980
sS'map01060'
p981
S'Biosynthesis of plant secondary metabolites'
p982
sS'map00220'
p983
S'Arginine biosynthesis'
p984
sS'map04016'
p985
S'MAPK signaling pathway - plant'
p986
sS'map00340'
p987
S'Histidine metabolism'
p988
sS'map01230'
p989
S'Biosynthesis of amino acids'
p990
sS'map00830'
p991
S'Retinol metabolism'
p992
sS'map01522'
p993
S'Endocrine resistance'
p994
sS'map01523'
p995
S'Antifolate resistance'
p996
sS'map01521'
p997
S'EGFR tyrosine kinase inhibitor resistance'
p998
sS'map01524'
p999
S'Platinum drug resistance'
p1000
sS'map04110'
p1001
S'Cell cycle'
p1002
sS'map04111'
p1003
S'Cell cycle - yeast'
p1004
sS'map04112'
p1005
S'Cell cycle - Caulobacter'
p1006
sS'map04113'
p1007
S'Meiosis - yeast'
p1008
sS'map04114'
p1009
S'Oocyte meiosis'
p1010
sS'map04115'
p1011
S'p53 signaling pathway'
p1012
sS'map00121'
p1013
S'Secondary bile acid biosynthesis'
p1014
sS'map00120'
p1015
S'Primary bile acid biosynthesis'
p1016
sS'map00534'
p1017
S'Glycosaminoglycan biosynthesis - heparan sulfate / heparin'
p1018
sS'map00532'
p1019
S'Glycosaminoglycan biosynthesis - chondroitin sulfate / dermatan sulfate'
p1020
sS'map00910'
p1021
S'Nitrogen metabolism'
p1022
sS'map00531'
p1023
S'Glycosaminoglycan degradation'
p1024
sS'map05340'
p1025
S'Primary immunodeficiency'
p1026
sS'map03050'
p1027
S'Proteasome'
p1028
sS'map04340'
p1029
S'Hedgehog signaling pathway'
p1030
sS'map04024'
p1031
S'cAMP signaling pathway'
p1032
sS'map00010'
p1033
S'Glycolysis / Gluconeogenesis'
p1034
sS'map04020'
p1035
S'Calcium signaling pathway'
p1036
sS'map04022'
p1037
S'cGMP-PKG signaling pathway'
p1038
sS'map00402'
p1039
S'Benzoxazinoid biosynthesis'
p1040
sS'map00403'
p1041
S'Indole diterpene alkaloid biosynthesis'
p1042
sS'map00400'
p1043
S'Phenylalanine, tyrosine and tryptophan biosynthesis'
p1044
sS'map00401'
p1045
S'Novobiocin biosynthesis'
p1046
sS'map00404'
p1047
S'Staurosporine biosynthesis'
p1048
sS'map00405'
p1049
S'Phenazine biosynthesis'
p1050
sS'map04934'
p1051
S'Cushing syndrome'
p1052
sS'map04932'
p1053
S'Non-alcoholic fatty liver disease (NAFLD)'
p1054
sS'map04933'
p1055
S'AGE-RAGE signaling pathway in diabetic complications'
p1056
sS'map04930'
p1057
S'Type II diabetes mellitus'
p1058
sS'map04931'
p1059
S'Insulin resistance'
p1060
s.