(dp0
S'C07632'
p1
(dp2
S'A'
p3
(lp4
VSteroids
p5
asS'C'
p6
(lp7
S'Androstane derivatives [Fig]'
p8
asS'B'
p9
(lp10
S'19-Carbon atoms'
p11
asS'D'
p12
(lp13
S'Androstanediol'
p14
assS'C00942'
p15
(dp16
g3
(lp17
VNucleic acids
p18
asg6
(lp19
S"3',5'-Cyclic nuclcleotides"
p20
asg9
(lp21
S'Cyclic nucleotides [Fig]'
p22
asg12
(lp23
S"3',5'-Cyclic GMP"
p24
assS'C00943'
p25
(dp26
g3
(lp27
g18
asg6
(lp28
g20
asg9
(lp29
g22
asg12
(lp30
S"3',5'-Cyclic IMP"
p31
assS'C00149'
p32
(dp33
g3
(lp34
VOrganic acids
p35
asg6
(lp36
S'Hydroxycarboxylic acids'
p37
asg9
(lp38
S'Carboxylic acids [Fig]'
p39
asg12
(lp40
S'Malate; (S)-2-Hydroxybutanediate'
p41
assS'C18200'
p42
(dp43
g3
(lp44
VHormones and transmitters
p45
asg6
(lp46
S'Erythropoietin [KO:K05437]'
p47
asg9
(lp48
S'Peptide hormones'
p49
asg12
(lp50
S'Erythropoietin'
p51
assS'C18201'
p52
(dp53
g3
(lp54
g45
asg6
(lp55
S'Prolactin [KO:K05439]'
p56
asg9
(lp57
g49
asg12
(lp58
S'Prolactin'
p59
assS'C11612'
p60
(dp61
g3
(lp62
VAntibiotics
p63
asg6
(lp64
S'Non-ribosomal peptides'
p65
asg9
(lp66
S'Polyketides and nonribosomal peptides [Fig]'
p67
asg12
(lp68
S'Polymyxin B'
p69
assS'C05356'
p70
(dp71
g3
(lp72
VLipids
p73
asg6
(lp74
S'Leukotrienes'
p75
asg9
(lp76
S'Eicosanoids [Fig]'
p77
asg12
(lp78
S'5-HPETE'
p79
assS'G10593'
p80
(dp81
g3
(lp82
VCarbohydrates
p83
asg6
(lp84
S'Heteropolysaccharides'
p85
asg9
(lp86
S'Polysaccharides [Fig]'
p87
asg12
(lp88
S'Alginic acid'
p89
assS'C11684'
p90
(dp91
g3
(lp92
g45
asg6
(lp93
S'Enkephalin [KO:K18832]'
p94
asg9
(lp95
g49
asg12
(lp96
S'Met-enkephalin'
p97
assS'C16084'
p98
(dp99
g3
(lp100
g45
asg6
(lp101
S'Gonadotropin-releasing hormone [KO:K05252]'
p102
asg9
(lp103
g49
asg12
(lp104
S'Gonadotropin-releasing hormone II'
p105
assS'C16085'
p106
(dp107
g3
(lp108
g45
asg6
(lp109
S'Growth hormone-releasing hormone [KO:K05260]'
p110
asg9
(lp111
g49
asg12
(lp112
S'Growth hormone-releasing hormone (1-29)'
p113
assS'C16086'
p114
(dp115
g3
(lp116
g45
asg6
(lp117
S'Prolactin-releasing peptide [KO:K05269]'
p118
asg9
(lp119
g49
asg12
(lp120
S'Prolactin-releasing peptide-31'
p121
assS'C16087'
p122
(dp123
g3
(lp124
g45
asg6
(lp125
g118
asg9
(lp126
g49
asg12
(lp127
S'Prolactin-releasing peptide-20'
p128
assS'C00828'
p129
(dp130
g3
(lp131
VVitamins and Cofactors
p132
asg6
(lp133
S'Fat-soluble vitamins [Fig]'
p134
asg9
(lp135
S'Vitamins'
p136
asg12
(lp137
S'Menaquinone (Vitamin K2)'
p138
assS'C00820'
p139
(dp140
g3
(lp141
VPeptides
p142
asg6
(lp143
S'Other amino acids [Fig]'
p144
asg9
(lp145
S'Amino acids'
p146
asg12
(lp147
S'D-Threonine'
p148
assS'C00535'
p149
(dp150
g3
(lp151
g5
ag45
asg6
(lp152
g8
aS'Androgens'
p153
asg9
(lp154
g11
aS'Steroid hormones'
p155
asg12
(lp156
S'Testosterone'
p157
aS'Testosterone'
p158
assS'C00534'
p159
(dp160
g3
(lp161
g132
asg6
(lp162
S'Water-soluble vitamins [Fig]'
p163
asg9
(lp164
g136
asg12
(lp165
S'Pyridoxamine (Vitamin B6)'
p166
assS'C06125'
p167
(dp168
g3
(lp169
g73
asg6
(lp170
S'Glycosphingolipids'
p171
asg9
(lp172
S'Glycolipids [Fig]'
p173
asg12
(lp174
S'Sulfatide'
p175
assS'C01187'
p176
(dp177
g3
(lp178
g83
asg6
(lp179
S'Sugar acids [Fig]'
p180
asg9
(lp181
S'Monosaccharides'
p182
asg12
(lp183
S'3-Deoxy-D-manno-octulosonic acid'
p184
assS'C16923'
p185
(dp186
g3
(lp187
g5
asg6
(lp188
S'Bufanolide derivatives [Fig]'
p189
asg9
(lp190
S'24-Carbon atoms'
p191
asg12
(lp192
S'Bufotalin'
p193
assS'C01574'
p194
(dp195
g3
(lp196
g45
asg6
(lp197
S'Dynorphin [KO:K15840]'
p198
asg9
(lp199
g49
asg12
(lp200
S'Dynorphin A'
p201
assS'C00795'
p202
(dp203
g3
(lp204
g83
asg6
(lp205
S'Ketoses [Fig]'
p206
asg9
(lp207
g182
asg12
(lp208
S'D-Tagatose'
p209
assS'C00794'
p210
(dp211
g3
(lp212
g83
asg6
(lp213
S'Sugar alcohols [Fig]'
p214
asg9
(lp215
g182
asg12
(lp216
S'Sorbitol'
p217
assS'C00793'
p218
(dp219
g3
(lp220
g142
asg6
(lp221
g144
asg9
(lp222
g146
asg12
(lp223
S'D-Cysteine'
p224
assS'C00792'
p225
(dp226
g3
(lp227
g142
asg6
(lp228
g144
asg9
(lp229
g146
asg12
(lp230
S'D-Arginine'
p231
assS'C01737'
p232
(dp233
g3
(lp234
g63
asg6
(lp235
S'2-Deoxystreptamines'
p236
asg9
(lp237
S'Aminoglycosides [Fig]'
p238
asg12
(lp239
S'Neomycin B'
p240
assS'C05551'
p241
(dp242
g3
(lp243
g63
asg6
(lp244
S'Penams'
p245
asg9
(lp246
S'beta-Lactams [Fig]'
p247
asg12
(lp248
S'Penicillin G'
p249
assS'C00388'
p250
(dp251
g3
(lp252
g142
ag45
ag45
asg6
(lp253
S'Biogenic amines [Fig]'
p254
aS'Histamine'
p255
aS'Biogenic amines'
p256
asg9
(lp257
S'Amines'
p258
aS'Other hormones'
p259
aS'Neurotransmitters [Fig]'
p260
asg12
(lp261
S'Histamine'
p262
aS'Histamine'
p263
aS'Histamine'
p264
assS'C00222'
p265
(dp266
g3
(lp267
g35
asg6
(lp268
S'3-Oxocarboxylic acids'
p269
asg9
(lp270
g39
asg12
(lp271
S'3-Oxopropanoate'
p272
assS'C00386'
p273
(dp274
g3
(lp275
g142
asg6
(lp276
S'Dipeptides [Fig]'
p277
asg9
(lp278
S'Peptides'
p279
asg12
(lp280
S'Carnosine'
p281
assS'C00387'
p282
(dp283
g3
(lp284
g18
asg6
(lp285
S'Ribonucleosides'
p286
asg9
(lp287
S'Nucleosides [Fig]'
p288
asg12
(lp289
S'Guanosine (G)'
p290
assS'C00380'
p291
(dp292
g3
(lp293
g18
asg6
(lp294
S'Pyrimidines'
p295
asg9
(lp296
S'Bases [Fig]'
p297
asg12
(lp298
S'Cytosine (Cyt)'
p299
assS'C00383'
p300
(dp301
g3
(lp302
g35
asg6
(lp303
S'Dicarboxylic acids'
p304
asg9
(lp305
g39
asg12
(lp306
S'Malonate'
p307
assS'C00941'
p308
(dp309
g3
(lp310
g18
asg6
(lp311
g20
asg9
(lp312
g22
asg12
(lp313
S"3',5'-Cyclic CMP"
p314
assS'C15482'
p315
(dp316
g3
(lp317
g63
asg6
(lp318
g65
asg9
(lp319
g67
asg12
(lp320
S'Bacitracin A'
p321
assS'C00547'
p322
(dp323
g3
(lp324
g45
ag45
asg6
(lp325
S'Adrenalines'
p326
ag256
asg9
(lp327
g259
ag260
asg12
(lp328
S'Noradrenaline'
p329
aS'Norepinephrine; Noradrenaline'
p330
assS'C01625'
p331
(dp332
g3
(lp333
g83
asg6
(lp334
S'Disaccharides'
p335
asg9
(lp336
S'Oligosaccharides [Fig]'
p337
asg12
(lp338
S'Vicianose'
p339
assS'C01801'
p340
(dp341
g3
(lp342
g83
asg6
(lp343
S'Deoxy sugars [Fig]'
p344
asg9
(lp345
g182
asg12
(lp346
S'Deoxyribose'
p347
assS'C00364'
p348
(dp349
g3
(lp350
g18
asg6
(lp351
S'Deoxyribonucleotides'
p352
asg9
(lp353
S'Nucleotides [Fig]'
p354
asg12
(lp355
S'dTMP'
p356
assS'C00365'
p357
(dp358
g3
(lp359
g18
asg6
(lp360
g352
asg9
(lp361
g354
asg12
(lp362
S'dUMP'
p363
assS'C00362'
p364
(dp365
g3
(lp366
g18
asg6
(lp367
g352
asg9
(lp368
g354
asg12
(lp369
S'dGMP'
p370
assS'C00363'
p371
(dp372
g3
(lp373
g18
asg6
(lp374
g352
asg9
(lp375
g354
asg12
(lp376
S'dTDP'
p377
assS'C00360'
p378
(dp379
g3
(lp380
g18
asg6
(lp381
g352
asg9
(lp382
g354
asg12
(lp383
S'dAMP'
p384
assS'C00008'
p385
(dp386
g3
(lp387
g18
asg6
(lp388
S'Ribonucleotides'
p389
asg9
(lp390
g354
asg12
(lp391
S'ADP'
p392
assS'C00006'
p393
(dp394
g3
(lp395
g132
asg6
(lp396
S'Coenzymes [Fig]'
p397
asg9
(lp398
S'Cofactors'
p399
asg12
(lp400
S'NADP'
p401
assS'C00068'
p402
(dp403
g3
(lp404
g132
asg6
(lp405
g397
asg9
(lp406
g399
asg12
(lp407
S'TPP'
p408
assS'C00002'
p409
(dp410
g3
(lp411
g18
ag132
asg6
(lp412
g389
ag397
asg9
(lp413
g354
ag399
asg12
(lp414
S'ATP'
p415
aS'ATP'
p416
assS'C15923'
p417
(dp418
g3
(lp419
g83
asg6
(lp420
S'Aldoses [Fig]'
p421
asg9
(lp422
g182
asg12
(lp423
S'L-Gulose'
p424
assS'C17714'
p425
(dp426
g3
(lp427
g35
asg6
(lp428
S'Monocarboxylic acids'
p429
asg9
(lp430
g39
asg12
(lp431
S'Enanthate; Heptanoate'
p432
assS'C08868'
p433
(dp434
g3
(lp435
g5
asg6
(lp436
g189
asg9
(lp437
g191
asg12
(lp438
S'Hellebrin'
p439
assS'C02341'
p440
(dp441
g3
(lp442
g35
asg6
(lp443
S'Tricarboxylic acids'
p444
asg9
(lp445
g39
asg12
(lp446
S'trans-Aconitate'
p447
assS'C08866'
p448
(dp449
g3
(lp450
g5
asg6
(lp451
S'Cardanolide derivatives [Fig]'
p452
asg9
(lp453
S'23-Carbon atoms'
p454
asg12
(lp455
S'Gitoxin'
p456
assS'C00645'
p457
(dp458
g3
(lp459
g83
asg6
(lp460
S'Amino sugars [Fig]'
p461
asg9
(lp462
g182
asg12
(lp463
S'N-Acetyl-D-mannosamine'
p464
assS'C00312'
p465
(dp466
g3
(lp467
g83
asg6
(lp468
g206
asg9
(lp469
g182
asg12
(lp470
S'L-Xylulose'
p471
assS'C00311'
p472
(dp473
g3
(lp474
g35
asg6
(lp475
g444
asg9
(lp476
g39
asg12
(lp477
S'Isocitrate'
p478
assS'C00310'
p479
(dp480
g3
(lp481
g83
asg6
(lp482
g206
asg9
(lp483
g182
asg12
(lp484
S'D-Xylulose'
p485
assS'C00641'
p486
(dp487
g3
(lp488
g73
asg6
(lp489
S'Acylglycerols'
p490
asg9
(lp491
S'Fats [Fig]'
p492
asg12
(lp493
S'1,2-Diacylglycerol'
p494
assS'C00314'
p495
(dp496
g3
(lp497
g132
asg6
(lp498
g163
asg9
(lp499
g136
asg12
(lp500
S'Pyridoxine (Vitamin B6)'
p501
assS'C00762'
p502
(dp503
g3
(lp504
g5
ag45
asg6
(lp505
S'Pregnane derivatives [Fig]'
p506
aS'Glucocorticoids'
p507
asg9
(lp508
S'21-Carbon atoms'
p509
ag155
asg12
(lp510
S'Cortisone'
p511
aS'Cortisone'
p512
assS'C00763'
p513
(dp514
g3
(lp515
g142
asg6
(lp516
g144
asg9
(lp517
g146
asg12
(lp518
S'D-Proline'
p519
assS'C00095'
p520
(dp521
g3
(lp522
g83
asg6
(lp523
g206
asg9
(lp524
g182
asg12
(lp525
S'D-Fructose; Fruit sugar'
p526
assS'C00764'
p527
(dp528
g3
(lp529
g83
asg6
(lp530
g206
asg9
(lp531
g182
asg12
(lp532
S'D-Sorbose'
p533
assS'C00097'
p534
(dp535
g3
(lp536
g142
asg6
(lp537
S'Common amino acids [Fig]'
p538
asg9
(lp539
g146
asg12
(lp540
S'Cysteine (Cys)'
p541
assS'C01457'
p542
(dp543
g3
(lp544
g63
asg6
(lp545
S'Macrolides'
p546
asg9
(lp547
g67
asg12
(lp548
S'Tylosin'
p549
assS'C00299'
p550
(dp551
g3
(lp552
g18
asg6
(lp553
g286
asg9
(lp554
g288
asg12
(lp555
S'Uridine (U)'
p556
assS'C06763'
p557
(dp558
g3
(lp559
g63
asg6
(lp560
S'Pure sugars'
p561
asg9
(lp562
S'Others [Fig]'
p563
asg12
(lp564
S'Nojirimycin'
p565
assS'C00378'
p566
(dp567
g3
(lp568
g132
asg6
(lp569
g163
asg9
(lp570
g136
asg12
(lp571
S'Thiamine (Vitamin B1)'
p572
assS'C14392'
p573
(dp574
g3
(lp575
g5
asg6
(lp576
S'Estrane derivatives [Fig]'
p577
asg9
(lp578
S'18-Carbon atoms'
p579
asg12
(lp580
S'Equilin'
p581
assS'C04730'
p582
(dp583
g3
(lp584
g73
asg6
(lp585
g171
asg9
(lp586
g173
asg12
(lp587
S'GM3'
p588
assS'C06194'
p589
(dp590
g3
(lp591
g18
asg6
(lp592
S"2',3'-Cyclic nucleotides"
p593
asg9
(lp594
g22
asg12
(lp595
S"2',3'-Cyclic GMP"
p596
assS'C00187'
p597
(dp598
g3
(lp599
g5
asg6
(lp600
S'Cholestane derivatives [Fig]'
p601
asg9
(lp602
S'27-Carbon atoms'
p603
asg12
(lp604
S'Cholesterol'
p605
assS'C12046'
p606
(dp607
g3
(lp608
g63
asg6
(lp609
g65
asg9
(lp610
g67
asg12
(lp611
S'Teicoplanin A2-2'
p612
assS'C06427'
p613
(dp614
g3
(lp615
g73
asg6
(lp616
S'Unsaturated fatty acids'
p617
asg9
(lp618
S'Fatty acids [Fig]'
p619
asg12
(lp620
S'alpha-Linolenic acid (18:3;9,12,15)'
p621
assS'C06426'
p622
(dp623
g3
(lp624
g73
asg6
(lp625
g617
asg9
(lp626
g619
asg12
(lp627
S'gamma-Linolenic acid (18:3;6,9,12)'
p628
assS'C06425'
p629
(dp630
g3
(lp631
g73
asg6
(lp632
S'Saturated fatty acids'
p633
asg9
(lp634
g619
asg12
(lp635
S'Arachidic acid (20:0)'
p636
assS'C06424'
p637
(dp638
g3
(lp639
g73
asg6
(lp640
g633
asg9
(lp641
g619
asg12
(lp642
S'Myristic acid (14:0)'
p643
assS'C06423'
p644
(dp645
g3
(lp646
g35
ag73
asg6
(lp647
g429
ag633
asg9
(lp648
g39
ag619
asg12
(lp649
S'Caprylate; Octanoate'
p650
aS'Caprylic acid (8:0)'
p651
assS'C08913'
p652
(dp653
g3
(lp654
g5
asg6
(lp655
S'Spirostan derivatives [Fig]'
p656
asg9
(lp657
g603
asg12
(lp658
S'Smilagenin'
p659
assS'C06420'
p660
(dp661
g3
(lp662
g142
asg6
(lp663
g144
asg9
(lp664
g146
asg12
(lp665
S'D-Tyrosine'
p666
assS'C06429'
p667
(dp668
g3
(lp669
g73
asg6
(lp670
g617
asg9
(lp671
g619
asg12
(lp672
S'Docosahexaenoic acid (22:6;4,7,10,13,16,19)'
p673
assS'C06428'
p674
(dp675
g3
(lp676
g73
asg6
(lp677
g617
asg9
(lp678
g619
asg12
(lp679
S'Eicosapentaenoic acid (20:5;5,8,11,14.17)'
p680
assS'C00164'
p681
(dp682
g3
(lp683
g35
asg6
(lp684
g269
asg9
(lp685
g39
asg12
(lp686
S'Acetoacetate; 3-Oxobutanoate'
p687
assS'C02048'
p688
(dp689
g3
(lp690
g83
asg6
(lp691
g335
asg9
(lp692
g337
asg12
(lp693
S'Laminaribiose'
p694
assS'C00163'
p695
(dp696
g3
(lp697
g35
asg6
(lp698
g429
asg9
(lp699
g39
asg12
(lp700
S'Propionate; Propanoate'
p701
assS'C02045'
p702
(dp703
g3
(lp704
g83
asg6
(lp705
g206
asg9
(lp706
g182
asg12
(lp707
S'L-Erythrulose'
p708
assS'C06566'
p709
(dp710
g3
(lp711
g63
asg6
(lp712
S'Cephems'
p713
asg9
(lp714
g247
asg12
(lp715
S'Cephamycin C'
p716
assS'C04373'
p717
(dp718
g3
(lp719
g5
asg6
(lp720
g8
asg9
(lp721
g11
asg12
(lp722
S'Etiocholanolone'
p723
assS'C16533'
p724
(dp725
g3
(lp726
g73
asg6
(lp727
g617
asg9
(lp728
g619
asg12
(lp729
S'Docosadienoic acid (22:2;13,16)'
p730
assS'C01060'
p731
(dp732
g3
(lp733
g142
asg6
(lp734
g144
asg9
(lp735
g146
asg12
(lp736
S'3,5-Diiodo-L-tyrosine'
p737
assS'C00329'
p738
(dp739
g3
(lp740
g83
asg6
(lp741
g461
asg9
(lp742
g182
asg12
(lp743
S'D-Glucosamine'
p744
assS'C00864'
p745
(dp746
g3
(lp747
g132
asg6
(lp748
g163
asg9
(lp749
g136
asg12
(lp750
S'Pantothenic acid (Vitamin B5)'
p751
assS'C16048'
p752
(dp753
g3
(lp754
g45
asg6
(lp755
S'Incretin [KO:K05258 K05259]'
p756
asg9
(lp757
g49
asg12
(lp758
S'Glucagon-like peptide 1'
p759
assS'C16041'
p760
(dp761
g3
(lp762
g45
asg6
(lp763
g94
asg9
(lp764
g49
asg12
(lp765
S'Leu-enkephalin'
p766
assS'C08914'
p767
(dp768
g3
(lp769
g5
asg6
(lp770
g656
asg9
(lp771
g603
asg12
(lp772
S'Tigogenin'
p773
assS'G11334'
p774
(dp775
g3
(lp776
g83
asg6
(lp777
g85
asg9
(lp778
g87
asg12
(lp779
S'Chondroitin'
p780
assS'C08323'
p781
(dp782
g3
(lp783
g73
asg6
(lp784
g617
asg9
(lp785
g619
asg12
(lp786
S'Nervonic acid (24:1;15)'
p787
assS'C08320'
p788
(dp789
g3
(lp790
g73
asg6
(lp791
g633
asg9
(lp792
g619
asg12
(lp793
S'Lignoceric acid (24:0)'
p794
assS'C06690'
p795
(dp796
g3
(lp797
g63
asg6
(lp798
g546
asg9
(lp799
g67
asg12
(lp800
S'Candicidin D'
p801
assS'C15787'
p802
(dp803
g3
(lp804
g5
asg6
(lp805
S'Campestane derivatives [Fig]'
p806
asg9
(lp807
S'28-Carbon atoms'
p808
asg12
(lp809
S'Campestanol'
p810
assS'C14303'
p811
(dp812
g3
(lp813
g5
asg6
(lp814
g577
asg9
(lp815
g579
asg12
(lp816
S'Equilenin'
p817
assS'C06693'
p818
(dp819
g3
(lp820
g63
asg6
(lp821
S'Other polyketides'
p822
asg9
(lp823
g67
asg12
(lp824
S'Monensin'
p825
assS'C03406'
p826
(dp827
g3
(lp828
g142
asg6
(lp829
g144
asg9
(lp830
g146
asg12
(lp831
S'L-Argininosuccinate'
p832
assS'C06695'
p833
(dp834
g3
(lp835
g63
asg6
(lp836
S'Cyclic lactones'
p837
asg9
(lp838
g563
asg12
(lp839
S'2-Oxazolidinone'
p840
assS'C08250'
p841
(dp842
g3
(lp843
g83
asg6
(lp844
g335
asg9
(lp845
g337
asg12
(lp846
S'Sophorose'
p847
assS'C02465'
p848
(dp849
g3
(lp850
g142
ag45
asg6
(lp851
g144
aS'Thyroid hormones'
p852
asg9
(lp853
g146
ag259
asg12
(lp854
S'Triiodothyronine'
p855
aS'Triiodothyronine'
p856
assS'C00696'
p857
(dp858
g3
(lp859
g73
asg6
(lp860
S'Prostaglandins'
p861
asg9
(lp862
g77
asg12
(lp863
S'Prostaglandin D2'
p864
assS'C05302'
p865
(dp866
g3
(lp867
g5
asg6
(lp868
g577
asg9
(lp869
g579
asg12
(lp870
S'2-Methoxyestradiol-17beta'
p871
assS'C05301'
p872
(dp873
g3
(lp874
g5
asg6
(lp875
g577
asg9
(lp876
g579
asg12
(lp877
S'2-Hydroxyestradiol'
p878
assS'C00695'
p879
(dp880
g3
(lp881
g5
asg6
(lp882
S'Cholane derivatives [Fig]'
p883
asg9
(lp884
g191
asg12
(lp885
S'Cholic acid'
p886
assS'C15478'
p887
(dp888
g3
(lp889
g83
asg6
(lp890
g461
asg9
(lp891
g182
asg12
(lp892
S'D-Fucosamine'
p893
assS'C03963'
p894
(dp895
g3
(lp896
g5
asg6
(lp897
g656
asg9
(lp898
g603
asg12
(lp899
S'Sarsasapogenin'
p900
assS'C15479'
p901
(dp902
g3
(lp903
g83
asg6
(lp904
g461
asg9
(lp905
g182
asg12
(lp906
S'D-Quinovosamine'
p907
assS'C16969'
p908
(dp909
g3
(lp910
g5
asg6
(lp911
g189
asg9
(lp912
g191
asg12
(lp913
S'Hellebrigenin'
p914
assS'C00507'
p915
(dp916
g3
(lp917
g83
asg6
(lp918
g344
asg9
(lp919
g182
asg12
(lp920
S'L-Rhamnose'
p921
assS'C00504'
p922
(dp923
g3
(lp924
g132
asg6
(lp925
g163
asg9
(lp926
g136
asg12
(lp927
S'Folic acid (Vitamin B9)'
p928
assS'C00263'
p929
(dp930
g3
(lp931
g142
asg6
(lp932
g144
asg9
(lp933
g146
asg12
(lp934
S'L-Homoserine'
p935
assS'C16962'
p936
(dp937
g3
(lp938
g5
asg6
(lp939
g189
asg9
(lp940
g191
asg12
(lp941
S'Gamabufogenin'
p942
assS'C00508'
p943
(dp944
g3
(lp945
g83
asg6
(lp946
g206
asg9
(lp947
g182
asg12
(lp948
S'L-Ribulose'
p949
assS'C00916'
p950
(dp951
g3
(lp952
g63
asg6
(lp953
g713
asg9
(lp954
g247
asg12
(lp955
S'Cephalosporin C'
p956
assS'C01661'
p957
(dp958
g3
(lp959
g63
asg6
(lp960
g822
asg9
(lp961
g67
asg12
(lp962
S'Adriamycin'
p963
assS'C01508'
p964
(dp965
g3
(lp966
g83
asg6
(lp967
g421
asg9
(lp968
g182
asg12
(lp969
S'L-Lyxose'
p970
assS'C06764'
p971
(dp972
g3
(lp973
g63
asg6
(lp974
g822
asg9
(lp975
g67
asg12
(lp976
S'Tetranactin'
p977
assS'C06765'
p978
(dp979
g3
(lp980
g63
asg6
(lp981
S'Glycolipids'
p982
asg9
(lp983
g563
asg12
(lp984
S'Flavomycin'
p985
assS'C16021'
p986
(dp987
g3
(lp988
g45
asg6
(lp989
S'Somatostatin [KO:K05237]'
p990
asg9
(lp991
g49
asg12
(lp992
S'Somatostatin-28'
p993
assS'C00468'
p994
(dp995
g3
(lp996
g5
ag45
asg6
(lp997
g577
aS'Estrogens'
p998
asg9
(lp999
g579
ag155
asg12
(lp1000
S'Estrone'
p1001
aS'Estrone'
p1002
assS'C01157'
p1003
(dp1004
g3
(lp1005
g142
asg6
(lp1006
g144
asg9
(lp1007
g146
asg12
(lp1008
S'Hydroxyproline'
p1009
assS'C00460'
p1010
(dp1011
g3
(lp1012
g18
asg6
(lp1013
g352
asg9
(lp1014
g354
asg12
(lp1015
S'dUTP'
p1016
assS'C01684'
p1017
(dp1018
g3
(lp1019
g83
asg6
(lp1020
g344
asg9
(lp1021
g182
asg12
(lp1022
S'D-Rhamnose'
p1023
assS'C00286'
p1024
(dp1025
g3
(lp1026
g18
asg6
(lp1027
g352
asg9
(lp1028
g354
asg12
(lp1029
S'dGTP'
p1030
assS'C00280'
p1031
(dp1032
g3
(lp1033
g5
ag45
asg6
(lp1034
g8
ag153
asg9
(lp1035
g11
ag155
asg12
(lp1036
S'Androstenedione'
p1037
aS'Androstenedione'
p1038
assS'C00322'
p1039
(dp1040
g3
(lp1041
g35
asg6
(lp1042
S'2-Oxocarboxylic acids'
p1043
asg9
(lp1044
g39
asg12
(lp1045
S'2-Oxoadipate'
p1046
assS'G11603'
p1047
(dp1048
g3
(lp1049
g83
asg6
(lp1050
S'Homopolysaccharides'
p1051
asg9
(lp1052
g87
asg12
(lp1053
S'Glycogen'
p1054
assS'C00327'
p1055
(dp1056
g3
(lp1057
g142
asg6
(lp1058
g144
asg9
(lp1059
g146
asg12
(lp1060
S'L-Citrulline'
p1061
assS'C15849'
p1062
(dp1063
g3
(lp1064
g45
asg6
(lp1065
S'Angiotensin [KO:K09821]'
p1066
asg9
(lp1067
g49
asg12
(lp1068
S'Angiotensin IV'
p1069
assS'C15848'
p1070
(dp1071
g3
(lp1072
g45
asg6
(lp1073
g1066
asg9
(lp1074
g49
asg12
(lp1075
S'Angiotensin III'
p1076
assS'C19650'
p1077
(dp1078
g3
(lp1079
g5
asg6
(lp1080
S'Furostan derivatives [Fig]'
p1081
asg9
(lp1082
g603
asg12
(lp1083
S'Pseudosmilagenin'
p1084
assS'C19651'
p1085
(dp1086
g3
(lp1087
g5
asg6
(lp1088
S'Ergostane derivatives [Fig]'
p1089
asg9
(lp1090
g808
asg12
(lp1091
S'Ergostanol'
p1092
assS'C05777'
p1093
(dp1094
g3
(lp1095
g132
asg6
(lp1096
g397
asg9
(lp1097
g399
asg12
(lp1098
S'Coenzyme F430'
p1099
assS'C19653'
p1100
(dp1101
g3
(lp1102
g5
asg6
(lp1103
g1089
asg9
(lp1104
g808
asg12
(lp1105
S'Lumisterol'
p1106
assS'C19654'
p1107
(dp1108
g3
(lp1109
g5
asg6
(lp1110
S'Poriferastane derivatives [Fig]'
p1111
asg9
(lp1112
S'29-Carbon atoms'
p1113
asg12
(lp1114
S'gamma-Sitosterol'
p1115
assS'C19652'
p1116
(dp1117
g3
(lp1118
g5
asg6
(lp1119
g1089
asg9
(lp1120
g808
asg12
(lp1121
S'alpha-Ergostenol'
p1122
assS'C19656'
p1123
(dp1124
g3
(lp1125
g5
asg6
(lp1126
S'Gorgostane derivatives [Fig]'
p1127
asg9
(lp1128
S'30-Carbon atoms'
p1129
asg12
(lp1130
S'Sarcoaldesterol A'
p1131
assS'C19657'
p1132
(dp1133
g3
(lp1134
g5
asg6
(lp1135
g1127
asg9
(lp1136
g1129
asg12
(lp1137
S'Acanthasterol'
p1138
assS'C02262'
p1139
(dp1140
g3
(lp1141
g83
asg6
(lp1142
g461
asg9
(lp1143
g182
asg12
(lp1144
S'D-Galactosamine'
p1145
assS'C02265'
p1146
(dp1147
g3
(lp1148
g142
asg6
(lp1149
g144
asg9
(lp1150
g146
asg12
(lp1151
S'D-Phenylalanine'
p1152
assS'C19655'
p1153
(dp1154
g3
(lp1155
g5
asg6
(lp1156
g1127
asg9
(lp1157
g1129
asg12
(lp1158
S'Gorgosterol'
p1159
assS'C00219'
p1160
(dp1161
g3
(lp1162
g73
asg6
(lp1163
g617
asg9
(lp1164
g619
asg12
(lp1165
S'Arachidonic acid (20:4;5,8,11,14)'
p1166
assS'C00216'
p1167
(dp1168
g3
(lp1169
g83
asg6
(lp1170
g421
asg9
(lp1171
g182
asg12
(lp1172
S'D-Arabinose'
p1173
assS'C00217'
p1174
(dp1175
g3
(lp1176
g142
asg6
(lp1177
g144
asg9
(lp1178
g146
asg12
(lp1179
S'D-Glutamic acid'
p1180
assS'C00214'
p1181
(dp1182
g3
(lp1183
g18
asg6
(lp1184
S'Deoxyribonucleosides'
p1185
asg9
(lp1186
g288
asg12
(lp1187
S'Deoxythymidine (dT)'
p1188
assS'C00212'
p1189
(dp1190
g3
(lp1191
g18
asg6
(lp1192
g286
asg9
(lp1193
g288
asg12
(lp1194
S'Adenosine (A)'
p1195
assS'C00606'
p1196
(dp1197
g3
(lp1198
g142
asg6
(lp1199
g144
asg9
(lp1200
g146
asg12
(lp1201
S'3-Sulfino-L-alanine'
p1202
assS'C00036'
p1203
(dp1204
g3
(lp1205
g35
asg6
(lp1206
g1043
asg9
(lp1207
g39
asg12
(lp1208
S'Oxaloacetate; 2-Oxosuccinate'
p1209
assS'C00037'
p1210
(dp1211
g3
(lp1212
g142
ag45
asg6
(lp1213
g538
aS'Amino acids'
p1214
asg9
(lp1215
g146
ag260
asg12
(lp1216
S'Glycine (Gly)'
p1217
aS'Glycine'
p1218
assS'C00035'
p1219
(dp1220
g3
(lp1221
g18
asg6
(lp1222
g389
asg9
(lp1223
g354
asg12
(lp1224
S'GDP'
p1225
assS'C00032'
p1226
(dp1227
g3
(lp1228
g132
asg6
(lp1229
g397
asg9
(lp1230
g399
asg12
(lp1231
S'Heme B'
p1232
assS'C00033'
p1233
(dp1234
g3
(lp1235
g35
asg6
(lp1236
g429
asg9
(lp1237
g39
asg12
(lp1238
S'Acetate; Ethanoate'
p1239
assS'C00031'
p1240
(dp1241
g3
(lp1242
g83
asg6
(lp1243
g421
asg9
(lp1244
g182
asg12
(lp1245
S'D-Glucose'
p1246
assS'C00137'
p1247
(dp1248
g3
(lp1249
g83
asg6
(lp1250
g214
asg9
(lp1251
g182
asg12
(lp1252
S'myo-Inositol'
p1253
assS'C00135'
p1254
(dp1255
g3
(lp1256
g142
asg6
(lp1257
g538
asg9
(lp1258
g146
asg12
(lp1259
S'Histidine (His)'
p1260
assS'C00134'
p1261
(dp1262
g3
(lp1263
g142
asg6
(lp1264
g254
asg9
(lp1265
g258
asg12
(lp1266
S'Putrescine'
p1267
assS'C00133'
p1268
(dp1269
g3
(lp1270
g142
asg6
(lp1271
g144
asg9
(lp1272
g146
asg12
(lp1273
S'D-Alanine'
p1274
assS'C00131'
p1275
(dp1276
g3
(lp1277
g18
asg6
(lp1278
g352
asg9
(lp1279
g354
asg12
(lp1280
S'dATP'
p1281
assS'C07607'
p1282
(dp1283
g3
(lp1284
g45
asg6
(lp1285
g102
asg9
(lp1286
g49
asg12
(lp1287
S'Gonadotropin-releasing hormone I'
p1288
assS'C01598'
p1289
(dp1290
g3
(lp1291
g45
asg6
(lp1292
S'Melatonin'
p1293
asg9
(lp1294
g259
asg12
(lp1295
S'Melatonin'
p1296
assS'C06469'
p1297
(dp1298
g3
(lp1299
g83
asg6
(lp1300
g461
asg9
(lp1301
g182
asg12
(lp1302
S'Neuraminic acid'
p1303
assS'C06468'
p1304
(dp1305
g3
(lp1306
g83
asg6
(lp1307
g206
asg9
(lp1308
g182
asg12
(lp1309
S'D-Psicose'
p1310
assS'C08814'
p1311
(dp1312
g3
(lp1313
g5
asg6
(lp1314
g806
asg9
(lp1315
g808
asg12
(lp1316
S'Brassinolide'
p1317
assS'C08817'
p1318
(dp1319
g3
(lp1320
g5
asg6
(lp1321
S'Stigmastane derivatives [Fig]'
p1322
asg9
(lp1323
g1113
asg12
(lp1324
S'Fucosterol'
p1325
assS'C06463'
p1326
(dp1327
g3
(lp1328
g83
asg6
(lp1329
g421
asg9
(lp1330
g182
asg12
(lp1331
S'D-Threose'
p1332
assS'C06462'
p1333
(dp1334
g3
(lp1335
g73
asg6
(lp1336
g75
asg9
(lp1337
g77
asg12
(lp1338
S'Leukotriene F4'
p1339
assS'C06467'
p1340
(dp1341
g3
(lp1342
g83
asg6
(lp1343
g421
asg9
(lp1344
g182
asg12
(lp1345
S'D-Talose'
p1346
assS'C06466'
p1347
(dp1348
g3
(lp1349
g83
asg6
(lp1350
g421
asg9
(lp1351
g182
asg12
(lp1352
S'D-Idose'
p1353
assS'C06465'
p1354
(dp1355
g3
(lp1356
g83
asg6
(lp1357
g421
asg9
(lp1358
g182
asg12
(lp1359
S'D-Gulose'
p1360
assS'C06464'
p1361
(dp1362
g3
(lp1363
g83
asg6
(lp1364
g421
asg9
(lp1365
g182
asg12
(lp1366
S'D-Altrose'
p1367
assS'C00735'
p1368
(dp1369
g3
(lp1370
g5
ag45
asg6
(lp1371
g506
ag507
asg9
(lp1372
g509
ag155
asg12
(lp1373
S'Cortisol'
p1374
aS'Cortisol'
p1375
assS'C00042'
p1376
(dp1377
g3
(lp1378
g35
asg6
(lp1379
g304
asg9
(lp1380
g39
asg12
(lp1381
S'Succinate'
p1382
assS'C00041'
p1383
(dp1384
g3
(lp1385
g142
asg6
(lp1386
g538
asg9
(lp1387
g146
asg12
(lp1388
S'Alanine (Ala)'
p1389
assS'C05285'
p1390
(dp1391
g3
(lp1392
g5
asg6
(lp1393
g8
asg9
(lp1394
g11
asg12
(lp1395
S'Adrenosterone'
p1396
assS'C00047'
p1397
(dp1398
g3
(lp1399
g142
asg6
(lp1400
g538
asg9
(lp1401
g146
asg12
(lp1402
S'Lysine (Lys)'
p1403
assS'C01510'
p1404
(dp1405
g3
(lp1406
g83
asg6
(lp1407
g421
asg9
(lp1408
g182
asg12
(lp1409
S'L-Xylose'
p1410
assS'C00044'
p1411
(dp1412
g3
(lp1413
g18
asg6
(lp1414
g389
asg9
(lp1415
g354
asg12
(lp1416
S'GTP'
p1417
assS'C02314'
p1418
(dp1419
g3
(lp1420
g73
asg6
(lp1421
g861
asg9
(lp1422
g77
asg12
(lp1423
S'Prostaglandin F2beta'
p1424
assS'C00049'
p1425
(dp1426
g3
(lp1427
g142
ag45
asg6
(lp1428
g538
ag1214
asg9
(lp1429
g146
ag260
asg12
(lp1430
S'Aspartic acid (Asp)'
p1431
aS'Aspartate'
p1432
assS'C00048'
p1433
(dp1434
g3
(lp1435
g35
asg6
(lp1436
g1043
asg9
(lp1437
g39
asg12
(lp1438
S'Glyoxylate; Oxoacetate'
p1439
assS'C00739'
p1440
(dp1441
g3
(lp1442
g142
asg6
(lp1443
g144
asg9
(lp1444
g146
asg12
(lp1445
S'D-Lysine'
p1446
assS'C01518'
p1447
(dp1448
g3
(lp1449
g83
asg6
(lp1450
g335
asg9
(lp1451
g337
asg12
(lp1452
S'Nigerose'
p1453
assS'C04230'
p1454
(dp1455
g3
(lp1456
g73
asg6
(lp1457
S'Glycerophospholipids'
p1458
asg9
(lp1459
S'Phospholipids [Fig]'
p1460
asg12
(lp1461
S'2-Lysolecithin'
p1462
assS'C16012'
p1463
(dp1464
g3
(lp1465
g45
asg6
(lp1466
S'Endothelin [KO:K05227]'
p1467
asg9
(lp1468
g49
asg12
(lp1469
S'Endothelin-2'
p1470
assS'C16004'
p1471
(dp1472
g3
(lp1473
g45
asg6
(lp1474
S'Brain natriuretic peptide [KO:K12335]'
p1475
asg9
(lp1476
g49
asg12
(lp1477
S'Brain natriuretic peptide'
p1478
assS'C16005'
p1479
(dp1480
g3
(lp1481
g45
asg6
(lp1482
S'C-Type natriuretic peptide [KO:K12336]'
p1483
asg9
(lp1484
g49
asg12
(lp1485
S'C-Type natriuretic peptide'
p1486
assS'C16003'
p1487
(dp1488
g3
(lp1489
g45
asg6
(lp1490
S'Atrial natriuretic peptide [KO:K12334]'
p1491
asg9
(lp1492
g49
asg12
(lp1493
S'Atrial natriuretic peptide'
p1494
assS'C16010'
p1495
(dp1496
g3
(lp1497
g45
asg6
(lp1498
g1467
asg9
(lp1499
g49
asg12
(lp1500
S'Endothelin-1'
p1501
assS'C04741'
p1502
(dp1503
g3
(lp1504
g73
asg6
(lp1505
g861
asg9
(lp1506
g77
asg12
(lp1507
S'Prostaglandin E1'
p1508
assS'C06454'
p1509
(dp1510
g3
(lp1511
g63
asg6
(lp1512
S'Aliphatic compounds'
p1513
asg9
(lp1514
g563
asg12
(lp1515
S'Fosfomycin'
p1516
assS'C05122'
p1517
(dp1518
g3
(lp1519
g5
asg6
(lp1520
g883
asg9
(lp1521
g191
asg12
(lp1522
S'Taurocholate'
p1523
assS'C06418'
p1524
(dp1525
g3
(lp1526
g142
asg6
(lp1527
g144
asg9
(lp1528
g146
asg12
(lp1529
S'D-Isoleucine'
p1530
assS'C06419'
p1531
(dp1532
g3
(lp1533
g142
asg6
(lp1534
g144
asg9
(lp1535
g146
asg12
(lp1536
S'D-Histidine'
p1537
assS'C06417'
p1538
(dp1539
g3
(lp1540
g142
asg6
(lp1541
g144
asg9
(lp1542
g146
asg12
(lp1543
S'D-Valine'
p1544
assS'C03525'
p1545
(dp1546
g3
(lp1547
g83
asg6
(lp1548
g461
asg9
(lp1549
g182
asg12
(lp1550
S'O-Acetylneuraminic acid'
p1551
assS'G10483'
p1552
(dp1553
g3
(lp1554
g83
asg6
(lp1555
g1051
asg9
(lp1556
g87
asg12
(lp1557
S'Chitin'
p1558
assS'G10481'
p1559
(dp1560
g3
(lp1561
g83
asg6
(lp1562
g1051
asg9
(lp1563
g87
asg12
(lp1564
S'Cellulose'
p1565
assS'C00951'
p1566
(dp1567
g3
(lp1568
g5
ag45
asg6
(lp1569
g577
ag998
asg9
(lp1570
g579
ag155
asg12
(lp1571
S'Estradiol-17beta'
p1572
aS'Estradiol-17beta'
p1573
assS'C02140'
p1574
(dp1575
g3
(lp1576
g5
ag45
asg6
(lp1577
g506
aS'Mineralocorticoids'
p1578
asg9
(lp1579
g509
ag155
asg12
(lp1580
S'Corticosterone'
p1581
aS'Corticosterone'
p1582
assS'C05442'
p1583
(dp1584
g3
(lp1585
g5
asg6
(lp1586
g1322
asg9
(lp1587
g1113
asg12
(lp1588
S'Stigmasterol'
p1589
assS'C00959'
p1590
(dp1591
g3
(lp1592
g73
asg6
(lp1593
g861
asg9
(lp1594
g77
asg12
(lp1595
S'Prostaglandin B1'
p1596
assS'C00958'
p1597
(dp1598
g3
(lp1599
g73
asg6
(lp1600
g1458
asg9
(lp1601
g1460
asg12
(lp1602
S'Plasmenylcholine'
p1603
assS'C01780'
p1604
(dp1605
g3
(lp1606
g5
ag45
asg6
(lp1607
g506
ag1578
asg9
(lp1608
g509
ag155
asg12
(lp1609
S'Aldosterone'
p1610
aS'Aldosterone'
p1611
assS'C02426'
p1612
(dp1613
g3
(lp1614
g83
asg6
(lp1615
g421
asg9
(lp1616
g182
asg12
(lp1617
S'L-Glyceraldehyde'
p1618
assS'C16922'
p1619
(dp1620
g3
(lp1621
g5
asg6
(lp1622
g189
asg9
(lp1623
g191
asg12
(lp1624
S'Bufalin'
p1625
assS'C00819'
p1626
(dp1627
g3
(lp1628
g142
asg6
(lp1629
g144
asg9
(lp1630
g146
asg12
(lp1631
S'D-Glutamine'
p1632
assS'C01420'
p1633
(dp1634
g3
(lp1635
g142
asg6
(lp1636
g144
asg9
(lp1637
g146
asg12
(lp1638
S'Cystine'
p1639
assS'C00422'
p1640
(dp1641
g3
(lp1642
g73
asg6
(lp1643
g490
asg9
(lp1644
g492
asg12
(lp1645
S'Triacylglycerol'
p1646
assS'C00427'
p1647
(dp1648
g3
(lp1649
g73
asg6
(lp1650
g861
asg9
(lp1651
g77
asg12
(lp1652
S'Prostaglandin H2'
p1653
assS'C00918'
p1654
(dp1655
g3
(lp1656
g63
asg6
(lp1657
S'Aromatic compounds'
p1658
asg9
(lp1659
g563
asg12
(lp1660
S'Chloramphenicol'
p1661
assS'C01742'
p1662
(dp1663
g3
(lp1664
g83
asg6
(lp1665
g335
asg9
(lp1666
g337
asg12
(lp1667
S'Palatinose'
p1668
assS'G04981'
p1669
(dp1670
g3
(lp1671
g83
asg6
(lp1672
g1051
asg9
(lp1673
g87
asg12
(lp1674
S'Inulin'
p1675
assS'C17585'
p1676
(dp1677
g3
(lp1678
g63
asg6
(lp1679
g236
asg9
(lp1680
g238
asg12
(lp1681
S'Butirosin A'
p1682
assS'C19612'
p1683
(dp1684
g3
(lp1685
g83
asg6
(lp1686
g206
asg9
(lp1687
g182
asg12
(lp1688
S'Coriose'
p1689
assS'C02515'
p1690
(dp1691
g3
(lp1692
g142
asg6
(lp1693
g144
asg9
(lp1694
g146
asg12
(lp1695
S'3-Iodo-L-tyrosine'
p1696
assS'C03917'
p1697
(dp1698
g3
(lp1699
g5
ag45
asg6
(lp1700
g8
ag153
asg9
(lp1701
g11
ag155
asg12
(lp1702
S'Dihydrotestosterone'
p1703
aS'Dihydrotestosterone'
p1704
assS'C02507'
p1705
(dp1706
g3
(lp1707
g18
asg6
(lp1708
g20
asg9
(lp1709
g22
asg12
(lp1710
S"3',5'-Cyclic dGMP"
p1711
assS'C00252'
p1712
(dp1713
g3
(lp1714
g83
asg6
(lp1715
g335
asg9
(lp1716
g337
asg12
(lp1717
S'Isomaltose'
p1718
assS'C00253'
p1719
(dp1720
g3
(lp1721
g132
asg6
(lp1722
g163
asg9
(lp1723
g136
asg12
(lp1724
S'Nicotinic acid (Vitamin B3)'
p1725
assS'C00250'
p1726
(dp1727
g3
(lp1728
g132
asg6
(lp1729
g163
asg9
(lp1730
g136
asg12
(lp1731
S'Pyridoxal (Vitamin B6)'
p1732
assS'C11378'
p1733
(dp1734
g3
(lp1735
g132
asg6
(lp1736
g397
asg9
(lp1737
g399
asg12
(lp1738
S'Coenzyme Q10'
p1739
assS'C00257'
p1740
(dp1741
g3
(lp1742
g83
asg6
(lp1743
g180
asg9
(lp1744
g182
asg12
(lp1745
S'D-Gluconic acid'
p1746
assS'C01630'
p1747
(dp1748
g3
(lp1749
g83
asg6
(lp1750
g335
asg9
(lp1751
g337
asg12
(lp1752
S'Xylobiose'
p1753
assS'C00392'
p1754
(dp1755
g3
(lp1756
g83
asg6
(lp1757
g214
asg9
(lp1758
g182
asg12
(lp1759
S'Mannitol'
p1760
assS'C00259'
p1761
(dp1762
g3
(lp1763
g83
asg6
(lp1764
g421
asg9
(lp1765
g182
asg12
(lp1766
S'L-Arabinose'
p1767
assS'C05332'
p1768
(dp1769
g3
(lp1770
g142
asg6
(lp1771
g254
asg9
(lp1772
g258
asg12
(lp1773
S'Phenethylamine'
p1774
assS'C01083'
p1775
(dp1776
g3
(lp1777
g83
asg6
(lp1778
g335
asg9
(lp1779
g337
asg12
(lp1780
S'Trehalose'
p1781
assS'C00559'
p1782
(dp1783
g3
(lp1784
g18
asg6
(lp1785
g1185
asg9
(lp1786
g288
asg12
(lp1787
S'Deoxyadenosine (dA)'
p1788
assS'C00558'
p1789
(dp1790
g3
(lp1791
g83
asg6
(lp1792
g180
asg9
(lp1793
g182
asg12
(lp1794
S'D-Tagaturonic acid'
p1795
assS'C01089'
p1796
(dp1797
g3
(lp1798
g35
asg6
(lp1799
g37
asg9
(lp1800
g39
asg12
(lp1801
S'(R)-3-Hydroxybutanoate'
p1802
assS'C00550'
p1803
(dp1804
g3
(lp1805
g73
asg6
(lp1806
S'Phosphosphingolipids'
p1807
asg9
(lp1808
g1460
asg12
(lp1809
S'Sphingomyelin'
p1810
assS'C00881'
p1811
(dp1812
g3
(lp1813
g18
asg6
(lp1814
g1185
asg9
(lp1815
g288
asg12
(lp1816
S'Deoxycytidine (dC)'
p1817
assS'C00078'
p1818
(dp1819
g3
(lp1820
g142
asg6
(lp1821
g538
asg9
(lp1822
g146
asg12
(lp1823
S'Tryptophan (Trp)'
p1824
assS'C00079'
p1825
(dp1826
g3
(lp1827
g142
asg6
(lp1828
g538
asg9
(lp1829
g146
asg12
(lp1830
S'Phenylalanine (Phe)'
p1831
assS'C01953'
p1832
(dp1833
g3
(lp1834
g5
ag45
asg6
(lp1835
g506
aS'Progestagens'
p1836
asg9
(lp1837
g509
ag155
asg12
(lp1838
S'Pregnenolone'
p1839
aS'Pregnenolone'
p1840
assS'C00072'
p1841
(dp1842
g3
(lp1843
g132
asg6
(lp1844
g163
asg9
(lp1845
g136
asg12
(lp1846
S'Ascorbic acid (Vitamin C)'
p1847
assS'C00073'
p1848
(dp1849
g3
(lp1850
g142
asg6
(lp1851
g538
asg9
(lp1852
g146
asg12
(lp1853
S'Methionine (Met)'
p1854
assS'C00379'
p1855
(dp1856
g3
(lp1857
g83
asg6
(lp1858
g214
asg9
(lp1859
g182
asg12
(lp1860
S'Xylitol'
p1861
assS'C00077'
p1862
(dp1863
g3
(lp1864
g142
asg6
(lp1865
g144
asg9
(lp1866
g146
asg12
(lp1867
S'L-Ornithine'
p1868
assS'C00075'
p1869
(dp1870
g3
(lp1871
g18
asg6
(lp1872
g389
asg9
(lp1873
g354
asg12
(lp1874
S'UTP'
p1875
assS'C08859'
p1876
(dp1877
g3
(lp1878
g5
asg6
(lp1879
g452
asg9
(lp1880
g454
asg12
(lp1881
S'Cymarin'
p1882
assS'C02353'
p1883
(dp1884
g3
(lp1885
g18
asg6
(lp1886
g593
asg9
(lp1887
g22
asg12
(lp1888
S"2',3'-Cyclic AMP"
p1889
assS'C02355'
p1890
(dp1891
g3
(lp1892
g18
asg6
(lp1893
g593
asg9
(lp1894
g22
asg12
(lp1895
S"2',3'-Cyclic UMP"
p1896
assS'C00082'
p1897
(dp1898
g3
(lp1899
g142
asg6
(lp1900
g538
asg9
(lp1901
g146
asg12
(lp1902
S'Tyrosine (Tyr)'
p1903
assS'C03772'
p1904
(dp1905
g3
(lp1906
g5
asg6
(lp1907
g8
asg9
(lp1908
g11
asg12
(lp1909
S'5beta-Androstane-3,17-dione'
p1910
assS'C00089'
p1911
(dp1912
g3
(lp1913
g83
asg6
(lp1914
g335
asg9
(lp1915
g337
asg12
(lp1916
S'Sucrose; Cane sugar'
p1917
assS'C02022'
p1918
(dp1919
g3
(lp1920
g83
asg6
(lp1921
g206
asg9
(lp1922
g182
asg12
(lp1923
S'D-Erythrulose'
p1924
assS'C00671'
p1925
(dp1926
g3
(lp1927
g35
asg6
(lp1928
g1043
asg9
(lp1929
g39
asg12
(lp1930
S'(S)-3-Methyl-2-oxopentanoic acid'
p1931
assS'C01921'
p1932
(dp1933
g3
(lp1934
g5
asg6
(lp1935
g883
asg9
(lp1936
g191
asg12
(lp1937
S'Glycocholate'
p1938
assS'C02210'
p1939
(dp1940
g3
(lp1941
g45
asg6
(lp1942
S'beta-Endorphin [KO:K05228]'
p1943
asg9
(lp1944
g49
asg12
(lp1945
S'beta-Endorphin'
p1946
assS'C02198'
p1947
(dp1948
g3
(lp1949
g73
asg6
(lp1950
S'Thromboxanes'
p1951
asg9
(lp1952
g77
asg12
(lp1953
S'Thromboxane A2'
p1954
assS'C01885'
p1955
(dp1956
g3
(lp1957
g73
asg6
(lp1958
g490
asg9
(lp1959
g492
asg12
(lp1960
S'1-Monoacylglycerol'
p1961
assS'C00106'
p1962
(dp1963
g3
(lp1964
g18
asg6
(lp1965
g295
asg9
(lp1966
g297
asg12
(lp1967
S'Uracil (Ura)'
p1968
assS'C00105'
p1969
(dp1970
g3
(lp1971
g18
asg6
(lp1972
g389
asg9
(lp1973
g354
asg12
(lp1974
S'UMP'
p1975
assS'C00101'
p1976
(dp1977
g3
(lp1978
g132
asg6
(lp1979
g397
asg9
(lp1980
g399
asg12
(lp1981
S'THF'
p1982
assS'C00902'
p1983
(dp1984
g3
(lp1985
g35
asg6
(lp1986
g1043
asg9
(lp1987
g39
asg12
(lp1988
S'2-Oxohexanoate'
p1989
assS'C01802'
p1990
(dp1991
g3
(lp1992
g5
asg6
(lp1993
g601
asg9
(lp1994
g603
asg12
(lp1995
S'Desmosterol'
p1996
assS'C00109'
p1997
(dp1998
g3
(lp1999
g35
asg6
(lp2000
g1043
asg9
(lp2001
g39
asg12
(lp2002
S'2-Oxobutanoate'
p2003
assS'C16130'
p2004
(dp2005
g3
(lp2006
g45
asg6
(lp2007
S'Amylin [KO:K08039]'
p2008
asg9
(lp2009
g49
asg12
(lp2010
S'Amylin'
p2011
assS'C16131'
p2012
(dp2013
g3
(lp2014
g45
asg6
(lp2015
S'Insulin-like growth factor 1 [KO:K05459]'
p2016
asg9
(lp2017
g49
asg12
(lp2018
S'Insulin-like growth factor I'
p2019
assS'C02076'
p2020
(dp2021
g3
(lp2022
g83
asg6
(lp2023
g206
asg9
(lp2024
g182
asg12
(lp2025
S'Sedoheptulose'
p2026
assS'C16133'
p2027
(dp2028
g3
(lp2029
g45
asg6
(lp2030
S'Cholecystokinin [KO:K05226]'
p2031
asg9
(lp2032
g49
asg12
(lp2033
S'Cholecystokinin-33'
p2034
assS'C16135'
p2035
(dp2036
g3
(lp2037
g45
asg6
(lp2038
g198
asg9
(lp2039
g49
asg12
(lp2040
S'Dynorphin B'
p2041
assS'C16136'
p2042
(dp2043
g3
(lp2044
g45
asg6
(lp2045
S'Melanotropin [KO:K05228]'
p2046
asg9
(lp2047
g49
asg12
(lp2048
S'beta-Melanotropin'
p2049
assS'C16137'
p2050
(dp2051
g3
(lp2052
g45
asg6
(lp2053
g2046
asg9
(lp2054
g49
asg12
(lp2055
S'gamma-Melanotropin'
p2056
assS'C16138'
p2057
(dp2058
g3
(lp2059
g142
asg6
(lp2060
g144
asg9
(lp2061
g146
asg12
(lp2062
S'Pyrrolysine (Pyl)'
p2063
assS'C00361'
p2064
(dp2065
g3
(lp2066
g18
asg6
(lp2067
g352
asg9
(lp2068
g354
asg12
(lp2069
S'dGDP'
p2070
assS'C02078'
p2071
(dp2072
g3
(lp2073
g63
asg6
(lp2074
S'Actinamines'
p2075
asg9
(lp2076
g238
asg12
(lp2077
S'Spectinomycin'
p2078
assS'C00178'
p2079
(dp2080
g3
(lp2081
g18
asg6
(lp2082
g295
asg9
(lp2083
g297
asg12
(lp2084
S'Thymine (Thy)'
p2085
assS'C02679'
p2086
(dp2087
g3
(lp2088
g73
asg6
(lp2089
g633
asg9
(lp2090
g619
asg12
(lp2091
S'Lauric acid (12:0)'
p2092
assS'C06574'
p2093
(dp2094
g3
(lp2095
g63
asg6
(lp2096
g245
asg9
(lp2097
g247
asg12
(lp2098
S'Ampicillin'
p2099
assS'C06571'
p2100
(dp2101
g3
(lp2102
g63
asg6
(lp2103
S'Tetracyclines'
p2104
asg9
(lp2105
g67
asg12
(lp2106
S'Chlortetracycline'
p2107
assS'C06570'
p2108
(dp2109
g3
(lp2110
g63
asg6
(lp2111
g2104
asg9
(lp2112
g67
asg12
(lp2113
S'Tetracycline'
p2114
assS'C00003'
p2115
(dp2116
g3
(lp2117
g132
asg6
(lp2118
g397
asg9
(lp2119
g399
asg12
(lp2120
S'NAD'
p2121
assS'C16526'
p2122
(dp2123
g3
(lp2124
g73
asg6
(lp2125
g617
asg9
(lp2126
g619
asg12
(lp2127
S'Icosenoic acid (20:1;11)'
p2128
assS'C16525'
p2129
(dp2130
g3
(lp2131
g73
asg6
(lp2132
g617
asg9
(lp2133
g619
asg12
(lp2134
S'Icosadienoic acid (20:2;11,14)'
p2135
assS'C04555'
p2136
(dp2137
g3
(lp2138
g45
asg6
(lp2139
g153
asg9
(lp2140
g155
asg12
(lp2141
S'Dehydroepiandrosterone sulfate'
p2142
assS'C16051'
p2143
(dp2144
g3
(lp2145
g45
asg6
(lp2146
S'Parathyroid hormone [KO:K05261]'
p2147
asg9
(lp2148
g49
asg12
(lp2149
S'Parathyroid hormone'
p2150
assS'C00855'
p2151
(dp2152
g3
(lp2153
g142
asg6
(lp2154
g144
asg9
(lp2155
g146
asg12
(lp2156
S'D-Methionine'
p2157
assS'C06687'
p2158
(dp2159
g3
(lp2160
g63
asg6
(lp2161
S'Fluoroquinolones'
p2162
asg9
(lp2163
S'Quinolones [Fig]'
p2164
asg12
(lp2165
S'Norfloxacin'
p2166
assS'C06686'
p2167
(dp2168
g3
(lp2169
g63
asg6
(lp2170
g822
asg9
(lp2171
g67
asg12
(lp2172
S'Griseofulvin'
p2173
assS'C06685'
p2174
(dp2175
g3
(lp2176
g63
asg6
(lp2177
S'Cycloalkane derivatives'
p2178
asg9
(lp2179
g563
asg12
(lp2180
S'Cycloheximide'
p2181
assS'C06684'
p2182
(dp2183
g3
(lp2184
g63
asg6
(lp2185
g65
asg9
(lp2186
g67
asg12
(lp2187
S'Valinomycin'
p2188
assS'C06683'
p2189
(dp2190
g3
(lp2191
g63
asg6
(lp2192
g713
asg9
(lp2193
g247
asg12
(lp2194
S'Ceftriaxone'
p2195
assS'C06682'
p2196
(dp2197
g3
(lp2198
g63
asg6
(lp2199
S'Amino acid derivatives'
p2200
asg9
(lp2201
g563
asg12
(lp2202
S'Cycloserine'
p2203
assS'C06681'
p2204
(dp2205
g3
(lp2206
g63
asg6
(lp2207
S'Quinones'
p2208
asg9
(lp2209
g563
asg12
(lp2210
S'Mitomycin'
p2211
assS'C01176'
p2212
(dp2213
g3
(lp2214
g45
asg6
(lp2215
g1836
asg9
(lp2216
g155
asg12
(lp2217
S'17alpha-Hydroxyprogesterone'
p2218
assS'C06688'
p2219
(dp2220
g3
(lp2221
g63
asg6
(lp2222
S'Ansamycins'
p2223
asg9
(lp2224
g67
asg12
(lp2225
S'Rifampicin'
p2226
assS'C16065'
p2227
(dp2228
g3
(lp2229
g45
asg6
(lp2230
S'Thymosin alpha [KO:K13784]'
p2231
asg9
(lp2232
g49
asg12
(lp2233
S'Thymosin alpha-1'
p2234
assS'C00968'
p2235
(dp2236
g3
(lp2237
g18
asg6
(lp2238
g20
asg9
(lp2239
g22
asg12
(lp2240
S"3',5'-Cyclic dAMP"
p2241
assS'C01879'
p2242
(dp2243
g3
(lp2244
g142
asg6
(lp2245
g144
asg9
(lp2246
g146
asg12
(lp2247
S'Pidolic acid'
p2248
assS'C08240'
p2249
(dp2250
g3
(lp2251
g83
asg6
(lp2252
g335
asg9
(lp2253
g337
asg12
(lp2254
S'Gentiobiose'
p2255
assS'C03958'
p2256
(dp2257
g3
(lp2258
g45
asg6
(lp2259
S'Thyrotropin-releasing hormone [KO:K05253]'
p2260
asg9
(lp2261
g49
asg12
(lp2262
S'Thyrotropin-releasing hormone'
p2263
assS'C08247'
p2264
(dp2265
g3
(lp2266
g83
asg6
(lp2267
g335
asg9
(lp2268
g337
asg12
(lp2269
S'Rutinose'
p2270
assS'C03145'
p2271
(dp2272
g3
(lp2273
g142
asg6
(lp2274
g144
asg9
(lp2275
g146
asg12
(lp2276
S'N-Formylmethionine'
p2277
assS'G11599'
p2278
(dp2279
g3
(lp2280
g83
asg6
(lp2281
g85
asg9
(lp2282
g87
asg12
(lp2283
S'Galactoglucomannan'
p2284
assS'G11598'
p2285
(dp2286
g3
(lp2287
g83
asg6
(lp2288
g85
asg9
(lp2289
g87
asg12
(lp2290
S'Glucomannan'
p2291
assS'C05079'
p2292
(dp2293
g3
(lp2294
g63
asg6
(lp2295
S'4-Quinolones'
p2296
asg9
(lp2297
g2164
asg12
(lp2298
S'Nalidixic acid'
p2299
assS'C01673'
p2300
(dp2301
g3
(lp2302
g45
asg6
(lp2303
S'Others'
p2304
asg9
(lp2305
g155
asg12
(lp2306
S'Calcitriol (Vitamin D)'
p2307
assS'C04295'
p2308
(dp2309
g3
(lp2310
g5
asg6
(lp2311
g8
asg9
(lp2312
g11
asg12
(lp2313
S'Androstenediol'
p2314
assS'C00458'
p2315
(dp2316
g3
(lp2317
g18
asg6
(lp2318
g352
asg9
(lp2319
g354
asg12
(lp2320
S'dCTP'
p2321
assS'C00459'
p2322
(dp2323
g3
(lp2324
g18
asg6
(lp2325
g352
asg9
(lp2326
g354
asg12
(lp2327
S'dTTP'
p2328
assS'C06770'
p2329
(dp2330
g3
(lp2331
g63
asg6
(lp2332
g65
asg9
(lp2333
g67
asg12
(lp2334
S'Actinomycin D'
p2335
assS'C04483'
p2336
(dp2337
g3
(lp2338
g5
asg6
(lp2339
g883
asg9
(lp2340
g191
asg12
(lp2341
S'Deoxycholic acid'
p2342
assS'C01694'
p2343
(dp2344
g3
(lp2345
g5
asg6
(lp2346
g1089
asg9
(lp2347
g808
asg12
(lp2348
S'Ergosterol'
p2349
assS'C01918'
p2350
(dp2351
g3
(lp2352
g63
asg6
(lp2353
g236
asg9
(lp2354
g238
asg12
(lp2355
S'Gentamicin C'
p2356
assS'C19644'
p2357
(dp2358
g3
(lp2359
g5
asg6
(lp2360
g1322
asg9
(lp2361
g1113
asg12
(lp2362
S'Stigmastanol'
p2363
assS'C19643'
p2364
(dp2365
g3
(lp2366
g5
asg6
(lp2367
g189
asg9
(lp2368
g191
asg12
(lp2369
S'Scillarenin'
p2370
assS'C01912'
p2371
(dp2372
g3
(lp2373
g63
asg6
(lp2374
g546
asg9
(lp2375
g67
asg12
(lp2376
S'Erythromycin'
p2377
assS'C00330'
p2378
(dp2379
g3
(lp2380
g18
asg6
(lp2381
g1185
asg9
(lp2382
g288
asg12
(lp2383
S'Deoxyguanosine (dG)'
p2384
assS'C00333'
p2385
(dp2386
g3
(lp2387
g83
asg6
(lp2388
g180
asg9
(lp2389
g182
asg12
(lp2390
S'D-Galacturonic acid'
p2391
assS'C00334'
p2392
(dp2393
g3
(lp2394
g142
ag142
ag45
asg6
(lp2395
g144
ag254
ag1214
asg9
(lp2396
g146
ag258
ag260
asg12
(lp2397
S'gamma-Aminobutyric acid'
p2398
aS'gamma-Aminobutyric acid (GABA)'
p2399
aS'GABA'
p2400
assS'C19649'
p2401
(dp2402
g3
(lp2403
g5
asg6
(lp2404
g1081
asg9
(lp2405
g603
asg12
(lp2406
S'Pseudosarsasapogenin'
p2407
assS'C19648'
p2408
(dp2409
g3
(lp2410
g5
asg6
(lp2411
g1081
asg9
(lp2412
g603
asg12
(lp2413
S'Pseudotigogenin'
p2414
assS'C08898'
p2415
(dp2416
g3
(lp2417
g5
asg6
(lp2418
g656
asg9
(lp2419
g603
asg12
(lp2420
S'Diosgenin'
p2421
assS'C08899'
p2422
(dp2423
g3
(lp2424
g5
asg6
(lp2425
g656
asg9
(lp2426
g603
asg12
(lp2427
S'Gitogenin'
p2428
assS'C04685'
p2429
(dp2430
g3
(lp2431
g73
asg6
(lp2432
g861
asg9
(lp2433
g77
asg12
(lp2434
S'Prostaglandin A1'
p2435
assS'C04686'
p2436
(dp2437
g3
(lp2438
g73
asg6
(lp2439
g861
asg9
(lp2440
g77
asg12
(lp2441
S'Prostaglandin C1'
p2442
assS'C08896'
p2443
(dp2444
g3
(lp2445
g5
asg6
(lp2446
g656
asg9
(lp2447
g603
asg12
(lp2448
S'Digitogenin'
p2449
assS'C02528'
p2450
(dp2451
g3
(lp2452
g5
asg6
(lp2453
g883
asg9
(lp2454
g191
asg12
(lp2455
S'Chenodeoxycholate'
p2456
assS'C01595'
p2457
(dp2458
g3
(lp2459
g73
asg6
(lp2460
g617
asg9
(lp2461
g619
asg12
(lp2462
S'Linoleic acid (18:2;9,12)'
p2463
assS'C02522'
p2464
(dp2465
g3
(lp2466
g83
asg6
(lp2467
g344
asg9
(lp2468
g182
asg12
(lp2469
S'D-Quinovose'
p2470
assS'C00639'
p2471
(dp2472
g3
(lp2473
g73
asg6
(lp2474
g861
asg9
(lp2475
g77
asg12
(lp2476
S'Prostaglandin F2alpha'
p2477
assS'C12247'
p2478
(dp2479
g3
(lp2480
g63
asg6
(lp2481
g2223
asg9
(lp2482
g67
asg12
(lp2483
S'Rifamycin W'
p2484
assS'C00209'
p2485
(dp2486
g3
(lp2487
g35
asg6
(lp2488
g304
asg9
(lp2489
g39
asg12
(lp2490
S'Oxalate'
p2491
assS'C00208'
p2492
(dp2493
g3
(lp2494
g83
asg6
(lp2495
g335
asg9
(lp2496
g337
asg12
(lp2497
S'Maltose; Malt sugar'
p2498
assS'C00206'
p2499
(dp2500
g3
(lp2501
g18
asg6
(lp2502
g352
asg9
(lp2503
g354
asg12
(lp2504
S'dADP'
p2505
assS'C01217'
p2506
(dp2507
g3
(lp2508
g132
asg6
(lp2509
g397
asg9
(lp2510
g399
asg12
(lp2511
S'5,6,7,8-Tetrahydromethanopterin'
p2512
assS'C11222'
p2513
(dp2514
g3
(lp2515
g63
asg6
(lp2516
g2223
asg9
(lp2517
g67
asg12
(lp2518
S'Geldanamycin'
p2519
assS'C00025'
p2520
(dp2521
g3
(lp2522
g142
ag45
asg6
(lp2523
g538
ag1214
asg9
(lp2524
g146
ag260
asg12
(lp2525
S'Glutamic acid (Glu)'
p2526
aS'Glutamate'
p2527
assS'C00148'
p2528
(dp2529
g3
(lp2530
g142
asg6
(lp2531
g538
asg9
(lp2532
g146
asg12
(lp2533
S'Proline (Pro)'
p2534
assS'C00026'
p2535
(dp2536
g3
(lp2537
g35
asg6
(lp2538
g1043
asg9
(lp2539
g39
asg12
(lp2540
S'2-Oxoglutarate'
p2541
assS'C00020'
p2542
(dp2543
g3
(lp2544
g18
asg6
(lp2545
g389
asg9
(lp2546
g354
asg12
(lp2547
S'AMP'
p2548
assS'C00022'
p2549
(dp2550
g3
(lp2551
g35
asg6
(lp2552
g1043
asg9
(lp2553
g39
asg12
(lp2554
S'Pyruvate; 2-Oxopropanoate'
p2555
assS'C00140'
p2556
(dp2557
g3
(lp2558
g83
asg6
(lp2559
g461
asg9
(lp2560
g182
asg12
(lp2561
S'N-Acetyl-D-glucosamine'
p2562
assS'C00141'
p2563
(dp2564
g3
(lp2565
g35
asg6
(lp2566
g1043
asg9
(lp2567
g39
asg12
(lp2568
S'2-Oxoisovalerate'
p2569
assS'C00029'
p2570
(dp2571
g3
(lp2572
g132
asg6
(lp2573
g397
asg9
(lp2574
g399
asg12
(lp2575
S'UDP-glucose'
p2576
assS'C00147'
p2577
(dp2578
g3
(lp2579
g18
asg6
(lp2580
S'Purines'
p2581
asg9
(lp2582
g297
asg12
(lp2583
S'Adenine (Ade)'
p2584
assS'C00144'
p2585
(dp2586
g3
(lp2587
g18
asg6
(lp2588
g389
asg9
(lp2589
g354
asg12
(lp2590
S'GMP'
p2591
assS'C01829'
p2592
(dp2593
g3
(lp2594
g142
ag45
ag45
asg6
(lp2595
g144
ag852
ag1214
asg9
(lp2596
g146
ag259
ag260
asg12
(lp2597
S'L-Thyroxine'
p2598
aS'Thyroxine'
p2599
aS'Thyroxine'
p2600
assS'C00413'
p2601
(dp2602
g3
(lp2603
g63
asg6
(lp2604
S'Streptidines'
p2605
asg9
(lp2606
g238
asg12
(lp2607
S'Streptomycin'
p2608
assS'C02737'
p2609
(dp2610
g3
(lp2611
g73
asg6
(lp2612
g1458
asg9
(lp2613
g1460
asg12
(lp2614
S'Phosphatidylserine'
p2615
assS'C00099'
p2616
(dp2617
g3
(lp2618
g142
ag142
asg6
(lp2619
g144
ag254
asg9
(lp2620
g146
ag258
asg12
(lp2621
S'beta-Alanine'
p2622
aS'beta-Alanine'
p2623
assS'C05488'
p2624
(dp2625
g3
(lp2626
g45
asg6
(lp2627
g507
asg9
(lp2628
g155
asg12
(lp2629
S'11-Deoxycortisol'
p2630
assS'C03070'
p2631
(dp2632
g3
(lp2633
g5
asg6
(lp2634
g883
asg9
(lp2635
g191
asg12
(lp2636
S'3-Oxo-5beta-cholanate'
p2637
assS'C08880'
p2638
(dp2639
g3
(lp2640
g5
asg6
(lp2641
g189
asg9
(lp2642
g191
asg12
(lp2643
S'Scilliroside'
p2644
assS'C05294'
p2645
(dp2646
g3
(lp2647
g45
asg6
(lp2648
g153
asg9
(lp2649
g155
asg12
(lp2650
S'19-Hydroxytestosterone'
p2651
assS'C01501'
p2652
(dp2653
g3
(lp2654
g45
asg6
(lp2655
S'Glucagon [KO:K05259]'
p2656
asg9
(lp2657
g49
asg12
(lp2658
S'Glucagon'
p2659
assS'C00705'
p2660
(dp2661
g3
(lp2662
g18
asg6
(lp2663
g352
asg9
(lp2664
g354
asg12
(lp2665
S'dCDP'
p2666
assS'C06255'
p2667
(dp2668
g3
(lp2669
g35
asg6
(lp2670
g1043
asg9
(lp2671
g39
asg12
(lp2672
S'2-Oxovalerate'
p2673
assS'C01825'
p2674
(dp2675
g3
(lp2676
g83
asg6
(lp2677
g421
asg9
(lp2678
g182
asg12
(lp2679
S'L-Galactose'
p2680
assS'C17072'
p2681
(dp2682
g3
(lp2683
g5
asg6
(lp2684
g189
asg9
(lp2685
g191
asg12
(lp2686
S'Telocinobufagin'
p2687
assS'C03194'
p2688
(dp2689
g3
(lp2690
g142
asg6
(lp2691
g254
asg9
(lp2692
g258
asg12
(lp2693
S'Aminopropanol'
p2694
assS'C04756'
p2695
(dp2696
g3
(lp2697
g73
asg6
(lp2698
g1458
asg9
(lp2699
g1460
asg12
(lp2700
S'Plasmenylethanolamine'
p2701
assS'C16013'
p2702
(dp2703
g3
(lp2704
g45
asg6
(lp2705
g1467
asg9
(lp2706
g49
asg12
(lp2707
S'Endothelin-3'
p2708
assS'C05956'
p2709
(dp2710
g3
(lp2711
g73
asg6
(lp2712
g861
asg9
(lp2713
g77
asg12
(lp2714
S'Prostaglandin G2'
p2715
assS'C01137'
p2716
(dp2717
g3
(lp2718
g142
asg6
(lp2719
g254
asg9
(lp2720
g258
asg12
(lp2721
S'S-Adenosylmethioninamine'
p2722
assS'C01132'
p2723
(dp2724
g3
(lp2725
g83
asg6
(lp2726
g461
asg9
(lp2727
g182
asg12
(lp2728
S'N-Acetyl-D-galactosamine'
p2729
assS'C01571'
p2730
(dp2731
g3
(lp2732
g73
asg6
(lp2733
g633
asg9
(lp2734
g619
asg12
(lp2735
S'Capric acid (10:0)'
p2736
assS'C06037'
p2737
(dp2738
g3
(lp2739
g73
asg6
(lp2740
S'Glyceroglycolipids'
p2741
asg9
(lp2742
g173
asg12
(lp2743
S'Digalactosyldiacylglycerol'
p2744
assS'C15517'
p2745
(dp2746
g3
(lp2747
g5
asg6
(lp2748
g883
asg9
(lp2749
g191
asg12
(lp2750
S'Hyodeoxycholate'
p2751
assS'C15515'
p2752
(dp2753
g3
(lp2754
g5
asg6
(lp2755
g883
asg9
(lp2756
g191
asg12
(lp2757
S'Murideoxycholate'
p2758
assS'G10495'
p2759
(dp2760
g3
(lp2761
g83
asg6
(lp2762
g1051
asg9
(lp2763
g87
asg12
(lp2764
S'Amylose'
p2765
assS'C02024'
p2766
(dp2767
g3
(lp2768
g83
asg6
(lp2769
g180
asg9
(lp2770
g182
asg12
(lp2771
S'D-Mannuronic acid'
p2772
assS'C03692'
p2773
(dp2774
g3
(lp2775
g73
asg6
(lp2776
g2741
asg9
(lp2777
g173
asg12
(lp2778
S'Monogalactosyldiacylglycerol'
p2779
assS'C18187'
p2780
(dp2781
g3
(lp2782
g45
asg6
(lp2783
S'Gastrin [KO:K13768]'
p2784
asg9
(lp2785
g49
asg12
(lp2786
S'Gastrin-34'
p2787
assS'C18186'
p2788
(dp2789
g3
(lp2790
g45
asg6
(lp2791
g2784
asg9
(lp2792
g49
asg12
(lp2793
S'Gastrin-14'
p2794
assS'C07880'
p2795
(dp2796
g3
(lp2797
g5
asg6
(lp2798
g883
asg9
(lp2799
g191
asg12
(lp2800
S'Ursodiol'
p2801
assS'C18184'
p2802
(dp2803
g3
(lp2804
g45
asg6
(lp2805
S'Follicle stimulating hormone [KO:K05250 K08522]'
p2806
asg9
(lp2807
g49
asg12
(lp2808
S'Follicle stimulating hormone'
p2809
assS'C18183'
p2810
(dp2811
g3
(lp2812
g45
asg6
(lp2813
S'Luteinizing hormone [KO:K08521 K08522]'
p2814
asg9
(lp2815
g49
asg12
(lp2816
S'Luteinizing hormone'
p2817
assS'C18182'
p2818
(dp2819
g3
(lp2820
g45
asg6
(lp2821
S'Thyroid stimulating hormone [KO:K05251 K08522]'
p2822
asg9
(lp2823
g49
asg12
(lp2824
S'Thyroid stimulating hormone'
p2825
assS'C18181'
p2826
(dp2827
g3
(lp2828
g45
asg6
(lp2829
S'Growth hormone [KO:K05438]'
p2830
asg9
(lp2831
g49
asg12
(lp2832
S'Growth hormone'
p2833
assS'C03990'
p2834
(dp2835
g3
(lp2836
g5
asg6
(lp2837
g883
asg9
(lp2838
g191
asg12
(lp2839
S'Lithocholic acid'
p2840
assS'C18189'
p2841
(dp2842
g3
(lp2843
g45
asg6
(lp2844
S'Adiponectin [KO:K07296]'
p2845
asg9
(lp2846
g49
asg12
(lp2847
S'Adiponectin'
p2848
assS'C18188'
p2849
(dp2850
g3
(lp2851
g45
asg6
(lp2852
S'Leptin [KO:K05424]'
p2853
asg9
(lp2854
g49
asg12
(lp2855
S'Leptin'
p2856
assS'C00803'
p2857
(dp2858
g3
(lp2859
g35
asg6
(lp2860
g429
asg9
(lp2861
g39
asg12
(lp2862
S'Valerate; Pentanoate'
p2863
assS'C06689'
p2864
(dp2865
g3
(lp2866
g63
asg6
(lp2867
g65
asg9
(lp2868
g67
asg12
(lp2869
S'Vancomycin'
p2870
assS'C04911'
p2871
(dp2872
g3
(lp2873
g73
asg6
(lp2874
g171
asg9
(lp2875
g173
asg12
(lp2876
S'GM1'
p2877
assS'C16066'
p2878
(dp2879
g3
(lp2880
g45
asg6
(lp2881
S'Thymosin beta-4 [KO:K05764]'
p2882
asg9
(lp2883
g49
asg12
(lp2884
S'Thymosin beta-4'
p2885
assS'C16067'
p2886
(dp2887
g3
(lp2888
g45
asg6
(lp2889
S'Thymosin beta-10 [KO:K13785]'
p2890
asg9
(lp2891
g49
asg12
(lp2892
S'Thymosin beta-10'
p2893
assS'C00416'
p2894
(dp2895
g3
(lp2896
g73
asg6
(lp2897
g1458
asg9
(lp2898
g1460
asg12
(lp2899
S'Phosphatidic acid'
p2900
assS'C00417'
p2901
(dp2902
g3
(lp2903
g35
asg6
(lp2904
g444
asg9
(lp2905
g39
asg12
(lp2906
S'cis-Aconitate'
p2907
assS'C00410'
p2908
(dp2909
g3
(lp2910
g5
ag45
asg6
(lp2911
g506
ag1836
asg9
(lp2912
g509
ag155
asg12
(lp2913
S'Progesterone'
p2914
aS'Progesterone'
p2915
assS'C06865'
p2916
(dp2917
g3
(lp2918
g45
asg6
(lp2919
S'Calcitonin [KO:K12332]'
p2920
asg9
(lp2921
g49
asg12
(lp2922
S'Calcitonin'
p2923
assS'C06104'
p2924
(dp2925
g3
(lp2926
g35
asg6
(lp2927
g304
asg9
(lp2928
g39
asg12
(lp2929
S'Adipate'
p2930
assS'C05470'
p2931
(dp2932
g3
(lp2933
g45
asg6
(lp2934
g507
asg9
(lp2935
g155
asg12
(lp2936
S'Tetrahydrocortisone'
p2937
assS'C01796'
p2938
(dp2939
g3
(lp2940
g83
asg6
(lp2941
g421
asg9
(lp2942
g182
asg12
(lp2943
S'D-Erythrose'
p2944
assS'C03410'
p2945
(dp2946
g3
(lp2947
g83
asg6
(lp2948
g461
asg9
(lp2949
g182
asg12
(lp2950
S'N-Glycoloyl-neuraminate'
p2951
assS'C02686'
p2952
(dp2953
g3
(lp2954
g73
asg6
(lp2955
g171
asg9
(lp2956
g173
asg12
(lp2957
S'Galactosylceramide'
p2958
assS'C16589'
p2959
(dp2960
g3
(lp2961
g35
asg6
(lp2962
g1043
asg9
(lp2963
g39
asg12
(lp2964
S'2-Oxosuberate'
p2965
assS'C16588'
p2966
(dp2967
g3
(lp2968
g35
asg6
(lp2969
g1043
asg9
(lp2970
g39
asg12
(lp2971
S'2-Oxopimelate'
p2972
assS'C00243'
p2973
(dp2974
g3
(lp2975
g83
asg6
(lp2976
g335
asg9
(lp2977
g337
asg12
(lp2978
S'Lactose; Milk sugar'
p2979
assS'C00242'
p2980
(dp2981
g3
(lp2982
g18
asg6
(lp2983
g2581
asg9
(lp2984
g297
asg12
(lp2985
S'Guanine (Gua)'
p2986
assS'C05080'
p2987
(dp2988
g3
(lp2989
g63
asg6
(lp2990
g1658
asg9
(lp2991
g563
asg12
(lp2992
S'Novobiocin'
p2993
assS'C00247'
p2994
(dp2995
g3
(lp2996
g83
asg6
(lp2997
g206
asg9
(lp2998
g182
asg12
(lp2999
S'L-Sorbose'
p3000
assS'C00246'
p3001
(dp3002
g3
(lp3003
g35
ag73
asg6
(lp3004
g429
ag633
asg9
(lp3005
g39
ag619
asg12
(lp3006
S'Butyrate; Butanoate'
p3007
aS'Butyric acid (4:0)'
p3008
assS'C00249'
p3009
(dp3010
g3
(lp3011
g73
asg6
(lp3012
g633
asg9
(lp3013
g619
asg12
(lp3014
S'Palmitic acid (16:0)'
p3015
assS'C02112'
p3016
(dp3017
g3
(lp3018
g73
asg6
(lp3019
g490
asg9
(lp3020
g492
asg12
(lp3021
S'2-Monoacylglycerol'
p3022
assS'C00483'
p3023
(dp3024
g3
(lp3025
g142
asg6
(lp3026
g254
asg9
(lp3027
g258
asg12
(lp3028
S'Tyramine'
p3029
assS'C01585'
p3030
(dp3031
g3
(lp3032
g35
ag73
asg6
(lp3033
g429
ag633
asg9
(lp3034
g39
ag619
asg12
(lp3035
S'Capronate; Hexanoate'
p3036
aS'Caproic acid (6:0)'
p3037
assS'C01487'
p3038
(dp3039
g3
(lp3040
g83
asg6
(lp3041
g421
asg9
(lp3042
g182
asg12
(lp3043
S'D-Allose'
p3044
assS'C01728'
p3045
(dp3046
g3
(lp3047
g83
asg6
(lp3048
g335
asg9
(lp3049
g337
asg12
(lp3050
S'Mannobiose'
p3051
assS'C00489'
p3052
(dp3053
g3
(lp3054
g35
asg6
(lp3055
g304
asg9
(lp3056
g39
asg12
(lp3057
S'Glutarate'
p3058
assS'C08281'
p3059
(dp3060
g3
(lp3061
g73
asg6
(lp3062
g633
asg9
(lp3063
g619
asg12
(lp3064
S'Behenic acid (22:0)'
p3065
assS'G11624'
p3066
(dp3067
g3
(lp3068
g83
asg6
(lp3069
g85
asg9
(lp3070
g87
asg12
(lp3071
S'4-O-Methylglucuronoarabinoxylran'
p3072
assS'C01946'
p3073
(dp3074
g3
(lp3075
g63
asg6
(lp3076
g546
asg9
(lp3077
g67
asg12
(lp3078
S'Oleandomycin'
p3079
assS'C00344'
p3080
(dp3081
g3
(lp3082
g73
asg6
(lp3083
g1458
asg9
(lp3084
g1460
asg12
(lp3085
S'Phosphatidylglycerol'
p3086
assS'G11623'
p3087
(dp3088
g3
(lp3089
g83
asg6
(lp3090
g85
asg9
(lp3091
g87
asg12
(lp3092
S'4-O-Methylglucuronoxylan'
p3093
assS'G11622'
p3094
(dp3095
g3
(lp3096
g83
asg6
(lp3097
g85
asg9
(lp3098
g87
asg12
(lp3099
S'Xyloglucan'
p3100
assS'C00061'
p3101
(dp3102
g3
(lp3103
g132
asg6
(lp3104
g397
asg9
(lp3105
g399
asg12
(lp3106
S'FMN'
p3107
assS'C00063'
p3108
(dp3109
g3
(lp3110
g18
ag132
asg6
(lp3111
g389
ag397
asg9
(lp3112
g354
ag399
asg12
(lp3113
S'CTP'
p3114
aS'CTP'
p3115
assS'C00062'
p3116
(dp3117
g3
(lp3118
g142
asg6
(lp3119
g538
asg9
(lp3120
g146
asg12
(lp3121
S'Arginine (Arg)'
p3122
assS'C00065'
p3123
(dp3124
g3
(lp3125
g142
asg6
(lp3126
g538
asg9
(lp3127
g146
asg12
(lp3128
S'Serine (Ser)'
p3129
assS'C00064'
p3130
(dp3131
g3
(lp3132
g142
asg6
(lp3133
g538
asg9
(lp3134
g146
asg12
(lp3135
S'Glutamine (Gln)'
p3136
assS'C06955'
p3137
(dp3138
g3
(lp3139
g5
asg6
(lp3140
g452
asg9
(lp3141
g454
asg12
(lp3142
S'Digitoxin'
p3143
assS'C15906'
p3144
(dp3145
g3
(lp3146
g45
asg6
(lp3147
g756
asg9
(lp3148
g49
asg12
(lp3149
S'Gastric inhibitory peptide'
p3150
assS'C00746'
p3151
(dp3152
g3
(lp3153
g45
asg6
(lp3154
S'Oxytocin [KO:K05243]'
p3155
asg9
(lp3156
g49
asg12
(lp3157
S'Oxytocin'
p3158
assS'C00740'
p3159
(dp3160
g3
(lp3161
g142
asg6
(lp3162
g144
asg9
(lp3163
g146
asg12
(lp3164
S'D-Serine'
p3165
assS'C01262'
p3166
(dp3167
g3
(lp3168
g142
asg6
(lp3169
g277
asg9
(lp3170
g279
asg12
(lp3171
S'Anserine'
p3172
assS'C02166'
p3173
(dp3174
g3
(lp3175
g73
asg6
(lp3176
g75
asg9
(lp3177
g77
asg12
(lp3178
S'Leukotriene C4'
p3179
assS'C02165'
p3180
(dp3181
g3
(lp3182
g73
asg6
(lp3183
g75
asg9
(lp3184
g77
asg12
(lp3185
S'Leukotriene B4'
p3186
assS'C00989'
p3187
(dp3188
g3
(lp3189
g35
asg6
(lp3190
g37
asg9
(lp3191
g39
asg12
(lp3192
S'4-Hydroxybutanoate'
p3193
assS'C05776'
p3194
(dp3195
g3
(lp3196
g132
asg6
(lp3197
g163
asg9
(lp3198
g136
asg12
(lp3199
S'Cobalamin(III) (Vitamin B12)'
p3200
assS'C00116'
p3201
(dp3202
g3
(lp3203
g83
asg6
(lp3204
g214
asg9
(lp3205
g182
asg12
(lp3206
S'Glycerol'
p3207
assS'C15481'
p3208
(dp3209
g3
(lp3210
g83
asg6
(lp3211
g461
asg9
(lp3212
g182
asg12
(lp3213
S'N-Acetyl-D-quinovosamine'
p3214
assS'C15480'
p3215
(dp3216
g3
(lp3217
g83
asg6
(lp3218
g461
asg9
(lp3219
g182
asg12
(lp3220
S'N-Acetyl-D-fucosamine'
p3221
assS'C00113'
p3222
(dp3223
g3
(lp3224
g132
asg6
(lp3225
g397
asg9
(lp3226
g399
asg12
(lp3227
S'PQQ'
p3228
assS'C00112'
p3229
(dp3230
g3
(lp3231
g18
asg6
(lp3232
g389
asg9
(lp3233
g354
asg12
(lp3234
S'CDP'
p3235
assS'G10505'
p3236
(dp3237
g3
(lp3238
g83
asg6
(lp3239
g85
asg9
(lp3240
g87
asg12
(lp3241
S'Hyaluronic acid'
p3242
assS'C16931'
p3243
(dp3244
g3
(lp3245
g5
asg6
(lp3246
g189
asg9
(lp3247
g191
asg12
(lp3248
S'Cinobufagin'
p3249
assS'C16932'
p3250
(dp3251
g3
(lp3252
g5
asg6
(lp3253
g189
asg9
(lp3254
g191
asg12
(lp3255
S'Cinobufotalin'
p3256
assS'C04715'
p3257
(dp3258
g3
(lp3259
g5
asg6
(lp3260
g1081
asg9
(lp3261
g603
asg12
(lp3262
S'Nuatigenin'
p3263
assS'C08836'
p3264
(dp3265
g3
(lp3266
g5
asg6
(lp3267
g1111
asg9
(lp3268
g1113
asg12
(lp3269
S'Poriferasterol'
p3270
assS'C01312'
p3271
(dp3272
g3
(lp3273
g73
asg6
(lp3274
g861
asg9
(lp3275
g77
asg12
(lp3276
S'Prostaglandin I2'
p3277
assS'C06880'
p3278
(dp3279
g3
(lp3280
g63
asg6
(lp3281
g713
asg9
(lp3282
g247
asg12
(lp3283
S'Cefazolin'
p3284
assS'C17058'
p3285
(dp3286
g3
(lp3287
g5
asg6
(lp3288
g189
asg9
(lp3289
g191
asg12
(lp3290
S'Resibufogenin'
p3291
assS'C02354'
p3292
(dp3293
g3
(lp3294
g18
asg6
(lp3295
g593
asg9
(lp3296
g22
asg12
(lp3297
S"2',3'-Cyclic CMP"
p3298
assS'C00188'
p3299
(dp3300
g3
(lp3301
g142
asg6
(lp3302
g538
asg9
(lp3303
g146
asg12
(lp3304
S'Threonine (Thr)'
p3305
assS'C00189'
p3306
(dp3307
g3
(lp3308
g142
asg6
(lp3309
g254
asg9
(lp3310
g258
asg12
(lp3311
S'Ethanolamine'
p3312
assS'C00186'
p3313
(dp3314
g3
(lp3315
g35
asg6
(lp3316
g37
asg9
(lp3317
g39
asg12
(lp3318
S'L-Lactate; (S)-2-Hydroxypropanoate'
p3319
assS'G10591'
p3320
(dp3321
g3
(lp3322
g83
asg6
(lp3323
g1051
asg9
(lp3324
g87
asg12
(lp3325
S'Pectin'
p3326
assS'C00184'
p3327
(dp3328
g3
(lp3329
g83
asg6
(lp3330
g206
asg9
(lp3331
g182
asg12
(lp3332
S'Dihydroxyacetone'
p3333
assS'C00185'
p3334
(dp3335
g3
(lp3336
g83
asg6
(lp3337
g335
asg9
(lp3338
g337
asg12
(lp3339
S'Cellobiose'
p3340
assS'C00183'
p3341
(dp3342
g3
(lp3343
g142
asg6
(lp3344
g538
asg9
(lp3345
g146
asg12
(lp3346
S'Valine (Val)'
p3347
assS'C00181'
p3348
(dp3349
g3
(lp3350
g83
asg6
(lp3351
g421
asg9
(lp3352
g182
asg12
(lp3353
S'D-Xylose'
p3354
assS'C00010'
p3355
(dp3356
g3
(lp3357
g132
asg6
(lp3358
g397
asg9
(lp3359
g399
asg12
(lp3360
S'CoA'
p3361
assS'C06662'
p3362
(dp3363
g3
(lp3364
g63
asg6
(lp3365
S'Clavams'
p3366
asg9
(lp3367
g247
asg12
(lp3368
S'Clavulanic acid'
p3369
assS'C06665'
p3370
(dp3371
g3
(lp3372
g63
asg6
(lp3373
S'Carbapenems'
p3374
asg9
(lp3375
g247
asg12
(lp3376
S'Imipenem'
p3377
assS'C06664'
p3378
(dp3379
g3
(lp3380
g63
asg6
(lp3381
g3374
asg9
(lp3382
g247
asg12
(lp3383
S'Thienamycin'
p3384
assS'C15638'
p3385
(dp3386
g3
(lp3387
g5
asg6
(lp3388
g8
asg9
(lp3389
g11
asg12
(lp3390
S'3-Androstanol'
p3391
assS'C16022'
p3392
(dp3393
g3
(lp3394
g45
asg6
(lp3395
g990
asg9
(lp3396
g49
asg12
(lp3397
S'Somatostatin-14'
p3398
assS'C01164'
p3399
(dp3400
g3
(lp3401
g5
asg6
(lp3402
g601
asg9
(lp3403
g603
asg12
(lp3404
S'7-Dehydrocholesterol'
p3405
assS'C16025'
p3406
(dp3407
g3
(lp3408
g45
asg6
(lp3409
S'Ghrelin [KO:K05254]'
p3410
asg9
(lp3411
g49
asg12
(lp3412
S'Ghrelin'
p3413
assS'C00015'
p3414
(dp3415
g3
(lp3416
g18
asg6
(lp3417
g389
asg9
(lp3418
g354
asg12
(lp3419
S'UDP'
p3420
assS'C02017'
p3421
(dp3422
g3
(lp3423
g45
asg6
(lp3424
S'Corticotropin [KO:K05228]'
p3425
asg9
(lp3426
g49
asg12
(lp3427
S'Corticotropin'
p3428
assS'C20825'
p3429
(dp3430
g3
(lp3431
g73
asg6
(lp3432
g2741
asg9
(lp3433
g173
asg12
(lp3434
S'Seminolipid'
p3435
assS'C01290'
p3436
(dp3437
g3
(lp3438
g73
asg6
(lp3439
g171
asg9
(lp3440
g173
asg12
(lp3441
S'Lactosylceramide'
p3442
assS'C01678'
p3443
(dp3444
g3
(lp3445
g142
asg6
(lp3446
g254
asg9
(lp3447
g258
asg12
(lp3448
S'Cysteamine'
p3449
assS'C00780'
p3450
(dp3451
g3
(lp3452
g142
ag45
asg6
(lp3453
g254
ag256
asg9
(lp3454
g258
ag260
asg12
(lp3455
S'Serotonin'
p3456
aS'Serotonin'
p3457
assS'C00525'
p3458
(dp3459
g3
(lp3460
g142
asg6
(lp3461
g144
asg9
(lp3462
g146
asg12
(lp3463
S'D-Tryptophan'
p3464
assS'C00526'
p3465
(dp3466
g3
(lp3467
g18
asg6
(lp3468
g1185
asg9
(lp3469
g288
asg12
(lp3470
S'Deoxyuridine (dU)'
p3471
assS'C18237'
p3472
(dp3473
g3
(lp3474
g132
asg6
(lp3475
g397
asg9
(lp3476
g399
asg12
(lp3477
S'Molybdenum cofactor'
p3478
assS'C00523'
p3479
(dp3480
g3
(lp3481
g5
asg6
(lp3482
g8
asg9
(lp3483
g11
asg12
(lp3484
S'Androsterone'
p3485
assS'C04884'
p3486
(dp3487
g3
(lp3488
g73
asg6
(lp3489
g171
asg9
(lp3490
g173
asg12
(lp3491
S'GM2'
p3492
assS'C01190'
p3493
(dp3494
g3
(lp3495
g73
asg6
(lp3496
g171
asg9
(lp3497
g173
asg12
(lp3498
S'Glucosylceramide'
p3499
assS'C01443'
p3500
(dp3501
g3
(lp3502
g5
asg6
(lp3503
g452
asg9
(lp3504
g454
asg12
(lp3505
S'Ouabain'
p3506
assS'C01194'
p3507
(dp3508
g3
(lp3509
g73
asg6
(lp3510
g1458
asg9
(lp3511
g1460
asg12
(lp3512
S'Phosphatidylinositol'
p3513
assS'C14210'
p3514
(dp3515
g3
(lp3516
g5
asg6
(lp3517
g8
asg9
(lp3518
g11
asg12
(lp3519
S'4-Androstenediol'
p3520
assS'C19632'
p3521
(dp3522
g3
(lp3523
g83
asg6
(lp3524
g335
asg9
(lp3525
g337
asg12
(lp3526
S'Kojibiose'
p3527
assS'C19633'
p3528
(dp3529
g3
(lp3530
g83
asg6
(lp3531
g335
asg9
(lp3532
g337
asg12
(lp3533
S'Maltulose'
p3534
assS'C19636'
p3535
(dp3536
g3
(lp3537
g83
asg6
(lp3538
g335
asg9
(lp3539
g337
asg12
(lp3540
S'Turanose'
p3541
assS'C19634'
p3542
(dp3543
g3
(lp3544
g83
asg6
(lp3545
g335
asg9
(lp3546
g337
asg12
(lp3547
S'Melibiulose'
p3548
assS'C19635'
p3549
(dp3550
g3
(lp3551
g83
asg6
(lp3552
g335
asg9
(lp3553
g337
asg12
(lp3554
S'Scillabiose'
p3555
assS'C12816'
p3556
(dp3557
g3
(lp3558
g5
asg6
(lp3559
g189
asg9
(lp3560
g191
asg12
(lp3561
S'Proscillaridin'
p3562
assS'C01905'
p3563
(dp3564
g3
(lp3565
g142
asg6
(lp3566
g144
asg9
(lp3567
g146
asg12
(lp3568
S'D-Asparagine'
p3569
assS'C18190'
p3570
(dp3571
g3
(lp3572
g45
asg6
(lp3573
S'Resistin [KO:K13438]'
p3574
asg9
(lp3575
g49
asg12
(lp3576
S'Resistin'
p3577
assS'C03935'
p3578
(dp3579
g3
(lp3580
g5
asg6
(lp3581
g577
asg9
(lp3582
g579
asg12
(lp3583
S'6beta-Hydroxyestradiol-17beta'
p3584
assS'C01941'
p3585
(dp3586
g3
(lp3587
g63
asg6
(lp3588
S'Monobactams'
p3589
asg9
(lp3590
g247
asg12
(lp3591
S'Nocardicin A'
p3592
assS'C05402'
p3593
(dp3594
g3
(lp3595
g83
asg6
(lp3596
g335
asg9
(lp3597
g337
asg12
(lp3598
S'Melibiose'
p3599
assS'C00788'
p3600
(dp3601
g3
(lp3602
g45
ag45
asg6
(lp3603
g326
ag256
asg9
(lp3604
g259
ag260
asg12
(lp3605
S'Adrenaline'
p3606
aS'Epinephrine; Adrenaline'
p3607
assS'C01227'
p3608
(dp3609
g3
(lp3610
g5
ag45
asg6
(lp3611
g8
ag153
asg9
(lp3612
g11
ag155
asg12
(lp3613
S'Dehydroepiandrosterone'
p3614
aS'Dehydroepiandrosterone'
p3615
assS'C01996'
p3616
(dp3617
g3
(lp3618
g45
asg6
(lp3619
S'Acetylcholine'
p3620
asg9
(lp3621
g260
asg12
(lp3622
S'Acetylcholine'
p3623
assS'C02538'
p3624
(dp3625
g3
(lp3626
g45
asg6
(lp3627
g998
asg9
(lp3628
g155
asg12
(lp3629
S'Estrone 3-sulfate'
p3630
assS'C05963'
p3631
(dp3632
g3
(lp3633
g73
asg6
(lp3634
g1951
asg9
(lp3635
g77
asg12
(lp3636
S'Thromboxane B2'
p3637
assS'C02537'
p3638
(dp3639
g3
(lp3640
g5
asg6
(lp3641
g577
asg9
(lp3642
g579
asg12
(lp3643
S'Estradiol-17alpha'
p3644
assS'C05964'
p3645
(dp3646
g3
(lp3647
g73
asg6
(lp3648
g1951
asg9
(lp3649
g77
asg12
(lp3650
S'11-Dehydro-thromboxane B2'
p3651
assS'C00239'
p3652
(dp3653
g3
(lp3654
g18
asg6
(lp3655
g352
asg9
(lp3656
g354
asg12
(lp3657
S'dCMP'
p3658
assS'C01346'
p3659
(dp3660
g3
(lp3661
g18
asg6
(lp3662
g352
asg9
(lp3663
g354
asg12
(lp3664
S'dUDP'
p3665
assS'C00232'
p3666
(dp3667
g3
(lp3668
g35
asg6
(lp3669
S'4-Oxocarboxylic acid'
p3670
asg9
(lp3671
g39
asg12
(lp3672
S'Succinate semialdehyde; 4-Oxobutanoate'
p3673
assS'C00233'
p3674
(dp3675
g3
(lp3676
g35
asg6
(lp3677
g1043
asg9
(lp3678
g39
asg12
(lp3679
S'2-Oxoisocaproate'
p3680
assS'C08278'
p3681
(dp3682
g3
(lp3683
g35
asg6
(lp3684
g304
asg9
(lp3685
g39
asg12
(lp3686
S'Suberate'
p3687
assS'C05688'
p3688
(dp3689
g3
(lp3690
g142
asg6
(lp3691
g144
asg9
(lp3692
g146
asg12
(lp3693
S'Selenocysteine (Sec)'
p3694
assS'C00723'
p3695
(dp3696
g3
(lp3697
g45
asg6
(lp3698
S'Insulin [KO:K04526]'
p3699
asg9
(lp3700
g49
asg12
(lp3701
S'Insulin'
p3702
assS'C00159'
p3703
(dp3704
g3
(lp3705
g83
asg6
(lp3706
g421
asg9
(lp3707
g182
asg12
(lp3708
S'D-Mannose'
p3709
assS'C00158'
p3710
(dp3711
g3
(lp3712
g35
asg6
(lp3713
g444
asg9
(lp3714
g39
asg12
(lp3715
S'Citrate'
p3716
assS'C05980'
p3717
(dp3718
g3
(lp3719
g73
asg6
(lp3720
g1458
asg9
(lp3721
g1460
asg12
(lp3722
S'Diphosphatidylglycerol; Cardiolipin'
p3723
assS'C00016'
p3724
(dp3725
g3
(lp3726
g132
asg6
(lp3727
g397
asg9
(lp3728
g399
asg12
(lp3729
S'FAD'
p3730
assS'C00018'
p3731
(dp3732
g3
(lp3733
g132
asg6
(lp3734
g397
asg9
(lp3735
g399
asg12
(lp3736
S'PLP'
p3737
assS'C00019'
p3738
(dp3739
g3
(lp3740
g132
asg6
(lp3741
g397
asg9
(lp3742
g399
asg12
(lp3743
S'SAM'
p3744
assS'C00153'
p3745
(dp3746
g3
(lp3747
g132
asg6
(lp3748
g163
asg9
(lp3749
g136
asg12
(lp3750
S'Nicotinamide (Vitamin B3)'
p3751
assS'C00152'
p3752
(dp3753
g3
(lp3754
g142
asg6
(lp3755
g538
asg9
(lp3756
g146
asg12
(lp3757
S'Asparagine (Asn)'
p3758
assS'C00155'
p3759
(dp3760
g3
(lp3761
g142
asg6
(lp3762
g144
asg9
(lp3763
g146
asg12
(lp3764
S'L-Homocysteine'
p3765
assS'C00157'
p3766
(dp3767
g3
(lp3768
g73
asg6
(lp3769
g1458
asg9
(lp3770
g1460
asg12
(lp3771
S'Phosphatidylcholine; Lecithin'
p3772
assS'C06956'
p3773
(dp3774
g3
(lp3775
g5
asg6
(lp3776
g452
asg9
(lp3777
g454
asg12
(lp3778
S'Digoxin'
p3779
assS'C06840'
p3780
(dp3781
g3
(lp3782
g63
asg6
(lp3783
g3589
asg9
(lp3784
g247
asg12
(lp3785
S'Aztreonam'
p3786
assS'C03758'
p3787
(dp3788
g3
(lp3789
g142
ag45
ag45
asg6
(lp3790
g254
aS'Dopamine'
p3791
ag256
asg9
(lp3792
g258
ag259
ag260
asg12
(lp3793
S'Dopamine'
p3794
aS'Dopamine'
p3795
aS'Dopamine'
p3796
assS'C04628'
p3797
(dp3798
g3
(lp3799
g132
asg6
(lp3800
g397
asg9
(lp3801
g399
asg12
(lp3802
S'Coenzyme B'
p3803
assS'C05497'
p3804
(dp3805
g3
(lp3806
g45
asg6
(lp3807
g507
asg9
(lp3808
g155
asg12
(lp3809
S'21-Deoxycortisol'
p3810
assS'C00058'
p3811
(dp3812
g3
(lp3813
g35
asg6
(lp3814
g429
asg9
(lp3815
g39
asg12
(lp3816
S'Formate; Methanoate'
p3817
assS'C03752'
p3818
(dp3819
g3
(lp3820
g83
asg6
(lp3821
g180
asg9
(lp3822
g182
asg12
(lp3823
S'D-Glucosaminic acid'
p3824
assS'C05490'
p3825
(dp3826
g3
(lp3827
g45
asg6
(lp3828
g1578
asg9
(lp3829
g155
asg12
(lp3830
S'11-Dehydrocorticosterone'
p3831
assS'C01530'
p3832
(dp3833
g3
(lp3834
g73
asg6
(lp3835
g633
asg9
(lp3836
g619
asg12
(lp3837
S'Stearic acid (18:0)'
p3838
assS'C00306'
p3839
(dp3840
g3
(lp3841
g45
asg6
(lp3842
S'Bradykinin [KO:K03898]'
p3843
asg9
(lp3844
g49
asg12
(lp3845
S'Bradykinin'
p3846
assS'C00862'
p3847
(dp3848
g3
(lp3849
g132
asg6
(lp3850
g397
asg9
(lp3851
g399
asg12
(lp3852
S'Methanofuran'
p3853
assS'C03205'
p3854
(dp3855
g3
(lp3856
g5
ag45
asg6
(lp3857
g506
ag1578
asg9
(lp3858
g509
ag155
asg12
(lp3859
S'11-Deoxycorticosterone'
p3860
aS'11-Deoxycorticosterone'
p3861
assS'C00712'
p3862
(dp3863
g3
(lp3864
g73
asg6
(lp3865
g617
asg9
(lp3866
g619
asg12
(lp3867
S'Oleic acid (18:1;9)'
p3868
assS'G10536'
p3869
(dp3870
g3
(lp3871
g83
asg6
(lp3872
g1051
asg9
(lp3873
g87
asg12
(lp3874
S'Chitosan'
p3875
assS'C15672'
p3876
(dp3877
g3
(lp3878
g132
asg6
(lp3879
g397
asg9
(lp3880
g399
asg12
(lp3881
S'Heme O'
p3882
assS'C08876'
p3883
(dp3884
g3
(lp3885
g5
asg6
(lp3886
g452
asg9
(lp3887
g454
asg12
(lp3888
S'Neriifolin'
p3889
assS'C15670'
p3890
(dp3891
g3
(lp3892
g132
asg6
(lp3893
g397
asg9
(lp3894
g399
asg12
(lp3895
S'Heme A'
p3896
assS'C01124'
p3897
(dp3898
g3
(lp3899
g45
asg6
(lp3900
g1578
asg9
(lp3901
g155
asg12
(lp3902
S'18-Hydroxycorticosterone'
p3903
assS'C00304'
p3904
(dp3905
g3
(lp3906
g63
asg6
(lp3907
g236
asg9
(lp3908
g238
asg12
(lp3909
S'Kanamycin'
p3910
assS'C16114'
p3911
(dp3912
g3
(lp3913
g45
asg6
(lp3914
g2031
asg9
(lp3915
g49
asg12
(lp3916
S'Cholecystokinin-8'
p3917
assS'C16115'
p3918
(dp3919
g3
(lp3920
g45
asg6
(lp3921
S'Gastrin-releasing peptide [KO:K05224]'
p3922
asg9
(lp3923
g49
asg12
(lp3924
S'Gastrin-releasing peptide'
p3925
assS'C16113'
p3926
(dp3927
g3
(lp3928
g45
asg6
(lp3929
g2784
asg9
(lp3930
g49
asg12
(lp3931
S'Gastrin-17'
p3932
assS'C18185'
p3933
(dp3934
g3
(lp3935
g45
asg6
(lp3936
S'Chorionic gonadotropin [KO:K10045 K08522]'
p3937
asg9
(lp3938
g49
asg12
(lp3939
S'Chorionic gonadotropin'
p3940
assS'C05141'
p3941
(dp3942
g3
(lp3943
g5
ag45
asg6
(lp3944
g577
ag998
asg9
(lp3945
g579
ag155
asg12
(lp3946
S'Estriol'
p3947
aS'Estriol'
p3948
assS'C05145'
p3949
(dp3950
g3
(lp3951
g142
asg6
(lp3952
g144
asg9
(lp3953
g146
asg12
(lp3954
S'3-Aminoisobutyric acid'
p3955
assS'C05300'
p3956
(dp3957
g3
(lp3958
g45
asg6
(lp3959
g998
asg9
(lp3960
g155
asg12
(lp3961
S'16alpha-Hydroxyestrone'
p3962
assS'C16118'
p3963
(dp3964
g3
(lp3965
g45
asg6
(lp3966
S'Peptide YY [KO:K05233]'
p3967
asg9
(lp3968
g49
asg12
(lp3969
S'Peptide YY'
p3970
assS'C13662'
p3971
(dp3972
g3
(lp3973
g45
asg6
(lp3974
S'Arginine vasopressin [KO:K05242]'
p3975
asg9
(lp3976
g49
asg12
(lp3977
S'Arg-vasopressin'
p3978
assS'C06438'
p3979
(dp3980
g3
(lp3981
g73
asg6
(lp3982
g861
asg9
(lp3983
g77
asg12
(lp3984
S'Prostaglandin D1'
p3985
assS'C06439'
p3986
(dp3987
g3
(lp3988
g73
asg6
(lp3989
g861
asg9
(lp3990
g77
asg12
(lp3991
S'Prostaglandin E3'
p3992
assS'C02059'
p3993
(dp3994
g3
(lp3995
g132
asg6
(lp3996
g134
asg9
(lp3997
g136
asg12
(lp3998
S'Phylloquinone (Vitamin K1)'
p3999
assS'C02758'
p4000
(dp4001
g3
(lp4002
g45
asg6
(lp4003
g2046
asg9
(lp4004
g49
asg12
(lp4005
S'alpha-Melanotropin'
p4006
assS'C06437'
p4007
(dp4008
g3
(lp4009
g73
asg6
(lp4010
g490
asg9
(lp4011
g492
asg12
(lp4012
S'1,3-Diacylglycerol'
p4013
assS'C01895'
p4014
(dp4015
g3
(lp4016
g63
asg6
(lp4017
g65
asg9
(lp4018
g67
asg12
(lp4019
S'Bleomycin B2'
p4020
assS'C00873'
p4021
(dp4022
g3
(lp4023
g45
asg6
(lp4024
g1066
asg9
(lp4025
g49
asg12
(lp4026
S'Angiotensin I'
p4027
assS'C01013'
p4028
(dp4029
g3
(lp4030
g35
asg6
(lp4031
g37
asg9
(lp4032
g39
asg12
(lp4033
S'3-Hydroxypropanoate'
p4034
assS'C01019'
p4035
(dp4036
g3
(lp4037
g83
asg6
(lp4038
g344
asg9
(lp4039
g182
asg12
(lp4040
S'L-Fucose'
p4041
assS'C01018'
p4042
(dp4043
g3
(lp4044
g83
asg6
(lp4045
g344
asg9
(lp4046
g182
asg12
(lp4047
S'D-Fucose'
p4048
assS'C16079'
p4049
(dp4050
g3
(lp4051
g45
asg6
(lp4052
S'Corticotropin-releasing hormone [KO:K05256]'
p4053
asg9
(lp4054
g49
asg12
(lp4055
S'Corticotropin releasing hormone'
p4056
assS'C00402'
p4057
(dp4058
g3
(lp4059
g142
asg6
(lp4060
g144
asg9
(lp4061
g146
asg12
(lp4062
S'D-Aspartic acid'
p4063
assS'C00407'
p4064
(dp4065
g3
(lp4066
g142
asg6
(lp4067
g538
asg9
(lp4068
g146
asg12
(lp4069
S'Isoleucine (Ile)'
p4070
assS'C00309'
p4071
(dp4072
g3
(lp4073
g83
asg6
(lp4074
g206
asg9
(lp4075
g182
asg12
(lp4076
S'D-Ribulose'
p4077
assS'C03576'
p4078
(dp4079
g3
(lp4080
g132
asg6
(lp4081
g397
asg9
(lp4082
g399
asg12
(lp4083
S'Coenzyme M'
p4084
assS'C03570'
p4085
(dp4086
g3
(lp4087
g83
asg6
(lp4088
g461
asg9
(lp4089
g182
asg12
(lp4090
S'D-Mannosamine'
p4091
assS'C05291'
p4092
(dp4093
g3
(lp4094
g45
asg6
(lp4095
g153
asg9
(lp4096
g155
asg12
(lp4097
S'7alpha-Hydroxytestosterone'
p4098
assS'C01789'
p4099
(dp4100
g3
(lp4101
g5
asg6
(lp4102
g806
asg9
(lp4103
g808
asg12
(lp4104
S'Campesterol'
p4105
assS'C00586'
p4106
(dp4107
g3
(lp4108
g83
asg6
(lp4109
g344
asg9
(lp4110
g182
asg12
(lp4111
S'2-Deoxy-D-glucose'
p4112
assS'C05441'
p4113
(dp4114
g3
(lp4115
g132
asg6
(lp4116
g134
asg9
(lp4117
g136
asg12
(lp4118
S'Ergocalciferol (Vitamin D2)'
p4119
assS'C00584'
p4120
(dp4121
g3
(lp4122
g73
asg6
(lp4123
g861
asg9
(lp4124
g77
asg12
(lp4125
S'Prostaglandin E2'
p4126
assS'C05443'
p4127
(dp4128
g3
(lp4129
g132
asg6
(lp4130
g134
asg9
(lp4131
g136
asg12
(lp4132
S'Cholecalciferol (Vitamin D3)'
p4133
assS'C16047'
p4134
(dp4135
g3
(lp4136
g45
asg6
(lp4137
S'Motilin [KO:K05265]'
p4138
asg9
(lp4139
g49
asg12
(lp4140
S'Motilin'
p4141
assS'C00577'
p4142
(dp4143
g3
(lp4144
g83
asg6
(lp4145
g421
asg9
(lp4146
g182
asg12
(lp4147
S'D-Glyceraldehyde'
p4148
assS'C00575'
p4149
(dp4150
g3
(lp4151
g18
asg6
(lp4152
g20
asg9
(lp4153
g22
asg12
(lp4154
S"3',5'-Cyclic AMP"
p4155
assS'C00909'
p4156
(dp4157
g3
(lp4158
g73
asg6
(lp4159
g75
asg9
(lp4160
g77
asg12
(lp4161
S'Leukotriene A4'
p4162
assS'C00905'
p4163
(dp4164
g3
(lp4165
g83
asg6
(lp4166
g180
asg9
(lp4167
g182
asg12
(lp4168
S'D-Fructuronic acid'
p4169
assS'C00270'
p4170
(dp4171
g3
(lp4172
g83
asg6
(lp4173
g461
asg9
(lp4174
g182
asg12
(lp4175
S'N-Acetylneuraminic acid'
p4176
assS'C00272'
p4177
(dp4178
g3
(lp4179
g132
asg6
(lp4180
g397
asg9
(lp4181
g399
asg12
(lp4182
S'Tetrahydrobiopterin'
p4183
assS'C02477'
p4184
(dp4185
g3
(lp4186
g132
asg6
(lp4187
g134
asg9
(lp4188
g136
asg12
(lp4189
S'alpha-Tocopherol (Vitamin E)'
p4190
assS'C01719'
p4191
(dp4192
g3
(lp4193
g83
asg6
(lp4194
g206
asg9
(lp4195
g182
asg12
(lp4196
S'L-Fructose'
p4197
assS'C00476'
p4198
(dp4199
g3
(lp4200
g83
asg6
(lp4201
g421
asg9
(lp4202
g182
asg12
(lp4203
S'D-Lyxose'
p4204
assS'C00477'
p4205
(dp4206
g3
(lp4207
g5
ag45
asg6
(lp4208
g601
ag2304
asg9
(lp4209
g603
ag155
asg12
(lp4210
S'Ecdysone'
p4211
aS'Ecdysone'
p4212
assS'C01712'
p4213
(dp4214
g3
(lp4215
g73
asg6
(lp4216
g617
asg9
(lp4217
g619
asg12
(lp4218
S'Elaidic acid (18:1;9)'
p4219
assS'C00475'
p4220
(dp4221
g3
(lp4222
g18
asg6
(lp4223
g286
asg9
(lp4224
g288
asg12
(lp4225
S'Cytidine (C)'
p4226
assS'C00473'
p4227
(dp4228
g3
(lp4229
g132
asg6
(lp4230
g134
asg9
(lp4231
g136
asg12
(lp4232
S'Retinol (Vitamin A)'
p4233
assS'G11610'
p4234
(dp4235
g3
(lp4236
g83
asg6
(lp4237
g1051
asg9
(lp4238
g87
asg12
(lp4239
S'Amylopectin'
p4240
assS'G11619'
p4241
(dp4242
g3
(lp4243
g83
asg6
(lp4244
g85
asg9
(lp4245
g87
asg12
(lp4246
S'Arabinoxylan'
p4247
assS'C00355'
p4248
(dp4249
g3
(lp4250
g142
ag45
asg6
(lp4251
g144
ag1214
asg9
(lp4252
g146
ag260
asg12
(lp4253
S'3,4-Dihydroxy-L-phenylalanine'
p4254
aS'Dopa'
p4255
assS'C00350'
p4256
(dp4257
g3
(lp4258
g73
asg6
(lp4259
g1458
asg9
(lp4260
g1460
asg12
(lp4261
S'Phosphatidylethanolamine'
p4262
assS'C13523'
p4263
(dp4264
g3
(lp4265
g45
asg6
(lp4266
S'Secretin [KO:K05263]'
p4267
asg9
(lp4268
g49
asg12
(lp4269
S'Secretin'
p4270
assS'C02781'
p4271
(dp4272
g3
(lp4273
g83
asg6
(lp4274
g344
asg9
(lp4275
g182
asg12
(lp4276
S'2-Deoxy-D-galactose'
p4277
assS'C06691'
p4278
(dp4279
g3
(lp4280
g63
asg6
(lp4281
g822
asg9
(lp4282
g67
asg12
(lp4283
S'Actinorhodine'
p4284
assS'C06692'
p4285
(dp4286
g3
(lp4287
g63
asg6
(lp4288
S'Peptide nucleosides'
p4289
asg9
(lp4290
g563
asg12
(lp4291
S'Polyoxin B'
p4292
assS'C05952'
p4293
(dp4294
g3
(lp4295
g73
asg6
(lp4296
g75
asg9
(lp4297
g77
asg12
(lp4298
S'Leukotriene E4'
p4299
assS'C05953'
p4300
(dp4301
g3
(lp4302
g73
asg6
(lp4303
g861
asg9
(lp4304
g77
asg12
(lp4305
S'Prostaglandin A2'
p4306
assS'C05951'
p4307
(dp4308
g3
(lp4309
g73
asg6
(lp4310
g75
asg9
(lp4311
g77
asg12
(lp4312
S'Leukotriene D4'
p4313
assS'C01570'
p4314
(dp4315
g3
(lp4316
g142
asg6
(lp4317
g144
asg9
(lp4318
g146
asg12
(lp4319
S'D-Leucine'
p4320
assS'C05957'
p4321
(dp4322
g3
(lp4323
g73
asg6
(lp4324
g861
asg9
(lp4325
g77
asg12
(lp4326
S'Prostaglandin J2'
p4327
assS'C05954'
p4328
(dp4329
g3
(lp4330
g73
asg6
(lp4331
g861
asg9
(lp4332
g77
asg12
(lp4333
S'Prostaglandin B2'
p4334
assS'C05955'
p4335
(dp4336
g3
(lp4337
g73
asg6
(lp4338
g861
asg9
(lp4339
g77
asg12
(lp4340
S'Prostaglandin C2'
p4341
assS'C06694'
p4342
(dp4343
g3
(lp4344
g63
asg6
(lp4345
S'Steroids'
p4346
asg9
(lp4347
g563
asg12
(lp4348
S'Fusidic acid'
p4349
assS'C00993'
p4350
(dp4351
g3
(lp4352
g142
asg6
(lp4353
g277
asg9
(lp4354
g279
asg12
(lp4355
S'D-Alanyl-D-alanine'
p4356
assS'C00120'
p4357
(dp4358
g3
(lp4359
g132
asg6
(lp4360
g397
asg9
(lp4361
g399
asg12
(lp4362
S'Biotin'
p4363
assS'C00121'
p4364
(dp4365
g3
(lp4366
g83
asg6
(lp4367
g421
asg9
(lp4368
g182
asg12
(lp4369
S'D-Ribose'
p4370
assS'C00123'
p4371
(dp4372
g3
(lp4373
g142
asg6
(lp4374
g538
asg9
(lp4375
g146
asg12
(lp4376
S'Leucine (Leu)'
p4377
assS'C00124'
p4378
(dp4379
g3
(lp4380
g83
asg6
(lp4381
g421
asg9
(lp4382
g182
asg12
(lp4383
S'D-Galactose'
p4384
assS'C15337'
p4385
(dp4386
g3
(lp4387
g5
asg6
(lp4388
g601
asg9
(lp4389
g603
asg12
(lp4390
S'Allocholesterol'
p4391
assS'C16132'
p4392
(dp4393
g3
(lp4394
g45
asg6
(lp4395
S'Insulin-like growth factor 2 [KO:K13769]'
p4396
asg9
(lp4397
g49
asg12
(lp4398
S'Insulin-like growth factor II'
p4399
assS'C06478'
p4400
(dp4401
g3
(lp4402
g83
asg6
(lp4403
g421
asg9
(lp4404
g182
asg12
(lp4405
S'3,6-Anhydroglucose'
p4406
assS'C06372'
p4407
(dp4408
g3
(lp4409
g83
asg6
(lp4410
g335
asg9
(lp4411
g337
asg12
(lp4412
S'Lacto-N-biose'
p4413
assS'C06371'
p4414
(dp4415
g3
(lp4416
g83
asg6
(lp4417
S'Tetrasaccharides'
p4418
asg9
(lp4419
g337
asg12
(lp4420
S'Lacto-N-tetraose'
p4421
assS'C06474'
p4422
(dp4423
g3
(lp4424
g83
asg6
(lp4425
g421
asg9
(lp4426
g182
asg12
(lp4427
S'3,6-Anhydrogalactose'
p4428
assS'C06475'
p4429
(dp4430
g3
(lp4431
g73
asg6
(lp4432
g861
asg9
(lp4433
g77
asg12
(lp4434
S'Prostaglandin F1alpha'
p4435
assS'C06476'
p4436
(dp4437
g3
(lp4438
g73
asg6
(lp4439
g861
asg9
(lp4440
g77
asg12
(lp4441
S'Prostaglandin F3alpha'
p4442
assS'C06477'
p4443
(dp4444
g3
(lp4445
g83
asg6
(lp4446
g180
asg9
(lp4447
g182
asg12
(lp4448
S'L-Guluronic acid'
p4449
assS'C06470'
p4450
(dp4451
g3
(lp4452
g83
asg6
(lp4453
g461
asg9
(lp4454
g182
asg12
(lp4455
S'Muramic acid'
p4456
assS'C06471'
p4457
(dp4458
g3
(lp4459
g83
asg6
(lp4460
g344
asg9
(lp4461
g182
asg12
(lp4462
S'Abequose'
p4463
assS'C06472'
p4464
(dp4465
g3
(lp4466
g83
asg6
(lp4467
g180
asg9
(lp4468
g182
asg12
(lp4469
S'L-Iduronic acid'
p4470
assS'C06473'
p4471
(dp4472
g3
(lp4473
g83
asg6
(lp4474
g180
asg9
(lp4475
g182
asg12
(lp4476
S'2-Keto-D-gluconic acid'
p4477
assS'C00055'
p4478
(dp4479
g3
(lp4480
g18
asg6
(lp4481
g389
asg9
(lp4482
g354
asg12
(lp4483
S'CMP'
p4484
assS'C00725'
p4485
(dp4486
g3
(lp4487
g132
asg6
(lp4488
g397
asg9
(lp4489
g399
asg12
(lp4490
S'Lipoate'
p4491
assS'C00051'
p4492
(dp4493
g3
(lp4494
g132
asg6
(lp4495
g397
asg9
(lp4496
g399
asg12
(lp4497
S'Glutathione'
p4498
assS'C02656'
p4499
(dp4500
g3
(lp4501
g35
asg6
(lp4502
g304
asg9
(lp4503
g39
asg12
(lp4504
S'Pimelate'
p4505
assS'C00053'
p4506
(dp4507
g3
(lp4508
g132
asg6
(lp4509
g397
asg9
(lp4510
g399
asg12
(lp4511
S'PAPS'
p4512
assS'C00194'
p4513
(dp4514
g3
(lp4515
g132
asg6
(lp4516
g397
asg9
(lp4517
g399
asg12
(lp4518
S'Cobamamide'
p4519
assS'C02713'
p4520
(dp4521
g3
(lp4522
g83
asg6
(lp4523
g461
asg9
(lp4524
g182
asg12
(lp4525
S'N-Acetylmuramic acid'
p4526
assS'C00191'
p4527
(dp4528
g3
(lp4529
g83
asg6
(lp4530
g180
asg9
(lp4531
g182
asg12
(lp4532
S'D-Glucuronic acid'
p4533
assS'C02135'
p4534
(dp4535
g3
(lp4536
g45
asg6
(lp4537
g1066
asg9
(lp4538
g49
asg12
(lp4539
S'Angiotensin II'
p4540
assS'C08362'
p4541
(dp4542
g3
(lp4543
g73
asg6
(lp4544
g617
asg9
(lp4545
g619
asg12
(lp4546
S'Palmitoleic acid (16:1;9)'
p4547
assS'C16030'
p4548
(dp4549
g3
(lp4550
g45
asg6
(lp4551
S'Melanin-concentrating hormone [KO:K05229]'
p4552
asg9
(lp4553
g49
asg12
(lp4554
S'Melanin-concentrating hormone'
p4555
assS'C05138'
p4556
(dp4557
g3
(lp4558
g45
asg6
(lp4559
g1836
asg9
(lp4560
g155
asg12
(lp4561
S'17alpha-Hydroxypregnenolone'
p4562
assS'C00255'
p4563
(dp4564
g3
(lp4565
g132
asg6
(lp4566
g163
asg9
(lp4567
g136
asg12
(lp4568
S'Riboflavin (Vitamin B2)'
p4569
assS'C08316'
p4570
(dp4571
g3
(lp4572
g73
asg6
(lp4573
g617
asg9
(lp4574
g619
asg12
(lp4575
S'Erucic acid (22:1;13)'
p4576
ass.