(dp0
VC06720
p1
(lp2
VM00551
p3
asVC05528
p4
(lp5
VM00358
p6
asVC11912
p7
(lp8
VM00794
p9
asVC06729
p10
(lp11
g3
asVC00695
p12
(lp13
VM00104
p14
aVM00106
p15
asVC00027
p16
(lp17
VM00532
p18
asVC00149
p19
(lp20
VM00009
p21
aVM00011
p22
aVM00012
p23
aVM00168
p24
aVM00169
p25
aVM00171
p26
aVM00172
p27
aVM00173
p28
aVM00346
p29
aVM00373
p30
aVM00374
p31
aVM00376
p32
aVM00620
p33
aVM00740
p34
asVC00944
p35
(lp36
VM00022
p37
asVC04330
p38
(lp39
VM00567
p40
asVC04332
p41
(lp42
VM00125
p43
asVC01457
p44
(lp45
VM00773
p46
asVC07335
p47
(lp48
VM00124
p49
asVC00430
p50
(lp51
VM00121
p52
asVC01454
p53
(lp54
VM00537
p55
ag3
asVC00829
p56
(lp57
VM00534
p58
asVC00437
p59
(lp60
VM00028
p61
asVC00533
p62
(lp63
VM00529
p64
asVC00438
p65
(lp66
VM00051
p67
asVC00826
p68
(lp69
VM00040
p70
asVC12318
p71
(lp72
VM00800
p73
asVC01020
p74
(lp75
VM00622
p76
asVC01189
p77
(lp78
VM00101
p79
asVC06655
p80
(lp81
VM00674
p82
asVC06124
p83
(lp84
VM00100
p85
asVC06125
p86
(lp87
VM00067
p88
asVC12481
p89
(lp90
VM00795
p91
asVC07044
p92
(lp93
VM00785
p94
asVC01180
p95
(lp96
VM00034
p97
asVC04874
p98
(lp99
VM00126
p100
asVC01182
p101
(lp102
VM00165
p103
aVM00166
p104
ag18
asVC01185
p105
(lp106
VM00115
p107
asVC06659
p108
(lp109
g82
asVC01187
p110
(lp111
VM00063
p112
asVC21073
p113
(lp114
g73
asVC05535
p115
(lp116
VM00030
p117
asVC15816
p118
(lp119
g79
asVC21075
p120
(lp121
VM00810
p122
asVC21074
p123
(lp124
g73
asVC00146
p125
(lp126
VM00548
p127
asVC01739
p128
(lp129
VM00736
p130
asVC02400
p131
(lp132
g46
asVCO2
p133
(lp134
g103
ag104
ag24
ag25
aVM00170
p135
ag26
ag27
aVM00377
p136
aVM00422
p137
ag40
asVC03920
p138
(lp139
VM00356
p140
aVM00357
p141
aVM00563
p142
ag40
asVC00791
p143
(lp144
VM00047
p145
asVC07216
p146
(lp147
g55
asVC05556
p148
(lp149
VM00672
p150
aVM00673
p151
asVC02528
p152
(lp153
g14
asVC07215
p154
(lp155
g55
ag3
asVC03845
p156
(lp157
g79
asVC00227
p158
(lp159
g141
aVM00579
p160
asVCobamide coenzyme
p161
(lp162
VM00122
p163
asVC00224
p164
(lp165
VM00176
p166
aVM00596
p167
asVC00223
p168
(lp169
VM00039
p170
aVM00137
p171
aVM00350
p172
asVC01236
p173
(lp174
VM00004
p175
aVM00006
p176
aVM00008
p177
asVC01234
p178
(lp179
VM00368
p180
asVC06565
p181
(lp182
g151
asVC09822
p183
(lp184
VM00540
p185
asVC02504
p186
(lp187
VM00432
p188
asVC07212
p189
(lp190
g55
asVC03539
p191
(lp192
VM00609
p193
asVC00894
p194
(lp195
VM00013
p196
aVM00375
p197
ag32
asVC07211
p198
(lp199
g55
ag3
asVC14463
p200
(lp201
VM00019
p202
aVM00570
p203
asVC07208
p204
(lp205
g55
asVC00547
p206
(lp207
VM00042
p208
asVC00544
p209
(lp210
VM00044
p211
asVC09821
p212
(lp213
VM00541
p214
asVC00261
p215
(lp216
VM00538
p217
asVC00366
p218
(lp219
VM00546
p220
asVC02291
p221
(lp222
VM00017
p223
aVM00035
p224
aVM00338
p225
ag193
asVC00364
p226
(lp227
VM00053
p228
asVC00365
p229
(lp230
g228
asVC00363
p231
(lp232
g228
asVC00008
p233
(lp234
VM00049
p235
asVC00007
p236
(lp237
VM00416
p238
ag18
asVC00004
p239
(lp240
VM00142
p241
aVM00144
p242
aVM00145
p243
asVC00003
p244
(lp245
g107
ag241
ag242
ag243
asVC00002
p246
(lp247
g235
asVC05837
p248
(lp249
VM00370
p250
asVC00369
p251
(lp252
VM00565
p253
asVC03589
p254
(lp255
VM00545
p256
aVM00569
p257
asVC19759
p258
(lp259
VM00097
p260
asVC15926
p261
(lp262
VM00114
p263
asVC09818
p264
(lp265
VM00418
p266
asVC19698
p267
(lp268
VM00789
p269
asVC03586
p270
(lp271
VM00568
p272
asVC11062
p273
(lp274
g31
ag197
asVC11966
p275
(lp276
VM00777
p277
asVC06231
p278
(lp279
VM00033
p280
asVC06616
p281
(lp282
VM00774
p283
asVC02612
p284
(lp285
VM00535
p286
asVCorticosterone
p287
(lp288
VM00108
p289
asVC04652
p290
(lp291
VM00060
p292
asVC15883
p293
(lp294
VM00112
p295
asVC15882
p296
(lp297
g295
asVC03741
p298
(lp299
g52
asVC03742
p300
(lp301
VM00369
p302
asVC01246
p303
(lp304
VM00055
p305
asVC00099
p306
(lp307
VM00046
p308
aVM00119
p309
asVC00311
p310
(lp311
g21
aVM00010
p312
ag23
ag28
ag34
asVC00310
p313
(lp314
VM00014
p315
asVC00641
p316
(lp317
VM00089
p318
aVM00098
p319
asVC00640
p320
(lp321
VM00085
p322
asVC00643
p323
(lp324
VM00037
p325
asVC01241
p326
(lp327
VM00091
p328
asVC00762
p329
(lp330
VM00109
p331
asVC00091
p332
(lp333
g21
ag22
ag28
ag30
ag31
ag197
ag32
ag33
aVM00741
p334
asVC00319
p335
(lp336
VM00099
p337
ag85
asVC00093
p338
(lp339
g318
asVC02593
p340
(lp341
VM00087
p342
asVC02189
p343
(lp344
VM00056
p345
aVM00057
p346
asVC00096
p347
(lp348
g263
asVC00097
p349
(lp350
VM00021
p351
ag225
ag193
ag150
ag151
asVC00556
p352
(lp353
g217
asVCyclohexane-1-carboxyl-CoA
p354
(lp355
g185
asVC15547
p356
(lp357
VM00116
p358
asVC17352
p359
(lp360
g130
asVC17351
p361
(lp362
g130
asVC01455
p363
(lp364
g266
ag217
aVM00547
p365
asVC15667
p366
(lp367
VM00048
p368
asVC02730
p369
(lp370
g358
asVC04734
p371
(lp372
g368
asVC15803
p373
(lp374
VM00371
p375
asVC04738
p376
(lp377
g292
asVC20512
p378
(lp379
VM00786
p380
asVC02280
p381
(lp382
g263
asVC17560
p383
(lp384
VM00117
p385
aVM00128
p386
asVC17561
p387
(lp388
g385
ag386
asVC17562
p389
(lp390
g385
ag386
asVC16328
p391
(lp392
VM00113
p393
asVC06427
p394
(lp395
g393
asVC04783
p396
(lp397
VM00623
p398
asVC11965
p399
(lp400
g277
asVC05775
p401
(lp402
g163
asVC06588
p403
(lp404
VM00543
p405
asVC03069
p406
(lp407
VM00036
p408
asVC08606
p409
(lp410
VM00372
p411
asVC06584
p412
(lp413
g405
asVC06585
p414
(lp415
g405
asVC06586
p416
(lp417
g405
asVC04637
p418
(lp419
VM00130
p420
asVC06580
p421
(lp422
VM00539
p423
asVC06581
p424
(lp425
g423
asVC05778
p426
(lp427
g52
asVC03063
p428
(lp429
VM00533
p430
asVC00164
p431
(lp432
g408
ag211
aVM00088
p433
asVC00166
p434
(lp435
VM00024
p436
asVC00167
p437
(lp438
g315
aVM00129
p439
aVM00761
p440
asVC00160
p441
(lp442
g18
asVC00180
p443
(lp444
g217
ag405
ag3
asVC00876
p445
(lp446
VM00378
p447
asVC02987
p448
(lp449
g52
asVC00168
p450
(lp451
g29
ag18
asVC00169
p452
(lp453
VM00029
p454
ag67
asVC20526
p455
(lp456
VM00661
p457
asVC09823
p458
(lp459
g185
asVC06564
p460
(lp461
g151
asVC00439
p462
(lp463
VM00045
p464
asVCTP
p465
(lp466
VM00052
p467
ag228
asVC04377
p468
(lp469
g40
asVC04376
p470
(lp471
g368
asVCarbazole
p472
(lp473
VM00544
p474
asVC20397
p475
(lp476
VM00819
p477
asVC20258
p478
(lp479
VM00016
p480
aVM00525
p481
aVM00526
p482
aVM00527
p483
asVC06568
p484
(lp485
g151
asVC03089
p486
(lp487
g97
asVC00860
p488
(lp489
VM00026
p490
asVC01060
p491
(lp492
VM00043
p493
asVC01061
p494
(lp495
g211
asVC20581
p496
(lp497
VM00608
p498
asVC00864
p499
(lp500
g309
aVM00120
p501
asVC04272
p502
(lp503
g202
asVC18711
p504
(lp505
VM00782
p506
asVC01384
p507
(lp508
g76
asVC04832
p509
(lp510
g140
ag141
ag142
ag40
asVC04785
p511
(lp512
g393
asVC19688
p513
(lp514
g269
asVC04780
p515
(lp516
g393
asVCreatine
p517
(lp518
g145
asVC04932
p519
(lp520
g292
asVC06547
p521
(lp522
g180
asVC04421
p523
(lp524
g480
asVC06656
p525
(lp526
g82
asVC01143
p527
(lp528
VM00095
p529
asVC15930
p530
(lp531
VM00630
p532
asVC18324
p533
(lp534
g30
asVC20399
p535
(lp536
g477
asVC06510
p537
(lp538
g163
asVC03561
p539
(lp540
g30
asVC06660
p541
(lp542
g82
asVC11967
p543
(lp544
g277
asVC03406
p545
(lp546
g454
asVCastasterone
p547
(lp548
g375
asVC05290
p549
(lp550
VM00110
p551
asVC20974
p552
(lp553
VM00784
p554
asVC04181
p555
(lp556
g202
asVC04186
p557
(lp558
g430
asVC21087
p559
(lp560
VM00787
p561
asVC02350
p562
(lp563
g220
asVC05453
p564
(lp565
g14
asVC00590
p566
(lp567
g170
asVC04188
p568
(lp569
g97
asVC05450
p570
(lp571
g14
asVC05455
p572
(lp573
g14
asVC05454
p574
(lp575
g14
asVC01083
p576
(lp577
g253
asVC11984
p578
(lp579
g277
asVC02465
p580
(lp581
g493
asVC00059
p582
(lp583
g166
aVM00595
p584
ag167
asVC02463
p585
(lp586
g52
asVC07836
p587
(lp588
VM00064
p589
asVCarbamoyl phosphate
p590
(lp591
g454
ag67
asVC07838
p592
(lp593
g589
asVC18629
p594
(lp595
VM00781
p596
asVC09817
p597
(lp598
g266
asVC09816
p599
(lp600
g266
asVC00269
p601
(lp602
VM00093
p603
asVC00498
p604
(lp605
g253
asVC09813
p606
(lp607
g185
asVC09812
p608
(lp609
g185
asVC09811
p610
(lp611
g185
asVC00263
p612
(lp613
g223
aVM00018
p614
asVC06658
p615
(lp616
g82
asVC11537
p617
(lp618
g6
asVC00509
p619
(lp620
g171
aVM00138
p621
asVC00267
p622
(lp623
VM00001
p624
aVM00549
p625
asVC09819
p626
(lp627
g266
asVC00264
p628
(lp629
g322
asVC06760
p630
(lp631
g257
asVC00468
p632
(lp633
g551
asVC06762
p634
(lp635
g257
asVC19815
p636
(lp637
VM00788
p638
asVC11983
p639
(lp640
g277
asVC00460
p641
(lp642
g228
asVC03319
p643
(lp644
VM00793
p645
asVC20942
p646
(lp647
g561
asVC00499
p648
(lp649
g220
asVC00328
p650
(lp651
VM00038
p652
asVC04642
p653
(lp654
g430
asVC00280
p655
(lp656
g551
asVC00283
p657
(lp658
g166
ag167
asVC00322
p659
(lp660
g117
aVM00032
p661
aVM00433
p662
ag498
asVC00323
p663
(lp664
g170
ag172
asVC00320
p665
(lp666
g584
asVC00327
p667
(lp668
g454
asVC21125
p669
(lp670
VM00805
p671
asVC21124
p672
(lp673
g671
aVM00808
p674
asVC21127
p675
(lp676
g671
asVC21126
p677
(lp678
g671
asVC00842
p679
(lp680
g645
asVC05427
p681
(lp682
g295
asVC11909
p683
(lp684
VM00797
p685
asVC00088
p686
(lp687
VM00528
p688
ag64
aVM00530
p689
aVM00531
p690
aVM00804
p691
asVC21128
p692
(lp693
g671
asVC04691
p694
(lp695
g37
asVC01561
p696
(lp697
VM00103
p698
asVC18026
p699
(lp700
g30
asVC06505
p701
(lp702
g163
asVC16338
p703
(lp704
g393
asVC02191
p705
(lp706
g52
asVC01209
p707
(lp708
VM00082
p709
aVM00572
p710
asVC00218
p711
(lp712
g142
asVC02140
p713
(lp714
g289
asVCephamycin C
p715
(lp716
g151
asVC21207
p717
(lp718
VM00814
p719
asVC05421
p720
(lp721
g260
asVC00605
p722
(lp723
g322
asVC01204
p724
(lp725
VM00132
p726
asVC01205
p727
(lp728
g308
asVC00036
p729
(lp730
VM00003
p731
ag21
ag312
ag22
ag23
ag24
ag135
ag26
ag27
ag28
ag29
ag31
ag33
ag34
asVC06398
p732
(lp733
g589
aVM00080
p734
asVC00035
p735
(lp736
VM00050
p737
asVC00032
p738
(lp739
g52
asVC00033
p740
(lp741
g141
ag160
asVC05848
p742
(lp743
g385
ag386
asVC05817
p744
(lp745
g358
asVC00135
p746
(lp747
g490
ag464
asVC00134
p748
(lp749
VM00133
p750
aVM00134
p751
aVM00135
p752
aVM00136
p753
asVC11908
p754
(lp755
VM00796
p756
asVC00132
p757
(lp758
VM00174
p759
ag140
asVC06397
p760
(lp761
g589
asVC00130
p762
(lp763
g368
ag235
ag737
asVC06569
p764
(lp765
g151
asVC03427
p766
(lp767
g260
asVC20977
p768
(lp769
g554
asVC06098
p770
(lp771
g411
asVC20975
p772
(lp773
g554
asVC12126
p774
(lp775
VM00094
p776
ag337
asVC03223
p777
(lp778
VM00636
p779
asVC13453
p780
(lp781
g411
asVC03722
p782
(lp783
g107
asVC03227
p784
(lp785
g652
asVC16666
p786
(lp787
g172
asVC00565
p788
(lp789
g142
asVCholoyl-CoA
p790
(lp791
g14
ag15
asVC15797
p792
(lp793
g375
asVC12389
p794
(lp795
g506
asVC13455
p796
(lp797
g411
asVC00043
p798
(lp799
g292
asVC00042
p800
(lp801
g21
ag22
aVM00027
p802
aVM00148
p803
aVM00149
p804
aVM00150
p805
ag28
ag31
ag32
ag33
asVC00041
p806
(lp807
g26
asVC00040
p808
(lp809
g322
asVC00047
p810
(lp811
g480
ag117
aVM00031
p812
ag661
ag481
ag482
ag483
asVC01841
p813
(lp814
g477
asVC00044
p815
(lp816
g737
ag43
ag100
asVC02646
p817
(lp818
g170
asVC00049
p819
(lp820
g480
ag223
ag614
ag454
ag280
ag107
ag309
ag135
ag26
ag481
ag482
ag483
asVC00048
p821
(lp822
g23
ag29
ag30
ag32
ag18
ag34
asVC05502
p823
(lp824
VM00107
p825
asVC02642
p826
(lp827
g308
asVC11963
p828
(lp829
g277
asVC12323
p830
(lp831
g130
asVC15613
p832
(lp833
g14
asVC18323
p834
(lp835
g32
asVC17367
p836
(lp837
VM00675
p838
asVC14899
p839
(lp840
VM00550
p841
asVC19153
p842
(lp843
g447
asVC11961
p844
(lp845
g277
asVC03871
p846
(lp847
g482
asVC20564
p848
(lp849
g380
asVC08491
p850
(lp851
g393
asVC01101
p852
(lp853
g841
asVC01100
p854
(lp855
g490
asVC01103
p856
(lp857
g67
asVC01102
p858
(lp859
g614
asVC01107
p860
(lp861
g529
asVC05557
p862
(lp863
g150
ag151
asVC02923
p864
(lp865
g365
ag3
asVCalcidiol
p866
(lp867
g698
asVCoenzyme B
p868
(lp869
g142
ag40
asVC03033
p870
(lp871
g315
ag439
asVCoenzyme F420-1
p872
(lp873
g447
asVC05122
p874
(lp875
g15
asVC12386
p876
(lp877
g506
asVC03680
p878
(lp879
g464
asVC20604
p880
(lp881
g380
asVC11968
p882
(lp883
g277
asVC15503
p884
(lp885
g302
asVC20403
p886
(lp887
g477
asVC06007
p888
(lp889
g202
ag203
asVC06006
p890
(lp891
g202
ag203
asVC05447
p892
(lp893
g14
asVC06633
p894
(lp895
g283
asVC06630
p896
(lp897
g283
asVC08057
p898
(lp899
g94
asVC06731
p900
(lp901
g3
asVC06730
p902
(lp903
g3
ag257
asVC04308
p904
(lp905
g328
asVC16254
p906
(lp907
g21
ag22
asVC00956
p908
(lp909
g117
ag812
ag661
ag150
ag151
asVC16150
p910
(lp911
g122
aVM00811
p912
asVC04302
p913
(lp914
VM00023
p915
asVC01780
p916
(lp917
g289
asVC02426
p918
(lp919
g532
asVC05345
p920
(lp921
g624
ag731
ag175
aVM00007
p922
ag263
aVM00580
p923
asVC00222
p924
(lp925
g196
ag197
ag32
asVC12112
p926
(lp927
VM00815
p928
asVC00423
p929
(lp930
g170
ag171
ag172
ag256
asVC00422
p931
(lp932
g318
ag319
asVC00426
p933
(lp934
VM00076
p935
asVC00429
p936
(lp937
g308
asVC00811
p938
(lp939
g170
ag171
ag172
asVC11472
p940
(lp941
g589
asVC01036
p942
(lp943
g211
asVC20976
p944
(lp945
g554
asVC01033
p946
(lp947
g277
asVC16317
p948
(lp949
g393
asVC12491
p950
(lp951
VM00790
p952
asVC03453
p953
(lp954
g257
asVC00385
p955
(lp956
g220
asVC04454
p957
(lp958
g43
asVC05819
p959
(lp960
g238
asVC15801
p961
(lp962
g375
asVC05840
p963
(lp964
g107
asVC05460
p965
(lp966
g14
asVC15802
p967
(lp968
g375
asVC05467
p969
(lp970
g14
asVC00037
p971
(lp972
g29
ag18
asVC21086
p973
(lp974
g561
asVC15808
p975
(lp976
g79
asVC21085
p977
(lp978
g561
asVC05379
p979
(lp980
g34
asVC12416
p981
(lp982
g596
asVC03972
p983
(lp984
g480
ag481
ag482
ag483
asVC02515
p985
(lp986
g493
asVC11907
p987
(lp988
g645
ag9
ag91
ag756
ag685
aVM00798
p989
aVM00799
p990
ag73
aVM00801
p991
aVM00802
p992
aVM00803
p993
asVC11536
p994
(lp995
g6
asVC05539
p996
(lp997
g481
asVC00253
p998
(lp999
g76
asVC00399
p1000
(lp1001
g385
ag386
ag241
ag242
ag243
ag803
aVM00151
p1002
aVM00152
p1003
asVC00251
p1004
(lp1005
g37
ag915
ag436
aVM00025
p1006
ag358
ag385
asVC00257
p1007
(lp1008
VM00308
p1009
aVM00309
p1010
aVM00633
p1011
asVC00254
p1012
(lp1013
g436
ag1006
ag70
ag561
asVC00255
p1014
(lp1015
g43
asVC05337
p1016
(lp1017
g14
asVC00258
p1018
(lp1019
g1010
ag29
ag18
asVC00390
p1020
(lp1021
g241
ag242
ag243
ag803
ag1002
ag1003
asVC00184
p1022
(lp1023
VM00344
p1024
asVC16597
p1025
(lp1026
g498
asVC00395
p1027
(lp1028
g150
asVC04390
p1029
(lp1030
g481
asVC01081
p1031
(lp1032
VM00127
p1033
asVC03287
p1034
(lp1035
VM00015
p1036
asVC01732
p1037
(lp1038
g34
asVC00558
p1039
(lp1040
VM00631
p1041
asVC12370
p1042
(lp1043
VM00783
p1044
asVC00493
p1045
(lp1046
g37
asVC00887
p1047
(lp1048
g64
asVC01089
p1049
(lp1050
g433
asVC00885
p1051
(lp1052
g358
asVC07214
p1053
(lp1054
g55
asVC07213
p1055
(lp1056
g55
asVC00882
p1057
(lp1058
g501
asVC09820
p1059
(lp1060
g266
asVC00880
p1061
(lp1062
g1010
aVM00552
p1063
ag1011
asVC06866
p1064
(lp1065
g172
asVC00078
p1066
(lp1067
g915
ag325
ag652
ag250
ag380
ag269
ag952
ag671
ag674
asVC00079
p1068
(lp1069
g436
ag170
ag171
ag172
asVC01953
p1070
(lp1071
g825
ag551
asVCortisone
p1072
(lp1073
g331
asVC00072
p1074
(lp1075
g263
ag439
ag841
asVC00073
p1076
(lp1077
g223
ag97
ag224
ag180
ag193
asVC03283
p1078
(lp1079
g280
asVC00379
p1080
(lp1081
g315
asVC00077
p1082
(lp1083
g61
ag454
ag751
aVM00763
p1084
ag94
asVC00074
p1085
(lp1086
g624
aVM00002
p1087
ag731
ag37
ag24
ag25
ag135
ag26
ag27
ag28
ag29
ag6
ag31
asVC00075
p1088
(lp1089
g467
asVC20582
p1090
(lp1091
g498
asVC12368
p1092
(lp1093
g1044
asVC19687
p1094
(lp1095
g269
ag952
asVC07209
p1096
(lp1097
g55
asVC01297
p1098
(lp1099
g122
asVC06054
p1100
(lp1101
g49
asVC16186
p1102
(lp1103
g841
asVC19764
p1104
(lp1105
g260
asVC19765
p1106
(lp1107
g260
asVCortisol
p1108
(lp1109
g331
asVC00086
p1110
(lp1111
g454
ag220
asVC00085
p1112
(lp1113
g103
aVM00167
p1114
ag1024
aVM00345
p1115
asVC00084
p1116
(lp1117
g256
ag257
asVC00083
p1118
(lp1119
g709
ag197
ag32
aVM00415
p1120
ag838
ag46
aVM00775
p1121
aVM00776
p1122
asVC00082
p1123
(lp1124
g1006
ag170
ag70
ag208
ag493
ag211
ag302
asVC00080
p1125
(lp1126
g241
ag242
ag243
ag1002
ag1003
asVC04640
p1127
(lp1128
g368
asVC03175
p1129
(lp1130
g37
asVC20400
p1131
(lp1132
g477
asVC08614
p1133
(lp1134
g411
asVC20948
p1135
(lp1136
g1084
asVC00671
p1137
(lp1138
g202
ag203
asVC01921
p1139
(lp1140
g15
asVC01251
p1141
(lp1142
g117
ag662
ag498
asVC01250
p1143
(lp1144
g61
asVC06055
p1145
(lp1146
g49
asVC20940
p1147
(lp1148
g561
asVC20941
p1149
(lp1150
g561
asVC01929
p1151
(lp1152
g490
asVC05933
p1153
(lp1154
g94
asVCoproporphyrinogen III
p1155
(lp1156
g52
asVC01885
p1157
(lp1158
g319
asVC05936
p1159
(lp1160
g752
asVC00106
p1161
(lp1162
g308
asVC19814
p1163
(lp1164
g638
asVCaffeate
p1165
(lp1166
g170
asVC00103
p1167
(lp1168
g439
ag625
ag253
aVM00632
p1169
ag645
asVC00100
p1170
(lp1171
g196
ag30
ag197
ag32
ag257
ag334
ag283
asVC00101
p1172
(lp1173
g100
aVM00140
p1174
aVM00141
p1175
ag136
asVC01946
p1176
(lp1177
g1121
asVC15556
p1178
(lp1179
g43
asVC21216
p1180
(lp1181
g928
asVC20404
p1182
(lp1183
g477
asVC00108
p1184
(lp1185
g915
ag474
aVM00637
p1186
asVC00109
p1187
(lp1188
g202
ag286
ag203
asVC01051
p1189
(lp1190
g52
asVC06749
p1191
(lp1192
g214
asVC02094
p1193
(lp1194
g260
ag411
asVC00522
p1195
(lp1196
g309
asVC00199
p1197
(lp1198
g175
ag176
ag922
ag112
ag43
ag103
ag104
ag1114
ag923
asVC20376
p1199
(lp1200
g710
asVC05608
p1201
(lp1202
g170
asVC01941
p1203
(lp1204
g130
asVC10434
p1205
(lp1206
g170
asVC08060
p1207
(lp1208
g474
asVC05600
p1209
(lp1210
g430
asVC20374
p1211
(lp1212
g710
asVC02079
p1213
(lp1214
g671
asVC12420
p1215
(lp1216
g596
asVC00173
p1217
(lp1218
VM00573
p1219
asVC02483
p1220
(lp1221
g295
asVC00170
p1222
(lp1223
g97
asVC14151
p1224
(lp1225
g295
asVC14152
p1226
(lp1227
g295
asVC00178
p1228
(lp1229
g308
asVC14154
p1230
(lp1231
g295
asVC14155
p1232
(lp1233
g295
asVC14156
p1234
(lp1235
g295
asVCDP-ethanolamine
p1236
(lp1237
VM00092
p1238
asVC06575
p1239
(lp1240
VM00419
p1241
asVC06577
p1242
(lp1243
g1241
asVC06576
p1244
(lp1245
g1241
asVC04348
p1246
(lp1247
g29
ag30
ag32
ag34
asVC03090
p1248
(lp1249
g368
asVC11998
p1250
(lp1251
g1122
asVC11916
p1252
(lp1253
g989
asVCyclohex-1-ene-1-carboxyl-CoA
p1254
(lp1255
g185
asVC06579
p1256
(lp1257
g423
asVC06578
p1258
(lp1259
g1241
ag423
asVC06628
p1260
(lp1261
VM00780
p1262
asVC06714
p1263
(lp1264
g214
asVC17339
p1265
(lp1266
g14
asVChondroitin 4-sulfate
p1267
(lp1268
VM00077
p1269
asVC04556
p1270
(lp1271
g1033
asVC11434
p1272
(lp1273
VM00096
p1274
asVC11435
p1275
(lp1276
g1274
asVC11436
p1277
(lp1278
g1274
asVC11437
p1279
(lp1280
g1274
asVC00179
p1281
(lp1282
g750
asVC01179
p1283
(lp1284
g1006
ag211
ag447
asVC04823
p1285
(lp1286
g368
asVC14153
p1287
(lp1288
g295
asVC04824
p1289
(lp1290
g292
asVC04411
p1291
(lp1292
g188
asVC01172
p1293
(lp1294
g175
ag176
ag177
asVC00440
p1295
(lp1296
g136
asVC03393
p1297
(lp1298
g49
asVC01176
p1299
(lp1300
g331
asVC00543
p1301
(lp1302
g142
asVC16336
p1303
(lp1304
g393
asVC15650
p1305
(lp1306
g97
asVC15651
p1307
(lp1308
g97
asVC15795
p1309
(lp1310
g375
asVC15794
p1311
(lp1312
g375
asVC03004
p1313
(lp1314
g302
asVC15796
p1315
(lp1316
g375
asVC05501
p1317
(lp1318
g825
asVC05500
p1319
(lp1320
g825
asVC21206
p1321
(lp1322
g719
asVC11455
p1323
(lp1324
g79
asVC20607
p1325
(lp1326
g380
asVC11460
p1327
(lp1328
g91
asVC21208
p1329
(lp1330
g719
asVC00681
p1331
(lp1332
g318
asVC00680
p1333
(lp1334
g480
ag481
ag482
ag483
asVC00683
p1335
(lp1336
g30
ag197
ag32
ag334
ag283
ag1122
asVC00682
p1337
(lp1338
g257
asVC01286
p1339
(lp1340
g1063
ag1011
asVC16330
p1341
(lp1342
g393
asVC01284
p1343
(lp1344
g726
asVC05272
p1345
(lp1346
g342
asVC05378
p1347
(lp1348
g624
ag731
asVC00448
p1349
(lp1350
VM00364
p1351
aVM00365
p1352
aVM00366
p1353
aVM00367
p1354
ag477
asVC02557
p1355
(lp1356
g46
ag1121
asVC00828
p1357
(lp1358
g358
ag238
asVC20238
p1359
(lp1360
g30
asVC20530
p1361
(lp1362
g457
asVC00735
p1363
(lp1364
g331
asVC00512
p1365
(lp1366
g266
ag214
asVC00514
p1367
(lp1368
VM00061
p1369
asVC12424
p1370
(lp1371
g596
asVC01673
p1372
(lp1373
g698
asVC00921
p1374
(lp1375
g100
asVC00925
p1376
(lp1377
VM00078
p1378
asVC04294
p1379
(lp1380
g1033
asVC00927
p1381
(lp1382
g130
asVC00458
p1383
(lp1384
g228
asVC00459
p1385
(lp1386
g228
asVC04896
p1387
(lp1388
g490
asVC20738
p1389
(lp1390
g295
asVCyclohexane-1-carboxylate
p1391
(lp1392
g185
asVC04488
p1393
(lp1394
g141
ag40
asVC00105
p1395
(lp1396
g67
ag467
asVC12621
p1397
(lp1398
g256
asVC12622
p1399
(lp1400
g256
asVC12623
p1401
(lp1402
g256
asVC12624
p1403
(lp1404
g256
asVC12378
p1405
(lp1406
g1044
asVC00338
p1407
(lp1408
g734
asVC15973
p1409
(lp1410
g21
ag22
ag408
asVC15972
p1411
(lp1412
g21
ag22
ag408
asVC15975
p1413
(lp1414
g408
asVC01912
p1415
(lp1416
g283
asVC01935
p1417
(lp1418
g253
asVC00333
p1419
(lp1420
VM00081
p1421
ag532
ag1041
asVC00332
p1422
(lp1423
g661
ag433
ag529
ag30
ag31
ag197
asVC20639
p1424
(lp1425
g94
asVC00334
p1426
(lp1427
g802
ag752
ag753
asVC00337
p1428
(lp1429
g67
asVC21110
p1430
(lp1431
g952
asVClavaminic acid
p1432
(lp1433
g82
asVC03824
p1434
(lp1435
g652
asVC04121
p1436
(lp1437
g112
asVC02501
p1438
(lp1439
g257
asVC05435
p1440
(lp1441
g260
asVC21131
p1442
(lp1443
g674
asVC05437
p1444
(lp1445
g79
aVM00102
p1446
asVC04268
p1447
(lp1448
g685
ag719
asVC07303
p1449
(lp1450
g172
asVC05432
p1451
(lp1452
g260
asVC00634
p1453
(lp1454
g1269
asVC00688
p1455
(lp1456
g645
asVC00636
p1457
(lp1458
g263
asVCaffeoyl-CoA
p1459
(lp1460
g170
ag172
asVC00630
p1461
(lp1462
g172
ag277
asVC00631
p1463
(lp1464
g624
ag1087
ag731
ag29
asVC01598
p1465
(lp1466
g325
asVC02526
p1467
(lp1468
g405
asVC20737
p1469
(lp1470
g295
asVC18035
p1471
(lp1472
g989
asVC18034
p1473
(lp1474
g992
asVC18033
p1475
(lp1476
g992
asVC18032
p1477
(lp1478
g992
asVC18031
p1479
(lp1480
g993
asVC18030
p1481
(lp1482
g993
asVC01438
p1483
(lp1484
g759
ag140
ag141
ag142
ag40
asVC01606
p1485
(lp1486
g398
ag779
asVC00204
p1487
(lp1488
g1369
ag1009
ag1010
ag1041
ag1011
asVC00207
p1489
(lp1490
g433
asVC12248
p1491
(lp1492
g220
asVC04554
p1493
(lp1494
g14
asVC00025
p1495
(lp1496
g1036
ag802
ag61
ag464
aVM00118
p1497
ag52
ag18
ag34
ag1084
asVC00024
p1498
(lp1499
g21
ag312
ag23
ag196
ag117
ag709
ag322
ag433
ag529
ag28
aVM00307
p1500
ag141
ag30
ag31
ag197
ag32
ag136
ag137
ag188
ag662
ag256
ag257
ag160
ag498
ag33
ag34
asVC00148
p1501
(lp1502
g1036
ag380
asVC00026
p1503
(lp1504
g21
ag312
ag22
ag117
ag28
ag662
ag18
ag498
ag33
ag34
asVC00021
p1505
(lp1506
g224
ag193
asVC00020
p1507
(lp1508
g235
asVC11915
p1509
(lp1510
g989
asVC00022
p1511
(lp1512
g624
ag1087
ag177
ag202
ag1369
ag1274
ag25
ag26
ag27
ag28
ag1500
ag1009
ag1010
ag31
ag32
ag286
ag257
ag33
ag1041
ag1011
asVC00143
p1513
(lp1514
g1174
ag1175
ag136
asVC11919
p1515
(lp1516
g73
asVC00141
p1517
(lp1518
g202
ag309
ag188
asVC00029
p1519
(lp1520
g315
ag439
ag625
ag1169
asVC00144
p1521
(lp1522
g737
asVC04525
p1523
(lp1524
g1446
asVC01079
p1525
(lp1526
g52
asVC06082
p1527
(lp1528
g411
asVC11925
p1529
(lp1530
g756
asVC05807
p1531
(lp1532
g385
asVC18314
p1533
(lp1534
g779
asVC11981
p1535
(lp1536
g277
asVC03231
p1537
(lp1538
g408
asVC20407
p1539
(lp1540
g477
asVC03233
p1541
(lp1542
g398
asVC03232
p1543
(lp1544
VM00020
p1545
asVC02737
p1546
(lp1547
g603
asVC00312
p1548
(lp1549
g315
asVC05488
p1550
(lp1551
g331
asVC06318
p1552
(lp1553
VM00624
p1554
asVC02739
p1555
(lp1556
g490
asVC06657
p1557
(lp1558
g82
asVC05297
p1559
(lp1560
g551
asVC01245
p1561
(lp1562
g420
asVC00705
p1563
(lp1564
g228
asVC11821
p1565
(lp1566
g220
asVC20563
p1567
(lp1568
g380
asVC02632
p1569
(lp1570
g423
asVC06251
p1571
(lp1572
g292
asVC20949
p1573
(lp1574
g1084
asVC11980
p1575
(lp1576
g277
asVC02637
p1577
(lp1578
g37
asVC11982
p1579
(lp1580
g277
asVC01243
p1581
(lp1582
VM00131
p1583
ag726
asVC01825
p1584
(lp1585
g263
asVC18353
p1586
(lp1587
VM00779
p1588
asVC18356
p1589
(lp1590
g1588
asVC00315
p1591
(lp1592
g750
asVC18354
p1593
(lp1594
g1588
asVC13433
p1595
(lp1596
g411
asVC15606
p1597
(lp1598
g97
asVC15603
p1599
(lp1600
g804
ag805
asVChenodeoxycholoyl-CoA
p1601
(lp1602
g14
asVC18295
p1603
(lp1604
g1262
asVC02939
p1605
(lp1606
g408
asVC00090
p1607
(lp1608
g365
ag127
ag3
ag272
ag257
ag1186
asVC11964
p1609
(lp1610
g277
asVC13431
p1611
(lp1612
g411
asVC11962
p1613
(lp1614
g277
asVC04752
p1615
(lp1616
g1033
asVC04751
p1617
(lp1618
g368
asVC05904
p1619
(lp1620
g621
asVC01134
p1621
(lp1622
g501
asVC12382
p1623
(lp1624
g506
asVC12381
p1625
(lp1626
g554
asVC01137
p1627
(lp1628
g97
ag750
asVC12387
p1629
(lp1630
g506
asVC02934
p1631
(lp1632
g776
ag337
asVC02937
p1633
(lp1634
g250
asVC12384
p1635
(lp1636
g506
asVC15986
p1637
(lp1638
g122
asVC03043
p1639
(lp1640
g122
asVC20876
p1641
(lp1642
g1120
asVC20877
p1643
(lp1644
g1120
asVC00755
p1645
(lp1646
g172
asVC06032
p1647
(lp1648
g286
asVCDP-choline
p1649
(lp1650
VM00090
p1651
asVC00094
p1652
(lp1653
g166
ag167
asVC20878
p1654
(lp1655
g1120
asVC20879
p1656
(lp1657
g1120
asVC12415
p1658
(lp1659
g596
asVC02220
p1660
(lp1661
g652
asVC15699
p1662
(lp1663
g753
asVC04462
p1664
(lp1665
g480
asVCMP-3-deoxy-D-manno-octulosonate
p1666
(lp1667
g112
asVC20605
p1668
(lp1669
g380
asVC02741
p1670
(lp1671
g490
asVC04592
p1672
(lp1673
g365
asVC03289
p1674
(lp1675
g439
asVC20373
p1676
(lp1677
g710
asVC20372
p1678
(lp1679
g710
asVC06627
p1680
(lp1681
g1262
asVC04314
p1682
(lp1683
g58
asVC16516
p1684
(lp1685
g250
asVC16517
p1686
(lp1687
g250
asVC20375
p1688
(lp1689
g710
asVC01001
p1690
(lp1691
g40
asVC06624
p1692
(lp1693
g1262
asVC16518
p1694
(lp1695
g250
asVC16519
p1696
(lp1697
g358
asVC06629
p1698
(lp1699
g1262
asVC04091
p1700
(lp1701
g365
asVC17366
p1702
(lp1703
g838
asVC03206
p1704
(lp1705
g1262
asVC00805
p1706
(lp1707
g58
aVM00638
p1708
asVC00800
p1709
(lp1710
g315
ag439
asVC16335
p1711
(lp1712
g393
asVC01056
p1713
(lp1714
g122
asVC08591
p1715
(lp1716
g411
asVC04895
p1717
(lp1718
g100
asVC00418
p1719
(lp1720
g529
asVC04916
p1721
(lp1722
g490
asVC04919
p1723
(lp1724
g292
asVC00415
p1725
(lp1726
g100
asVC00416
p1727
(lp1728
g318
ag603
asVC00417
p1729
(lp1730
g23
ag28
ag34
asVC00410
p1731
(lp1732
g825
ag289
ag331
asVC01005
p1733
(lp1734
g1545
asVC08061
p1735
(lp1736
g474
asVC01213
p1737
(lp1738
g30
ag197
ag32
ag334
asVC15767
p1739
(lp1740
g753
asVC06400
p1741
(lp1742
g253
asVC21154
p1743
(lp1744
g912
asVC21156
p1745
(lp1746
g719
asVC01794
p1747
(lp1748
g14
ag15
asVC19939
p1749
(lp1750
g477
asVC01226
p1751
(lp1752
g393
asVC21093
p1753
(lp1754
g638
asVC04002
p1755
(lp1756
g117
ag662
ag498
asVConiferyl aldehyde
p1757
(lp1758
g170
asVC04006
p1759
(lp1760
g1583
asVCampesterol
p1761
(lp1762
g375
asVC17696
p1763
(lp1764
g928
asVC17697
p1765
(lp1766
g928
asVC06802
p1767
(lp1768
g719
asVC17692
p1769
(lp1770
g719
asVC02686
p1771
(lp1772
g88
asVC17691
p1773
(lp1774
g719
ag928
asVC03263
p1775
(lp1776
g52
asVC16588
p1777
(lp1778
g498
asVC21204
p1779
(lp1780
g719
asVC07478
p1781
(lp1782
g257
asVC00244
p1783
(lp1784
g64
ag689
ag690
ag691
asVC00249
p1785
(lp1786
VM00086
p1787
asVC16583
p1788
(lp1789
g498
asVC20527
p1790
(lp1791
g457
asVC16589
p1792
(lp1793
g498
asVC01272
p1794
(lp1795
g420
ag1583
asVC12367
p1796
(lp1797
g1044
asVC04732
p1798
(lp1799
g43
ag447
asVC12000
p1800
(lp1801
g46
asVC00966
p1802
(lp1803
g309
asVC01724
p1804
(lp1805
g79
asVC12369
p1806
(lp1807
g1044
asVC01092
p1808
(lp1809
VM00123
p1810
ag1219
aVM00577
p1811
asVC12204
p1812
(lp1813
g170
asVCholesta-5,7-dien-3beta-ol
p1814
(lp1815
g698
asVC00068
p1816
(lp1817
g1033
asVC00628
p1818
(lp1819
g1708
asVC00137
p1820
(lp1821
g1583
asVC00345
p1822
(lp1823
g175
ag176
ag177
asVC00346
p1824
(lp1825
g1238
ag85
asVC21205
p1826
(lp1827
g719
asVC00061
p1828
(lp1829
g43
asVC20651
p1830
(lp1831
g94
asVC00063
p1832
(lp1833
g467
ag228
asVC00062
p1834
(lp1835
g454
ag145
ag750
ag751
ag82
ag130
ag94
asVC00065
p1836
(lp1837
g1545
ag351
ag224
ag776
ag225
ag29
ag18
ag130
ag94
asVC00064
p1838
(lp1839
g368
ag67
asVC00067
p1840
(lp1841
g759
ag1024
ag1115
asVC11811
p1842
(lp1843
g1274
asVC04677
p1844
(lp1845
g368
asVC03648
p1846
(lp1847
g621
asVC04672
p1848
(lp1849
g393
asVC21028
p1850
(lp1851
g308
asVC21029
p1852
(lp1853
g308
asVC19701
p1854
(lp1855
g269
asVC19673
p1856
(lp1857
g710
asVC17694
p1858
(lp1859
g928
asVC04076
p1860
(lp1861
g117
ag661
asVC20956
p1862
(lp1863
g719
ag928
asVC12388
p1864
(lp1865
g506
asVC05923
p1866
(lp1867
g100
asVC05922
p1868
(lp1869
g100
asVC20951
p1870
(lp1871
g1084
asVC20950
p1872
(lp1873
g1084
asVC00748
p1874
(lp1875
g52
asVC06321
p1876
(lp1877
g3
asVC15602
p1878
(lp1879
g804
ag805
asVCitrate
p1880
(lp1881
g21
ag312
ag23
ag28
ag34
asVC02226
p1882
(lp1883
g286
asVC00669
p1884
(lp1885
g1497
asVC00668
p1886
(lp1887
g624
ag175
ag263
ag625
asVC01268
p1888
(lp1889
g43
asVC00666
p1890
(lp1891
g480
ag481
ag483
asVC00593
p1892
(lp1893
g6
asVC00988
p1894
(lp1895
g18
asVC00989
p1896
(lp1897
g31
ag197
asVC00114
p1898
(lp1899
g1651
aVM00555
p1900
asVC00117
p1901
(lp1902
g175
aVM00005
p1903
ag922
ag103
ag1114
ag923
asVC00116
p1904
(lp1905
g319
ag532
asVC00111
p1906
(lp1907
g624
ag1087
ag731
ag1024
ag1115
asVC00110
p1908
(lp1909
g305
asVC00112
p1910
(lp1911
g467
ag228
asVC00119
p1912
(lp1913
g1903
ag490
ag368
ag67
asVC00118
p1914
(lp1915
g624
ag1087
ag731
ag175
ag922
ag177
ag1369
ag1274
ag103
ag104
ag1114
ag1009
ag1063
ag1041
ag1011
ag82
asVC00230
p1916
(lp1917
g398
ag1554
ag779
asVC11928
p1918
(lp1919
g989
ag990
asVC03492
p1920
(lp1921
g501
asVC11922
p1922
(lp1923
g991
ag992
asVC12435
p1924
(lp1925
g1588
asVC11921
p1926
(lp1927
g990
asVC11926
p1928
(lp1929
g9
ag91
asVC11927
p1930
(lp1931
g990
ag991
asVC06589
p1932
(lp1933
g405
asVC19567
p1934
(lp1935
g912
asVC03160
p1936
(lp1937
g358
asVC06442
p1938
(lp1939
g280
asVCapsaicin
p1940
(lp1941
g172
asVC06654
p1942
(lp1943
g1262
asVC05610
p1944
(lp1945
g170
asVCoenzyme F420-0
p1946
(lp1947
g447
asVC02666
p1948
(lp1949
g170
asVCDP
p1950
(lp1951
g467
ag228
asVC00188
p1952
(lp1953
g614
ag203
asVC00189
p1954
(lp1955
g1238
asVC03240
p1956
(lp1957
g283
asVC00187
p1958
(lp1959
g79
ag14
ag825
asVC02700
p1960
(lp1961
g652
asVC05818
p1962
(lp1963
g358
asVC00183
p1964
(lp1965
g202
ag309
ag150
ag151
asVC03794
p1966
(lp1967
g235
asVC18630
p1968
(lp1969
g596
asVC06669
p1970
(lp1971
g838
asVC06587
p1972
(lp1973
g405
asVC01161
p1974
(lp1975
g430
asVC00011
p1976
(lp1977
g103
ag104
ag24
ag25
ag135
ag26
ag27
ag136
ag137
ag40
asVC04353
p1978
(lp1979
g302
asVC04352
p1980
(lp1981
g501
asVC01165
p1982
(lp1983
g1036
asVC01164
p1984
(lp1985
g79
ag698
asVC06582
p1986
(lp1987
g423
asVC02946
p1988
(lp1989
g752
asVC02947
p1990
(lp1991
g170
asVC00237
p1992
(lp1993
g136
ag137
asVC01040
p1994
(lp1995
g439
asVC00846
p1996
(lp1997
g272
asVC04409
p1998
(lp1999
g652
asVC20361
p2000
(lp2001
g912
asVC12422
p2002
(lp2003
g596
asVC12423
p2004
(lp2005
g596
asVC20377
p2006
(lp2007
g710
asVChorismate
p2008
(lp2009
g37
ag915
ag436
ag1006
ag358
ag385
asVC05103
p2010
(lp2011
g79
asVC19156
p2012
(lp2013
g447
asVC19155
p2014
(lp2015
g447
asVC19154
p2016
(lp2017
g447
asVC06148
p2018
(lp2019
g100
asVC05108
p2020
(lp2021
g79
asVC20760
p2022
(lp2023
g46
asVC12366
p2024
(lp2025
g1044
asVC12383
p2026
(lp2027
g506
asVC20825
p2028
(lp2029
g88
asVC02480
p2030
(lp2031
g272
asVC03012
p2032
(lp2033
g58
asVC02477
p2034
(lp2035
g295
asVC21210
p2036
(lp2037
g928
asVC15800
p2038
(lp2039
g375
asVC08579
p2040
(lp2041
g411
asVConiferyl alcohol
p2042
(lp2043
g170
asVC21219
p2044
(lp2045
g928
asVC21218
p2046
(lp2047
g928
asVC07479
p2048
(lp2049
g257
asVC01290
p2050
(lp2051
VM00066
p2052
asVC00596
p2053
(lp2054
g423
ag405
ag474
ag256
ag257
asVChromopyrrolate
p2055
(lp2056
g671
asVC00931
p2057
(lp2058
g52
asVC04327
p2059
(lp2060
g1033
asVC19846
p2061
(lp2062
g710
asVC00447
p2063
(lp2064
g103
ag1114
asVC00446
p2065
(lp2066
VM00554
p2067
ag1169
asVC00445
p2068
(lp2069
g1174
ag1175
ag136
asVC00441
p2070
(lp2071
g480
ag223
ag614
ag280
ag481
ag482
ag483
asVC16339
p2072
(lp2073
g393
asVC00836
p2074
(lp2075
g776
ag337
asVC07349
p2076
(lp2077
g671
asVC16334
p2078
(lp2079
g393
asVC00527
p2080
(lp2081
g661
asVC16332
p2082
(lp2083
g393
asVC11453
p2084
(lp2085
g1274
asVC00449
p2086
(lp2087
g117
ag661
asVC16331
p2088
(lp2089
g393
asVCoA
p2090
(lp2091
g501
asVC01024
p2092
(lp2093
g52
asVC00576
p2094
(lp2095
g1900
asVC00566
p2096
(lp2097
g28
asVC20378
p2098
(lp2099
g710
asVC17693
p2100
(lp2101
g719
asVC01190
p2102
(lp2103
g2052
asVC01197
p2104
(lp2105
g170
asVC01194
p2106
(lp2107
VM00065
p2108
ag420
asVC01909
p2109
(lp2110
g1810
ag1219
ag1811
asVC06566
p2111
(lp2112
g151
asVC19631
p2113
(lp2114
g912
asVCholic acid
p2115
(lp2116
g14
ag15
asVC00341
p2117
(lp2118
g1351
ag1352
ag1353
ag1354
asVCholesterol
p2119
(lp2120
g79
ag14
ag825
asVC04133
p2121
(lp2122
g61
asVC20525
p2123
(lp2124
g457
asVC16154
p2125
(lp2126
g440
asVC21109
p2127
(lp2128
g952
asVC03838
p2129
(lp2130
g368
asVC11911
p2131
(lp2132
g685
asVC03082
p2133
(lp2134
g480
ag223
ag614
ag280
ag481
ag482
ag483
asVC04052
p2135
(lp2136
g430
asVC03056
p2137
(lp2138
g122
asVC03939
p2139
(lp2140
g709
aVM00083
p2141
asVC00788
p2142
(lp2143
g208
asVC00621
p2144
(lp2145
VM00072
p2146
asVC01227
p2147
(lp2148
g551
asVC00627
p2149
(lp2150
g49
asVC11354
p2151
(lp2152
g257
asVC00624
p2153
(lp2154
g61
asVC00780
p2155
(lp2156
g325
asVC06561
p2157
(lp2158
g171
asVC00785
p2159
(lp2160
g464
asVC04582
p2161
(lp2162
g97
asVC06570
p2163
(lp2164
g1262
asVC19152
p2165
(lp2166
g447
asVCalcitriol
p2167
(lp2168
g698
asVC00231
p2169
(lp2170
g175
ag922
ag315
ag841
asVC00232
p2171
(lp2172
g802
ag31
ag197
ag122
ag912
asVC00233
p2173
(lp2174
g408
ag188
asVC00234
p2175
(lp2176
g1174
ag1175
ag136
asVC00235
p2177
(lp2178
g529
ag1274
ag1351
ag1352
ag1353
ag1354
asVC00236
p2179
(lp2180
g624
ag1087
ag731
ag103
ag104
ag1009
ag1063
asVC00051
p2181
(lp2182
g1497
asVC00010
p2183
(lp2184
g501
asVC00158
p2185
(lp2186
g21
ag312
ag23
ag28
ag34
asVC20680
p2187
(lp2188
g532
asVC00014
p2189
(lp2190
g454
aVM00175
p2191
ag688
ag689
ag690
ag18
ag691
asVC00015
p2192
(lp2193
g467
asVC00016
p2194
(lp2195
g43
asVC00018
p2196
(lp2197
g49
asVC00019
p2198
(lp2199
g97
ag224
ag750
ag180
ag193
asVC00857
p2200
(lp2201
g107
asVC00053
p2202
(lp2203
g166
asVC00155
p2204
(lp2205
g223
ag224
ag225
ag193
asVC00154
p2206
(lp2207
g1787
ag342
ag776
ag337
asVC00157
p2208
(lp2209
g1651
ag328
asVC00156
p2210
(lp2211
g385
ag386
asVCycloserine
p2212
(lp2213
g94
asVC21071
p2214
(lp2215
g990
asVC03594
p2216
(lp2217
g14
asVC18202
p2218
(lp2219
g172
asVC20529
p2220
(lp2221
g457
asVC17700
p2222
(lp2223
g928
asVC00197
p2224
(lp2225
g624
ag1087
ag731
ag1545
ag103
ag104
ag1009
ag18
ag1063
ag1011
asVC03618
p2226
(lp2227
g34
asVC19845
p2228
(lp2229
g1810
ag710
ag1219
asVC19886
p2230
(lp2231
g812
asVC00058
p2232
(lp2233
g136
asVC03758
p2234
(lp2235
g208
asVC01063
p2236
(lp2237
g1810
ag185
ag1811
asVC03205
p2238
(lp2239
g289
asVC16600
p2240
(lp2241
g498
asVC04628
p2242
(lp2243
g140
ag141
ag142
ag40
asVC12385
p2244
(lp2245
g506
asVC03201
p2246
(lp2247
g88
asVC06322
p2248
(lp2249
g214
asVC02714
p2250
(lp2251
g752
asVC17355
p2252
(lp2253
g130
asVC14610
p2254
(lp2255
g272
asVC00655
p2256
(lp2257
g737
asVC00300
p2258
(lp2259
g145
asVC00719
p2260
(lp2261
g1900
asVC00718
p2262
(lp2263
g253
asVC11993
p2264
(lp2265
g1122
asVC11992
p2266
(lp2267
g1121
asVC11991
p2268
(lp2269
g1121
asVC00714
p2270
(lp2271
g1421
asVC11997
p2272
(lp2273
g1122
asVC01037
p2274
(lp2275
g1810
ag1219
ag1811
asVC00658
p2276
(lp2277
g322
asVC11994
p2278
(lp2279
g1122
asVC20630
p2280
(lp2281
g380
asVC01694
p2282
(lp2283
g1446
asVC17345
p2284
(lp2285
g14
asVC17346
p2286
(lp2287
g14
asVC17343
p2288
(lp2289
g14
asVC04722
p2290
(lp2291
g14
asVC11977
p2292
(lp2293
g277
asVC17552
p2294
(lp2295
g385
ag386
asVCholine
p2296
(lp2297
g1651
ag1900
asVC17559
p2298
(lp2299
g386
asVC04442
p2300
(lp2301
g177
ag1369
ag1009
ag1041
ag1011
asVC00817
p2302
(lp2303
g1041
asVC11979
p2304
(lp2305
g277
asVC11978
p2306
(lp2307
g277
asVC01124
p2308
(lp2309
g289
asVC06022
p2310
(lp2311
g292
asVC05662
p2312
(lp2313
g117
ag662
ag498
asVC06027
p2314
(lp2315
g30
ag32
ag34
asVC03506
p2316
(lp2317
g915
ag457
asVC06025
p2318
(lp2319
g292
asVC06024
p2320
(lp2321
g292
asVC05668
p2322
(lp2323
g196
ag197
ag32
asVC05143
p2324
(lp2325
g302
asVC06028
p2326
(lp2327
g30
ag32
ag34
asVC11999
p2328
(lp2329
g1122
asVC11910
p2330
(lp2331
g685
asVC00744
p2332
(lp2333
g46
asVC15987
p2334
(lp2335
g122
asVC03291
p2336
(lp2337
g841
asVC00307
p2338
(lp2339
g1651
asVC20045
p2340
(lp2341
g380
asVCrotonoyl-CoA
p2342
(lp2343
g661
ag30
ag31
ag197
asVC08062
p2344
(lp2345
g474
asVC03112
p2346
(lp2347
g151
asVC03114
p2348
(lp2349
g163
asVC12379
p2350
(lp2351
g1044
ag554
asVC06758
p2352
(lp2353
g55
asVC15700
p2354
(lp2355
g753
asVC11638
p2356
(lp2357
g49
asVC06757
p2358
(lp2359
g55
asVC06756
p2360
(lp2361
g55
asVC01304
p2362
(lp2363
g43
asVC00979
p2364
(lp2365
g351
ag94
asVC00978
p2366
(lp2367
g325
asVC01013
p2368
(lp2369
g196
ag197
ag32
asVC00877
p2370
(lp2371
g661
ag30
ag31
ag197
asVC01011
p2372
(lp2373
g32
asVC20953
p2374
(lp2375
g561
asVC17551
p2376
(lp2377
g385
asVC04246
p2378
(lp2379
g2141
asVC00974
p2380
(lp2381
g621
asVC11990
p2382
(lp2383
g1121
asVC03373
p2384
(lp2385
g368
ag1033
asVC01407
p2386
(lp2387
g365
ag127
asVC00407
p2388
(lp2389
g202
ag203
asVC00406
p2390
(lp2391
g170
ag172
asVC00001
p2392
(lp2393
g238
asVC11996
p2394
(lp2395
g1122
asVC03576
p2396
(lp2397
g6
ag40
asVChenodeoxycholate
p2398
(lp2399
g14
asVC06506
p2400
(lp2401
g163
asVC06507
p2402
(lp2403
g163
asVC15777
p2404
(lp2405
g1446
asVC11995
p2406
(lp2407
g1122
asVC01144
p2408
(lp2409
g661
ag31
ag197
asVCreatinine
p2410
(lp2411
g145
asVC15778
p2412
(lp2413
g1446
asVC06508
p2414
(lp2415
g163
asVC06509
p2416
(lp2417
g163
asVC00588
p2418
(lp2419
g1651
asVC05448
p2420
(lp2421
g14
asVC05449
p2422
(lp2423
g14
asVC01789
p2424
(lp2425
g375
asVC05560
p2426
(lp2427
g117
asVC05444
p2428
(lp2429
g14
asVC05445
p2430
(lp2431
g14
asVC05446
p2432
(lp2433
g14
asVC00581
p2434
(lp2435
g145
asVC05440
p2436
(lp2437
g1446
asVC05441
p2438
(lp2439
g1446
asVC05443
p2440
(lp2441
g698
asVC18710
p2442
(lp2443
g506
asVC05259
p2444
(lp2445
g342
asVC05258
p2446
(lp2447
g342
asVCob(I)yrinate a,c diamide
p2448
(lp2449
g163
asVC01118
p2450
(lp2451
g223
asVC00577
p2452
(lp2453
g1010
asVC01302
p2454
(lp2455
g915
asVC01301
p2456
(lp2457
g14
asVC01300
p2458
(lp2459
g100
asVC00573
p2460
(lp2461
VM00079
p2462
asVC00279
p2463
(lp2464
g175
ag922
ag37
ag49
ag103
ag1114
asVC00570
p2465
(lp2466
g1238
asVC00275
p2467
(lp2468
g263
asVC00905
p2469
(lp2470
g1369
asVC00984
p2471
(lp2472
g1169
asVCDP-diacylglycerol
p2473
(lp2474
g603
asVC06635
p2475
(lp2476
g283
asVC11989
p2477
(lp2478
g1121
asVC00479
p2479
(lp2480
g257
asVCatechol
p2481
(lp2482
g365
ag127
ag3
ag272
ag257
ag1186
asVC01054
p2483
(lp2484
g79
asVC00470
p2485
(lp2486
g1421
asVC06801
p2487
(lp2488
g1044
asVC19700
p2489
(lp2490
g269
asVC00295
p2491
(lp2492
g67
asVC00356
p2493
(lp2494
g408
ag433
ag529
asVC00355
p2495
(lp2496
g208
asVC01267
p2497
(lp2498
g490
asVC00353
p2499
(lp2500
g260
ag295
ag1351
ag1352
ag1353
ag1354
ag457
ag638
asVC00350
p2501
(lp2502
g328
ag1238
ag603
asVC21136
p2503
(lp2504
g674
asVC06019
p2505
(lp2506
g1115
ag923
asVC21134
p2507
(lp2508
g674
asVC21135
p2509
(lp2510
g674
asVC04666
p2511
(lp2512
g490
asVC15858
p2513
(lp2514
g260
asVC01269
p2515
(lp2516
g37
asVC18631
p2517
(lp2518
g596
asVC15857
p2519
(lp2520
g260
asVC03657
p2521
(lp2522
g358
asVCoenzyme M 7-mercaptoheptanoylthreonine-phosphate heterodisulfide
p2523
(lp2524
g140
ag141
ag142
ag40
asVC12434
p2525
(lp2526
g1588
asVC02273
p2527
(lp2528
g1421
asVC00632
p2529
(lp2530
g652
asVC04063
p2531
(lp2532
g1583
asVC06203
p2533
(lp2534
g58
asVC06202
p2535
(lp2536
g58
asVC02370
p2537
(lp2538
g405
asVC06620
p2539
(lp2540
g989
ag990
ag73
ag991
ag992
ag993
asVC03912
p2541
(lp2542
g1036
ag838
asVC18296
p2543
(lp2544
g1262
asVC06204
p2545
(lp2546
g58
asVC01596
p2547
(lp2548
g76
asVC00618
p2549
(lp2550
g315
asVC19569
p2551
(lp2552
g912
asVC06337
p2553
(lp2554
g1554
asVC01277
p2555
(lp2556
g420
asVC05385
p2557
(lp2558
g315
asVC01274
p2559
(lp2560
g40
asVC01273
p2561
(lp2562
g405
asVC05382
p2563
(lp2564
g175
ag922
ag589
ag103
ag1114
asVC17554
p2565
(lp2566
g386
asVC00120
p2567
(lp2568
g1810
ag1219
ag1811
asVC00122
p2569
(lp2570
g21
ag22
ag454
ag211
ag803
ag804
ag805
ag28
ag31
ag32
ag33
ag76
asVC00123
p2571
(lp2572
g408
asVC00124
p2573
(lp2574
g2067
ag1169
asVC00125
p2575
(lp2576
g1002
ag1003
asVC00126
p2577
(lp2578
g1002
ag1003
asVC00129
p2579
(lp2580
g529
ag1274
ag1351
ag1352
ag1353
ag1354
asVC02325
p2581
(lp2582
g170
asVC02656
p2583
(lp2584
g1811
asVCO
p2585
(lp2586
g136
ag137
asVC11933
p2587
(lp2588
g756
asVC12371
p2589
(lp2590
g1044
asVC16153
p2591
(lp2592
g440
asVC05745
p2593
(lp2594
g2141
asVC05744
p2595
(lp2596
g709
ag2141
asVC16156
p2597
(lp2598
g440
asVC16157
p2599
(lp2600
g440
asVC04618
p2601
(lp2602
g2141
asVC16155
p2603
(lp2604
g440
asVC16327
p2605
(lp2606
g393
asVC19889
p2607
(lp2608
g812
asVC19888
p2609
(lp2610
g812
asVC00052
p2611
(lp2612
g2067
ag1169
asVC05452
p2613
(lp2614
g14
asVC00195
p2615
(lp2616
g2052
ag88
ag776
ag337
asVC00194
p2617
(lp2618
g163
asVC19887
p2619
(lp2620
g812
asVC02305
p2621
(lp2622
g145
asVC00191
p2623
(lp2624
g315
ag1369
ag439
asVC05451
p2625
(lp2626
g14
asVC00192
p2627
(lp2628
g688
ag691
asVC18232
p2629
(lp2630
g76
asVC00354
p2631
(lp2632
g103
ag1114
ag1024
ag1115
asVC20513
p2633
(lp2634
g380
asVC16598
p2635
(lp2636
g498
asVC01112
p2637
(lp2638
g112
asVC01059
p2639
(lp2640
g76
ag912
asVC12421
p2641
(lp2642
g596
asVC04477
p2643
(lp2644
g726
asVC01115
p2645
(lp2646
g263
asVC04478
p2647
(lp2648
g112
asVCoenzyme F420
p2649
(lp2650
g447
asVC02811
p2651
(lp2652
g1262
asVCholine phosphate
p2653
(lp2654
g1651
asVC06026
p2655
(lp2656
g292
ag734
asVC18029
p2657
(lp2658
g993
asVC06157
p2659
(lp2660
g661
asVC04778
p2661
(lp2662
g163
asVC12436
p2663
(lp2664
g1588
asVC05138
p2665
(lp2666
g551
asVC12001
p2667
(lp2668
g46
asVC12002
p2669
(lp2670
g46
asVC12003
p2671
(lp2672
g46
asVC04807
p2673
(lp2674
g100
asVC19699
p2675
(lp2676
g269
asVC20859
p2677
(lp2678
g88
asVC03021
p2679
(lp2680
g2146
asVC06010
p2681
(lp2682
g202
asVC01216
p2683
(lp2684
g1010
ag1063
ag1011
asVC11920
p2685
(lp2686
g991
asVC00697
p2687
(lp2688
g2191
ag64
as.