(dp0
S'M00474'
p1
(lp2
S'K'
p3
aS'0'
p4
aS'7'
p5
aS'6'
p6
ag5
ag5
aS' '
p7
ag3
ag4
ag5
ag6
ag5
ag6
ag7
ag3
ag4
ag5
ag6
aS'8'
p8
ag5
asS'M00475'
p9
(lp10
g3
ag4
ag5
ag6
ag5
ag8
ag7
ag3
ag4
ag5
ag6
ag8
aS'9'
p11
asS'M00476'
p12
(lp13
g3
ag4
ag5
ag6
ag8
ag4
ag7
ag3
ag4
ag5
ag6
ag11
aS'1'
p14
asS'M00477'
p15
(lp16
g3
ag4
ag5
ag6
ag5
ag11
ag7
ag3
ag4
ag5
ag6
ag11
ag4
asS'M00470'
p17
(lp18
g3
ag14
ag14
ag6
aS'3'
p19
ag19
ag7
ag3
ag14
ag14
ag6
ag19
aS'4'
p20
asS'M00471'
p21
(lp22
g3
ag4
ag5
ag6
ag5
ag19
ag7
ag3
ag4
ag5
ag6
ag8
ag20
asS'M00472'
p23
(lp24
g3
ag4
ag5
ag6
ag5
ag20
ag7
ag3
ag4
ag5
ag6
ag8
aS'5'
p25
asS'M00473'
p26
(lp27
g3
ag4
ag5
ag6
ag5
ag25
ag7
ag3
ag4
ag5
ag6
ag8
ag6
asS'M00478'
p28
(lp29
g3
ag4
ag5
ag5
ag5
ag5
ag7
ag3
ag4
ag5
ag6
ag11
aS'2'
p30
asS'M00479'
p31
(lp32
g3
ag4
ag5
ag5
ag5
ag8
ag7
ag3
ag4
ag5
ag6
ag11
ag19
asS'M00276'
p33
(lp34
g3
ag4
ag30
ag5
ag11
ag19
aS'+'
p35
ag3
ag4
ag30
ag5
ag11
ag20
ag35
ag3
ag4
ag30
ag5
ag11
ag25
ag35
ag3
ag4
ag30
ag5
ag11
ag6
asS'M00277'
p36
(lp37
g3
ag4
ag30
ag5
ag20
ag20
ag35
ag3
ag4
ag30
ag5
ag20
ag25
ag35
ag3
ag4
ag30
ag5
ag20
ag6
ag35
ag3
ag4
ag30
ag5
ag20
ag5
asS'M00274'
p38
(lp39
g3
ag4
ag30
ag5
ag11
ag8
ag35
ag3
ag4
ag30
ag5
ag11
ag11
ag35
ag3
ag4
ag30
ag8
ag4
ag4
asS'M00275'
p40
(lp41
g3
ag4
ag30
ag5
ag25
ag11
ag35
ag3
ag4
ag30
ag5
ag6
ag4
ag35
ag3
ag4
ag30
ag5
ag6
ag14
asS'M00272'
p42
(lp43
g3
ag4
ag30
ag5
ag5
ag5
ag35
ag3
ag4
ag30
ag5
ag25
ag30
ag35
ag3
ag4
ag30
ag5
ag25
ag19
asS'M00273'
p44
(lp45
g3
ag4
ag30
ag5
ag6
ag8
ag35
ag3
ag4
ag30
ag5
ag6
ag11
ag35
ag3
ag4
ag30
ag5
ag5
ag4
asS'M00270'
p46
(lp47
S'('
p48
ag3
ag4
ag30
ag5
ag5
ag5
aS','
p49
ag3
ag4
ag30
ag8
ag14
ag5
aS')'
p50
ag35
ag3
ag4
ag30
ag8
ag14
ag8
ag35
ag3
ag4
ag30
ag8
ag14
ag11
asS'M00271'
p51
(lp52
g3
ag4
ag30
ag5
ag25
ag25
ag35
ag3
ag4
ag30
ag5
ag25
ag6
ag35
ag3
ag4
ag30
ag5
ag25
ag5
asS'M00377'
p53
(lp54
g3
ag4
ag4
ag14
ag11
ag8
ag7
ag3
ag4
ag25
ag30
ag11
ag11
aS'-'
p55
ag3
ag14
ag25
ag4
ag30
ag30
ag7
ag3
ag4
ag14
ag11
ag19
ag8
ag7
ag3
ag4
ag14
ag20
ag11
ag14
ag7
ag3
ag4
ag4
ag30
ag11
ag5
ag7
ag3
ag14
ag25
ag4
ag30
ag19
ag7
ag3
ag14
ag20
ag14
ag19
ag8
ag35
ag3
ag4
ag4
ag14
ag11
ag5
ag35
ag3
ag4
ag4
ag14
ag11
ag20
asS'M00376'
p56
(lp57
g3
ag4
ag30
ag14
ag6
ag4
ag35
ag3
ag4
ag14
ag11
ag6
ag14
ag35
ag3
ag4
ag14
ag11
ag6
ag30
ag35
ag3
ag4
ag14
ag11
ag6
ag19
ag7
ag3
ag14
ag20
ag20
ag6
ag8
ag7
ag3
ag14
ag20
ag20
ag6
ag11
ag7
ag3
ag14
ag25
ag4
ag25
ag30
ag7
ag3
ag4
ag25
ag6
ag4
ag6
ag7
ag48
ag3
ag4
ag14
ag8
ag20
ag5
ag49
ag3
ag4
ag14
ag8
ag20
ag8
ag35
ag3
ag4
ag14
ag8
ag20
ag11
ag50
ag7
ag3
ag14
ag20
ag20
ag5
ag14
ag35
ag3
ag14
ag20
ag20
ag5
ag30
ag7
ag3
ag4
ag4
ag30
ag19
ag11
ag35
ag3
ag4
ag4
ag30
ag20
ag4
ag35
ag3
ag4
ag4
ag30
ag20
ag14
ag7
ag3
ag4
ag14
ag6
ag5
ag11
asS'M00375'
p58
(lp59
g3
ag4
ag14
ag11
ag6
ag20
ag35
ag3
ag14
ag25
ag4
ag19
ag5
ag35
ag3
ag14
ag25
ag4
ag19
ag6
ag7
ag3
ag14
ag25
ag4
ag14
ag5
ag7
ag3
ag14
ag25
ag4
ag19
ag11
ag7
ag3
ag14
ag25
ag4
ag14
ag8
ag7
ag3
ag14
ag25
ag4
ag14
ag11
ag7
ag3
ag14
ag25
ag4
ag30
ag4
ag7
ag3
ag4
ag25
ag6
ag4
ag6
ag7
ag3
ag4
ag14
ag8
ag20
ag8
ag35
ag3
ag4
ag14
ag8
ag20
ag11
ag7
ag48
ag3
ag14
ag25
ag4
ag19
ag8
ag49
ag3
ag14
ag25
ag4
ag14
ag5
ag50
ag7
ag3
ag14
ag20
ag20
ag6
ag25
ag7
ag48
ag3
ag14
ag20
ag20
ag6
ag6
ag49
ag3
ag14
ag8
ag8
ag6
ag14
ag50
ag7
ag3
ag14
ag20
ag25
ag19
ag20
ag7
ag3
ag14
ag25
ag4
ag14
ag6
ag7
ag3
ag4
ag4
ag6
ag30
ag6
asS'M00374'
p60
(lp61
g3
ag4
ag4
ag14
ag6
ag11
ag35
ag3
ag4
ag4
ag14
ag5
ag4
ag35
ag3
ag4
ag4
ag14
ag5
ag14
ag35
ag3
ag4
ag4
ag14
ag5
ag30
ag7
ag3
ag4
ag14
ag4
ag4
ag5
ag7
ag3
ag4
ag14
ag25
ag11
ag25
ag7
ag3
ag4
ag4
ag4
ag30
ag20
ag7
ag48
ag3
ag4
ag14
ag6
ag5
ag6
ag49
ag3
ag4
ag14
ag6
ag5
ag5
ag35
ag3
ag4
ag14
ag6
ag5
ag8
ag50
ag7
ag48
ag3
ag4
ag4
ag30
ag19
ag11
ag35
ag3
ag4
ag4
ag30
ag20
ag4
ag55
ag3
ag4
ag4
ag30
ag20
ag14
ag55
ag3
ag14
ag8
ag8
ag6
ag4
ag50
ag7
ag3
ag4
ag14
ag11
ag4
ag30
ag35
ag3
ag4
ag14
ag11
ag4
ag19
ag7
ag48
ag3
ag14
ag25
ag4
ag19
ag8
ag49
ag3
ag14
ag25
ag4
ag14
ag5
ag50
ag7
ag3
ag14
ag20
ag20
ag6
ag25
ag7
ag48
ag3
ag14
ag20
ag20
ag6
ag5
ag49
ag3
ag14
ag8
ag8
ag6
ag14
ag50
ag7
ag3
ag14
ag20
ag25
ag19
ag20
ag7
ag3
ag14
ag25
ag4
ag14
ag6
ag7
ag3
ag4
ag4
ag6
ag30
ag6
asS'M00373'
p62
(lp63
g3
ag4
ag4
ag6
ag30
ag6
ag7
ag3
ag4
ag4
ag4
ag30
ag19
ag7
ag3
ag14
ag5
ag8
ag6
ag25
ag7
ag3
ag14
ag20
ag20
ag20
ag6
ag7
ag3
ag14
ag20
ag20
ag20
ag5
ag7
ag3
ag14
ag20
ag20
ag20
ag8
ag7
ag3
ag14
ag20
ag20
ag20
ag11
ag7
ag3
ag4
ag8
ag6
ag11
ag14
ag7
ag3
ag14
ag20
ag20
ag25
ag14
asS'M00372'
p64
(lp65
g48
ag3
ag14
ag25
ag5
ag20
ag6
ag49
ag3
ag14
ag25
ag5
ag20
ag5
ag50
ag7
ag3
ag4
ag11
ag8
ag19
ag8
ag7
ag55
ag3
ag14
ag20
ag25
ag11
ag20
ag7
ag3
ag4
ag11
ag8
ag20
ag4
ag7
ag3
ag4
ag11
ag8
ag20
ag14
ag7
ag3
ag4
ag11
ag8
ag20
ag30
asS'M00278'
p66
(lp67
g3
ag4
ag30
ag8
ag14
ag30
ag35
ag3
ag4
ag30
ag8
ag14
ag19
ag35
ag3
ag4
ag30
ag8
ag14
ag20
ag35
ag3
ag4
ag30
ag8
ag14
ag25
asS'M00279'
p68
(lp69
g3
ag4
ag30
ag5
ag5
ag19
ag35
ag3
ag4
ag30
ag5
ag5
ag20
ag35
ag3
ag4
ag30
ag5
ag5
ag25
asS'M00519'
p70
(lp71
g3
ag4
ag5
ag5
ag14
ag8
ag7
ag3
ag4
ag5
ag5
ag30
ag4
asS'M00518'
p72
(lp73
g3
ag4
ag5
ag5
ag14
ag5
ag7
ag3
ag4
ag5
ag5
ag14
ag11
asS'M00513'
p74
(lp75
g3
ag14
ag4
ag11
ag4
ag11
ag7
ag3
ag14
ag4
ag11
ag14
ag6
ag7
ag3
ag14
ag4
ag11
ag14
ag14
ag7
ag3
ag14
ag4
ag11
ag14
ag30
asS'M00512'
p76
(lp77
g3
ag14
ag19
ag25
ag8
ag5
ag7
ag3
ag14
ag19
ag25
ag8
ag20
ag7
ag3
ag14
ag19
ag25
ag8
ag11
asS'M00511'
p78
(lp79
g3
ag4
ag5
ag5
ag14
ag6
ag7
ag3
ag14
ag14
ag19
ag25
ag5
ag7
ag3
ag4
ag30
ag20
ag8
ag8
ag7
ag3
ag14
ag14
ag20
ag20
ag19
ag7
ag55
ag3
ag14
ag19
ag25
ag11
ag14
asS'M00510'
p80
(lp81
g3
ag14
ag14
ag19
ag25
ag20
ag7
ag3
ag14
ag14
ag19
ag25
ag25
asS'M00517'
p82
(lp83
g3
ag14
ag4
ag5
ag14
ag25
ag7
ag3
ag14
ag19
ag8
ag14
ag25
asS'M00516'
p84
(lp85
g3
ag14
ag14
ag30
ag19
ag14
ag49
ag3
ag14
ag11
ag6
ag11
ag4
ag49
ag3
ag14
ag11
ag6
ag11
ag14
ag49
ag3
ag14
ag11
ag6
ag11
ag30
ag7
ag3
ag14
ag14
ag30
ag19
ag30
ag7
ag3
ag14
ag14
ag30
ag19
ag19
ag49
ag3
ag14
ag25
ag8
ag25
ag11
asS'M00515'
p86
(lp87
g3
ag14
ag4
ag11
ag20
ag30
ag7
ag3
ag14
ag4
ag11
ag20
ag19
asS'M00514'
p88
(lp89
g3
ag14
ag19
ag4
ag20
ag4
ag7
ag3
ag14
ag19
ag4
ag20
ag14
asS'M00078'
p90
(lp91
g48
ag3
ag4
ag5
ag11
ag6
ag20
ag49
ag3
ag4
ag5
ag11
ag6
ag25
ag50
ag7
ag3
ag4
ag14
ag14
ag19
ag6
ag7
ag3
ag4
ag14
ag30
ag14
ag5
ag7
ag3
ag4
ag14
ag25
ag6
ag25
ag7
ag3
ag14
ag4
ag25
ag19
ag30
ag7
ag3
ag4
ag14
ag30
ag4
ag25
ag7
ag55
ag55
ag7
ag3
ag4
ag14
ag14
ag11
ag25
ag7
ag3
ag4
ag14
ag14
ag19
ag5
asS'M00429'
p92
(lp93
g3
ag4
ag30
ag30
ag19
ag5
ag35
ag3
ag4
ag30
ag30
ag19
ag8
ag35
ag3
ag4
ag30
ag30
ag20
ag4
ag35
ag3
ag4
ag30
ag30
ag20
ag30
ag35
ag48
ag3
ag4
ag30
ag30
ag20
ag25
ag49
ag3
ag4
ag30
ag30
ag20
ag6
ag49
ag3
ag4
ag30
ag30
ag20
ag5
ag49
ag3
ag4
ag30
ag30
ag20
ag11
ag50
ag35
ag3
ag4
ag30
ag30
ag20
ag19
ag35
ag3
ag4
ag30
ag30
ag20
ag20
ag35
ag3
ag4
ag30
ag30
ag19
ag6
ag55
ag3
ag4
ag30
ag30
ag20
ag8
ag55
ag3
ag4
ag14
ag20
ag11
ag19
ag55
ag3
ag4
ag30
ag30
ag19
ag11
ag55
ag3
ag4
ag30
ag30
ag20
ag14
asS'M00079'
p94
(lp95
g55
ag55
ag7
ag3
ag4
ag14
ag14
ag19
ag30
ag7
ag3
ag14
ag30
ag19
ag4
ag11
ag7
ag3
ag4
ag14
ag14
ag19
ag5
ag7
ag3
ag14
ag30
ag19
ag5
ag19
asS'M00428'
p96
(lp97
g3
ag4
ag19
ag30
ag25
ag11
ag35
ag3
ag4
ag19
ag30
ag6
ag4
ag35
ag3
ag4
ag19
ag30
ag25
ag5
asS'M00012'
p98
(lp99
g3
ag4
ag14
ag6
ag20
ag5
ag7
ag48
ag3
ag4
ag14
ag6
ag8
ag14
ag49
ag3
ag4
ag14
ag6
ag8
ag30
ag50
ag7
ag3
ag4
ag14
ag6
ag19
ag5
ag7
ag48
ag3
ag4
ag14
ag6
ag19
ag8
ag49
ag3
ag14
ag11
ag30
ag8
ag30
ag50
ag7
ag48
ag3
ag4
ag4
ag4
ag30
ag6
ag49
ag3
ag4
ag4
ag4
ag30
ag25
ag49
ag3
ag4
ag4
ag4
ag30
ag20
ag50
asS'M00013'
p100
(lp101
g3
ag4
ag4
ag30
ag20
ag11
ag7
ag48
ag3
ag4
ag5
ag25
ag14
ag14
ag49
ag3
ag4
ag5
ag25
ag14
ag20
ag49
ag3
ag4
ag5
ag25
ag14
ag25
ag50
ag7
ag3
ag4
ag25
ag6
ag4
ag25
ag7
ag55
ag55
ag7
ag3
ag4
ag4
ag14
ag20
ag4
asS'M00010'
p102
(lp103
g3
ag4
ag14
ag6
ag20
ag5
ag7
ag48
ag3
ag4
ag14
ag6
ag8
ag14
ag49
ag3
ag4
ag14
ag6
ag8
ag30
ag50
ag7
ag48
ag3
ag4
ag4
ag4
ag19
ag14
ag49
ag3
ag4
ag4
ag4
ag19
ag4
ag50
asS'M00011'
p104
(lp105
g48
ag3
ag4
ag4
ag14
ag6
ag20
ag35
ag3
ag4
ag4
ag6
ag25
ag8
ag35
ag3
ag4
ag4
ag19
ag8
ag30
ag49
ag3
ag4
ag4
ag14
ag5
ag20
ag35
ag3
ag4
ag4
ag14
ag5
ag25
ag55
ag3
ag4
ag4
ag14
ag5
ag5
ag55
ag3
ag4
ag4
ag14
ag5
ag6
ag50
ag7
ag48
ag3
ag4
ag14
ag11
ag4
ag30
ag35
ag3
ag4
ag14
ag11
ag4
ag19
ag49
ag3
ag4
ag14
ag8
ag11
ag11
ag35
ag3
ag4
ag14
ag11
ag4
ag4
ag49
ag3
ag14
ag8
ag14
ag14
ag8
ag50
ag7
ag48
ag3
ag4
ag4
ag30
ag19
ag20
ag35
ag3
ag4
ag4
ag30
ag19
ag25
ag35
ag3
ag4
ag4
ag30
ag19
ag6
ag35
ag3
ag4
ag4
ag30
ag19
ag5
ag49
ag3
ag4
ag4
ag30
ag19
ag11
ag35
ag3
ag4
ag4
ag30
ag20
ag4
ag35
ag3
ag4
ag4
ag30
ag20
ag14
ag55
ag48
ag3
ag4
ag4
ag30
ag20
ag30
ag49
ag3
ag14
ag8
ag8
ag25
ag11
ag49
ag3
ag14
ag8
ag8
ag6
ag4
ag50
ag49
ag3
ag4
ag4
ag30
ag20
ag20
ag35
ag3
ag4
ag4
ag30
ag20
ag25
ag35
ag3
ag4
ag4
ag30
ag20
ag6
ag55
ag3
ag4
ag4
ag30
ag20
ag5
ag50
ag7
ag48
ag3
ag4
ag14
ag6
ag5
ag6
ag49
ag3
ag4
ag14
ag6
ag5
ag11
ag49
ag3
ag4
ag14
ag6
ag5
ag5
ag35
ag3
ag4
ag14
ag6
ag5
ag8
ag50
ag7
ag48
ag3
ag4
ag4
ag4
ag30
ag6
ag49
ag3
ag4
ag4
ag4
ag30
ag25
ag49
ag3
ag4
ag4
ag4
ag30
ag20
ag49
ag3
ag4
ag4
ag14
ag14
ag6
ag50
asS'M00016'
p106
(lp107
g48
ag3
ag4
ag4
ag11
ag30
ag8
ag49
ag3
ag14
ag30
ag25
ag30
ag20
ag49
ag3
ag14
ag30
ag25
ag30
ag25
ag49
ag3
ag14
ag30
ag25
ag30
ag6
ag50
ag7
ag3
ag4
ag4
ag14
ag19
ag19
ag7
ag3
ag4
ag14
ag5
ag14
ag20
ag7
ag3
ag4
ag4
ag30
ag14
ag25
ag7
ag3
ag4
ag4
ag6
ag5
ag20
ag7
ag48
ag3
ag4
ag4
ag8
ag30
ag14
ag49
ag3
ag14
ag20
ag30
ag6
ag5
ag50
ag7
ag3
ag4
ag14
ag20
ag19
ag11
ag7
ag3
ag4
ag14
ag5
ag5
ag8
ag7
ag48
ag3
ag4
ag14
ag25
ag8
ag6
ag49
ag3
ag14
ag30
ag25
ag30
ag6
ag50
asS'M00017'
p108
(lp109
g48
ag3
ag4
ag4
ag11
ag30
ag8
ag49
ag3
ag14
ag30
ag25
ag30
ag20
ag49
ag3
ag14
ag30
ag25
ag30
ag25
ag49
ag3
ag14
ag30
ag25
ag30
ag6
ag50
ag7
ag3
ag4
ag4
ag14
ag19
ag19
ag7
ag48
ag3
ag4
ag4
ag4
ag4
ag19
ag49
ag3
ag14
ag30
ag25
ag30
ag20
ag49
ag3
ag14
ag30
ag25
ag30
ag25
ag50
ag7
ag3
ag4
ag4
ag6
ag25
ag14
ag7
ag3
ag4
ag14
ag5
ag19
ag11
ag7
ag3
ag4
ag14
ag5
ag6
ag4
ag7
ag48
ag3
ag4
ag4
ag25
ag20
ag8
ag49
ag3
ag4
ag4
ag25
ag20
ag11
ag50
asS'M00014'
p110
(lp111
g3
ag4
ag4
ag4
ag14
ag30
ag7
ag48
ag48
ag3
ag14
ag30
ag20
ag20
ag5
ag7
ag3
ag14
ag6
ag14
ag11
ag4
ag50
ag49
ag48
ag3
ag4
ag4
ag6
ag11
ag11
ag7
ag48
ag3
ag4
ag14
ag14
ag11
ag25
ag49
ag3
ag14
ag20
ag5
ag25
ag6
ag50
ag50
ag50
ag7
ag3
ag4
ag4
ag4
ag4
ag30
ag7
ag3
ag14
ag19
ag30
ag20
ag5
ag7
ag55
ag55
ag7
ag3
ag4
ag19
ag19
ag19
ag14
ag7
ag48
ag3
ag4
ag25
ag19
ag25
ag14
ag49
ag3
ag4
ag4
ag4
ag4
ag8
ag50
ag7
ag3
ag4
ag4
ag8
ag25
ag20
asS'M00015'
p112
(lp113
g48
ag3
ag4
ag4
ag11
ag19
ag14
ag7
ag3
ag4
ag4
ag14
ag20
ag5
ag49
ag3
ag14
ag30
ag6
ag25
ag5
ag50
ag7
ag55
ag55
ag7
ag3
ag4
ag4
ag30
ag8
ag6
asS'M00153'
p114
(lp115
g3
ag4
ag4
ag20
ag30
ag25
ag35
ag3
ag4
ag4
ag20
ag30
ag6
asS'M00152'
p116
(lp117
g48
ag3
ag4
ag4
ag20
ag14
ag30
ag35
ag3
ag4
ag4
ag20
ag14
ag19
ag49
ag3
ag4
ag4
ag20
ag14
ag4
ag50
ag35
ag3
ag4
ag4
ag20
ag14
ag14
ag35
ag3
ag4
ag4
ag20
ag14
ag20
ag35
ag3
ag4
ag4
ag20
ag14
ag25
ag35
ag3
ag4
ag4
ag20
ag14
ag6
ag35
ag3
ag4
ag4
ag20
ag14
ag5
ag35
ag3
ag4
ag4
ag20
ag14
ag8
ag35
ag3
ag4
ag4
ag20
ag14
ag11
ag35
ag3
ag4
ag4
ag20
ag30
ag4
asS'M00018'
p118
(lp119
g48
ag3
ag4
ag4
ag11
ag30
ag8
ag49
ag3
ag14
ag30
ag25
ag30
ag20
ag49
ag3
ag14
ag30
ag25
ag30
ag25
ag49
ag3
ag14
ag30
ag25
ag30
ag6
ag50
ag7
ag3
ag4
ag4
ag14
ag19
ag19
ag7
ag48
ag3
ag4
ag4
ag4
ag4
ag19
ag49
ag3
ag14
ag30
ag25
ag30
ag20
ag49
ag3
ag14
ag30
ag25
ag30
ag25
ag50
ag7
ag48
ag3
ag4
ag4
ag8
ag5
ag30
ag49
ag3
ag4
ag30
ag30
ag4
ag20
ag49
ag3
ag4
ag30
ag30
ag4
ag19
ag50
ag7
ag3
ag4
ag14
ag5
ag19
ag19
asS'M00019'
p120
(lp121
g3
ag4
ag14
ag6
ag25
ag30
ag35
ag48
ag3
ag4
ag14
ag6
ag25
ag19
ag49
ag3
ag14
ag14
ag30
ag25
ag8
ag50
ag7
ag3
ag4
ag4
ag4
ag25
ag19
ag7
ag3
ag4
ag14
ag6
ag8
ag5
ag7
ag3
ag4
ag4
ag8
ag30
ag6
asS'M00157'
p122
(lp123
g3
ag4
ag30
ag14
ag14
ag14
ag35
ag3
ag4
ag30
ag14
ag14
ag30
ag35
ag3
ag4
ag30
ag14
ag14
ag19
ag35
ag3
ag4
ag30
ag14
ag14
ag20
ag35
ag3
ag4
ag30
ag14
ag14
ag25
ag35
ag3
ag4
ag30
ag14
ag4
ag8
ag35
ag3
ag4
ag30
ag14
ag4
ag11
ag35
ag3
ag4
ag30
ag14
ag14
ag4
asS'M00156'
p124
(lp125
g48
ag48
ag3
ag4
ag4
ag20
ag4
ag20
ag35
ag3
ag4
ag4
ag20
ag4
ag25
ag49
ag3
ag14
ag25
ag8
ag6
ag30
ag50
ag35
ag3
ag4
ag4
ag20
ag4
ag5
ag35
ag3
ag4
ag4
ag20
ag4
ag6
ag50
asS'M00155'
p126
(lp127
g3
ag4
ag30
ag30
ag5
ag25
ag35
ag48
ag3
ag4
ag30
ag30
ag5
ag20
ag35
ag3
ag4
ag30
ag30
ag5
ag6
ag49
ag3
ag14
ag25
ag20
ag4
ag8
ag50
ag55
ag3
ag4
ag30
ag30
ag5
ag5
asS'M00154'
p128
(lp129
g48
ag3
ag4
ag30
ag30
ag25
ag5
ag35
ag3
ag4
ag30
ag30
ag6
ag30
ag35
ag3
ag4
ag30
ag30
ag25
ag6
ag35
ag3
ag4
ag30
ag30
ag6
ag14
ag35
ag3
ag4
ag30
ag30
ag6
ag19
ag35
ag3
ag4
ag30
ag30
ag6
ag20
ag35
ag3
ag4
ag30
ag30
ag6
ag25
ag35
ag3
ag4
ag30
ag30
ag6
ag6
ag35
ag3
ag4
ag30
ag30
ag6
ag5
ag35
ag3
ag4
ag30
ag30
ag6
ag8
ag35
ag48
ag3
ag4
ag30
ag30
ag6
ag11
ag49
ag3
ag4
ag30
ag30
ag5
ag4
ag55
ag3
ag4
ag30
ag30
ag5
ag14
ag50
ag35
ag3
ag4
ag30
ag30
ag5
ag30
ag55
ag3
ag4
ag30
ag30
ag5
ag19
ag35
ag3
ag4
ag30
ag30
ag25
ag8
ag35
ag3
ag4
ag30
ag30
ag25
ag11
ag35
ag3
ag4
ag30
ag30
ag6
ag4
ag50
asS'M00607'
p130
(lp131
g3
ag14
ag5
ag19
ag30
ag14
ag35
ag3
ag14
ag5
ag19
ag30
ag30
ag35
ag3
ag14
ag5
ag19
ag30
ag19
ag35
ag3
ag14
ag5
ag19
ag30
ag20
ag35
ag3
ag14
ag5
ag19
ag30
ag25
asS'M00606'
p132
(lp133
g3
ag14
ag5
ag19
ag30
ag11
ag35
ag3
ag14
ag5
ag19
ag19
ag4
ag35
ag3
ag14
ag5
ag19
ag19
ag14
ag35
ag3
ag14
ag4
ag14
ag14
ag30
asS'M00605'
p134
(lp135
g3
ag14
ag5
ag19
ag14
ag25
ag35
ag3
ag14
ag5
ag19
ag14
ag6
ag35
ag3
ag14
ag5
ag19
ag14
ag5
ag35
ag3
ag14
ag4
ag14
ag14
ag30
asS'M00604'
p136
(lp137
g3
ag14
ag5
ag19
ag14
ag14
ag35
ag3
ag14
ag5
ag19
ag14
ag30
ag35
ag3
ag14
ag5
ag19
ag14
ag19
ag55
ag3
ag14
ag5
ag19
ag14
ag20
asS'M00603'
p138
(lp139
g3
ag14
ag5
ag19
ag14
ag8
ag35
ag3
ag14
ag5
ag19
ag14
ag11
ag35
ag3
ag14
ag5
ag19
ag30
ag4
asS'M00602'
p140
(lp141
g3
ag14
ag5
ag30
ag19
ag20
ag35
ag3
ag14
ag5
ag30
ag19
ag25
ag35
ag3
ag14
ag5
ag30
ag19
ag6
ag35
ag3
ag14
ag4
ag14
ag14
ag30
asS'M00601'
p142
(lp143
g3
ag14
ag5
ag30
ag20
ag20
ag35
ag3
ag14
ag5
ag30
ag20
ag25
ag35
ag3
ag14
ag5
ag30
ag20
ag6
asS'M00600'
p144
(lp145
g3
ag14
ag5
ag30
ag20
ag14
ag35
ag3
ag14
ag5
ag30
ag20
ag30
ag35
ag3
ag14
ag5
ag30
ag20
ag19
asS'M00764'
p146
(lp147
g3
ag14
ag11
ag25
ag4
ag6
ag35
ag3
ag14
ag11
ag25
ag4
ag5
ag35
ag3
ag14
ag11
ag25
ag4
ag8
ag35
ag3
ag14
ag11
ag25
ag4
ag11
asS'M00765'
p148
(lp149
g3
ag14
ag11
ag25
ag5
ag25
ag7
ag3
ag14
ag11
ag25
ag5
ag8
asS'M00766'
p150
(lp151
g3
ag14
ag4
ag6
ag5
ag19
ag7
ag3
ag4
ag20
ag19
ag20
ag19
asS'M00767'
p152
(lp153
g3
ag4
ag25
ag8
ag4
ag20
ag7
ag3
ag14
ag11
ag25
ag8
ag5
ag7
ag3
ag14
ag11
ag25
ag8
ag6
ag35
ag3
ag14
ag11
ag25
ag8
ag25
asS'M00760'
p154
(lp155
g3
ag14
ag11
ag4
ag6
ag4
ag7
ag3
ag4
ag6
ag11
ag5
ag11
asS'M00761'
p156
(lp157
g3
ag14
ag4
ag4
ag14
ag14
ag7
ag3
ag4
ag5
ag8
ag4
ag6
ag7
ag3
ag14
ag4
ag4
ag14
ag30
ag7
ag3
ag14
ag19
ag4
ag14
ag20
asS'M00609'
p158
(lp159
g3
ag4
ag4
ag5
ag8
ag11
ag7
ag3
ag14
ag5
ag20
ag6
ag30
ag7
ag48
ag3
ag4
ag14
ag30
ag20
ag19
ag49
ag3
ag14
ag8
ag30
ag8
ag20
ag50
ag7
ag3
ag4
ag5
ag14
ag5
ag19
ag7
ag3
ag14
ag5
ag30
ag14
ag6
ag7
ag3
ag14
ag5
ag30
ag14
ag5
asS'M00608'
p160
(lp161
g3
ag14
ag4
ag11
ag5
ag5
ag7
ag3
ag14
ag6
ag5
ag11
ag30
ag35
ag3
ag14
ag6
ag5
ag11
ag19
ag7
ag3
ag14
ag4
ag11
ag5
ag8
asS'M00568'
p162
(lp163
g3
ag4
ag19
ag19
ag8
ag14
ag7
ag3
ag4
ag14
ag8
ag25
ag6
ag7
ag3
ag4
ag19
ag20
ag6
ag20
ag7
ag48
ag3
ag4
ag14
ag4
ag25
ag25
ag49
ag3
ag14
ag20
ag5
ag30
ag5
ag50
asS'M00569'
p164
(lp165
g48
ag3
ag4
ag4
ag20
ag20
ag6
ag49
ag3
ag4
ag5
ag14
ag4
ag20
ag50
ag7
ag48
ag48
ag3
ag14
ag4
ag30
ag14
ag5
ag7
ag3
ag4
ag14
ag8
ag30
ag14
ag7
ag3
ag4
ag14
ag6
ag14
ag5
ag50
ag49
ag3
ag14
ag4
ag30
ag14
ag6
ag50
ag7
ag48
ag3
ag14
ag8
ag19
ag6
ag20
ag49
ag3
ag4
ag30
ag25
ag25
ag20
ag50
ag7
ag48
ag3
ag14
ag8
ag19
ag6
ag25
ag49
ag3
ag4
ag14
ag6
ag6
ag6
ag50
ag7
ag48
ag3
ag14
ag8
ag19
ag6
ag6
ag49
ag3
ag4
ag20
ag4
ag5
ag19
ag50
asS'M00566'
p166
(lp167
g3
ag14
ag6
ag14
ag11
ag11
ag35
ag3
ag14
ag6
ag30
ag4
ag4
ag35
ag3
ag14
ag6
ag30
ag4
ag14
ag35
ag3
ag14
ag6
ag30
ag4
ag30
asS'M00567'
p168
(lp169
g48
ag3
ag4
ag4
ag30
ag4
ag4
ag35
ag3
ag4
ag4
ag30
ag4
ag14
ag35
ag3
ag4
ag4
ag30
ag4
ag30
ag35
ag3
ag4
ag4
ag30
ag4
ag19
ag55
ag3
ag14
ag14
ag30
ag6
ag14
ag35
ag48
ag3
ag4
ag4
ag30
ag4
ag25
ag49
ag3
ag14
ag14
ag30
ag6
ag4
ag49
ag3
ag4
ag4
ag30
ag4
ag20
ag50
ag50
ag7
ag3
ag4
ag4
ag6
ag5
ag30
ag7
ag3
ag4
ag14
ag20
ag11
ag11
ag7
ag48
ag3
ag4
ag4
ag19
ag14
ag11
ag49
ag3
ag14
ag19
ag11
ag20
ag30
ag50
ag7
ag3
ag4
ag4
ag19
ag30
ag4
ag7
ag48
ag3
ag4
ag4
ag25
ag5
ag5
ag35
ag3
ag4
ag4
ag25
ag5
ag8
ag35
ag3
ag4
ag4
ag25
ag5
ag11
ag35
ag3
ag4
ag4
ag25
ag8
ag4
ag35
ag3
ag4
ag4
ag25
ag8
ag14
ag55
ag3
ag4
ag4
ag25
ag8
ag30
ag55
ag3
ag4
ag4
ag25
ag8
ag19
ag35
ag3
ag4
ag4
ag25
ag8
ag20
ag50
ag7
ag48
ag3
ag4
ag4
ag19
ag11
ag11
ag35
ag3
ag4
ag4
ag20
ag4
ag14
ag35
ag3
ag4
ag4
ag20
ag4
ag30
ag50
ag7
ag48
ag3
ag4
ag19
ag19
ag8
ag8
ag35
ag3
ag4
ag19
ag19
ag8
ag11
ag35
ag3
ag4
ag19
ag19
ag11
ag4
ag50
asS'M00564'
p170
(lp171
g3
ag14
ag25
ag8
ag20
ag30
ag7
ag3
ag14
ag30
ag4
ag8
ag6
ag7
ag55
ag3
ag14
ag30
ag4
ag8
ag5
ag7
ag3
ag14
ag30
ag4
ag8
ag8
ag7
ag3
ag14
ag30
ag4
ag8
ag11
ag7
ag3
ag14
ag30
ag4
ag11
ag4
ag7
ag3
ag4
ag19
ag14
ag11
ag6
ag7
ag3
ag14
ag30
ag4
ag11
ag14
ag7
ag55
ag3
ag14
ag30
ag4
ag11
ag30
ag7
ag3
ag14
ag30
ag4
ag11
ag19
ag7
ag3
ag14
ag30
ag4
ag11
ag20
ag7
ag3
ag14
ag30
ag4
ag11
ag25
ag7
ag3
ag14
ag30
ag4
ag11
ag6
ag7
ag3
ag14
ag30
ag4
ag11
ag5
ag7
ag3
ag14
ag30
ag4
ag11
ag8
ag7
ag55
ag3
ag14
ag30
ag4
ag11
ag11
ag7
ag55
ag3
ag14
ag30
ag14
ag4
ag4
ag7
ag3
ag14
ag30
ag14
ag4
ag14
ag7
ag3
ag14
ag30
ag14
ag4
ag30
ag7
ag3
ag14
ag30
ag14
ag4
ag19
ag7
ag3
ag14
ag30
ag14
ag4
ag20
ag7
ag3
ag14
ag30
ag14
ag4
ag25
ag7
ag3
ag14
ag30
ag14
ag4
ag6
ag7
ag3
ag14
ag30
ag14
ag4
ag5
ag7
ag3
ag14
ag30
ag14
ag4
ag8
ag7
ag3
ag14
ag30
ag14
ag4
ag11
ag7
ag3
ag14
ag30
ag14
ag14
ag4
asS'M00565'
p172
(lp173
g3
ag4
ag4
ag11
ag5
ag25
ag7
ag3
ag4
ag4
ag5
ag4
ag19
ag7
ag48
ag3
ag4
ag4
ag5
ag4
ag4
ag49
ag3
ag14
ag6
ag14
ag20
ag11
ag50
ag7
ag3
ag4
ag14
ag30
ag14
ag20
ag7
ag3
ag4
ag6
ag4
ag20
ag20
ag7
ag3
ag4
ag14
ag30
ag19
ag6
asS'M00563'
p174
(lp175
g3
ag14
ag20
ag4
ag8
ag30
ag7
ag48
ag48
ag3
ag14
ag6
ag14
ag5
ag5
ag55
ag3
ag14
ag6
ag14
ag5
ag6
ag50
ag49
ag48
ag3
ag14
ag6
ag14
ag5
ag11
ag55
ag3
ag14
ag6
ag14
ag5
ag8
ag50
ag49
ag48
ag3
ag14
ag20
ag4
ag8
ag20
ag55
ag3
ag14
ag20
ag4
ag8
ag19
ag50
ag50
ag7
ag3
ag4
ag4
ag19
ag11
ag11
ag35
ag3
ag4
ag4
ag20
ag4
ag14
ag35
ag3
ag4
ag4
ag20
ag4
ag30
ag7
ag3
ag4
ag19
ag19
ag8
ag8
ag35
ag3
ag4
ag19
ag19
ag8
ag11
ag35
ag3
ag4
ag19
ag19
ag11
ag4
asS'M00280'
p176
(lp177
g3
ag4
ag30
ag5
ag8
ag14
ag35
ag3
ag4
ag30
ag5
ag8
ag30
ag35
ag3
ag4
ag30
ag5
ag8
ag19
asS'M00128'
p178
(lp179
g3
ag4
ag6
ag14
ag30
ag25
ag7
ag3
ag4
ag4
ag25
ag11
ag14
ag7
ag3
ag4
ag6
ag14
ag30
ag6
ag7
ag3
ag4
ag6
ag14
ag30
ag5
ag7
ag3
ag4
ag6
ag14
ag19
ag20
ag7
ag3
ag4
ag4
ag25
ag11
ag14
asS'M00129'
p180
(lp181
g3
ag4
ag4
ag11
ag6
ag19
ag7
ag3
ag4
ag4
ag4
ag14
ag30
ag7
ag3
ag4
ag4
ag6
ag11
ag11
ag7
ag48
ag3
ag4
ag14
ag14
ag11
ag25
ag49
ag3
ag14
ag20
ag5
ag25
ag6
ag50
ag7
ag55
ag55
ag7
ag3
ag4
ag14
ag4
ag25
ag19
ag7
ag3
ag4
ag4
ag14
ag4
ag19
asS'M00126'
p182
(lp183
g48
ag3
ag4
ag14
ag20
ag11
ag25
ag49
ag3
ag4
ag11
ag4
ag4
ag5
ag50
ag7
ag48
ag3
ag4
ag14
ag4
ag5
ag5
ag49
ag3
ag4
ag14
ag14
ag14
ag19
ag50
ag7
ag48
ag3
ag14
ag19
ag11
ag19
ag11
ag49
ag3
ag14
ag19
ag11
ag20
ag4
ag7
ag48
ag3
ag4
ag4
ag5
ag11
ag6
ag49
ag3
ag14
ag8
ag11
ag5
ag20
ag49
ag3
ag14
ag8
ag8
ag30
ag20
ag49
ag3
ag14
ag8
ag8
ag30
ag25
ag50
ag49
ag3
ag4
ag14
ag6
ag19
ag19
ag7
ag3
ag4
ag4
ag11
ag25
ag4
ag7
ag48
ag3
ag4
ag4
ag5
ag11
ag6
ag49
ag3
ag14
ag8
ag11
ag5
ag20
ag49
ag3
ag14
ag8
ag8
ag30
ag20
ag49
ag3
ag14
ag8
ag8
ag30
ag25
ag50
ag49
ag3
ag4
ag14
ag6
ag19
ag19
ag7
ag3
ag14
ag19
ag11
ag20
ag14
ag50
ag7
ag48
ag3
ag14
ag14
ag5
ag25
ag20
ag49
ag3
ag4
ag14
ag11
ag19
ag4
ag49
ag3
ag30
ag4
ag20
ag25
ag5
ag50
ag7
ag48
ag3
ag4
ag4
ag30
ag8
ag5
ag49
ag3
ag14
ag19
ag11
ag11
ag8
ag49
ag3
ag14
ag19
ag11
ag19
ag8
ag50
asS'M00127'
p184
(lp185
g3
ag4
ag19
ag14
ag20
ag5
ag7
ag48
ag3
ag4
ag4
ag8
ag5
ag5
ag49
ag3
ag4
ag4
ag11
ag20
ag14
ag49
ag3
ag14
ag20
ag14
ag25
ag19
ag50
asS'M00124'
p186
(lp187
g3
ag4
ag19
ag20
ag5
ag30
ag7
ag3
ag4
ag19
ag20
ag5
ag19
ag7
ag3
ag4
ag4
ag8
ag19
ag14
ag7
ag3
ag4
ag4
ag4
ag11
ag5
ag7
ag55
ag55
ag7
ag3
ag4
ag19
ag20
ag5
ag20
ag7
ag3
ag4
ag4
ag30
ag5
ag25
asS'M00125'
p188
(lp189
g48
ag3
ag4
ag14
ag20
ag11
ag5
ag49
ag3
ag14
ag20
ag6
ag25
ag30
ag50
ag7
ag48
ag3
ag4
ag14
ag20
ag11
ag8
ag7
ag3
ag4
ag4
ag4
ag8
ag30
ag49
ag3
ag14
ag14
ag5
ag25
ag30
ag50
ag7
ag48
ag3
ag30
ag4
ag8
ag6
ag4
ag49
ag3
ag30
ag4
ag8
ag6
ag14
ag49
ag3
ag30
ag4
ag8
ag6
ag30
ag49
ag3
ag30
ag14
ag4
ag6
ag19
ag49
ag3
ag30
ag14
ag4
ag6
ag20
ag50
asS'M00122'
p190
(lp191
g48
ag3
ag4
ag4
ag5
ag11
ag8
ag49
ag3
ag14
ag11
ag30
ag30
ag14
ag50
ag7
ag3
ag4
ag30
ag30
ag19
ag30
ag7
ag48
ag3
ag4
ag30
ag30
ag30
ag25
ag49
ag3
ag4
ag30
ag30
ag30
ag5
ag50
ag7
ag3
ag4
ag30
ag30
ag19
ag14
asS'M00123'
p192
(lp193
g3
ag4
ag4
ag6
ag25
ag30
ag7
ag48
ag48
ag3
ag4
ag4
ag8
ag19
ag19
ag49
ag3
ag14
ag11
ag25
ag6
ag19
ag50
ag7
ag3
ag4
ag14
ag11
ag19
ag25
ag49
ag3
ag14
ag11
ag25
ag6
ag30
ag50
ag7
ag3
ag4
ag14
ag4
ag14
ag30
asS'M00120'
p194
(lp195
g48
ag3
ag4
ag4
ag8
ag6
ag5
ag49
ag3
ag4
ag19
ag25
ag30
ag25
ag49
ag3
ag4
ag11
ag6
ag8
ag4
ag49
ag3
ag4
ag14
ag11
ag20
ag5
ag50
ag7
ag48
ag3
ag4
ag14
ag11
ag30
ag30
ag7
ag3
ag4
ag14
ag25
ag11
ag8
ag49
ag3
ag14
ag19
ag4
ag19
ag8
ag50
ag7
ag48
ag3
ag4
ag30
ag19
ag14
ag8
ag49
ag48
ag3
ag4
ag4
ag11
ag25
ag20
ag49
ag3
ag4
ag30
ag30
ag4
ag14
ag50
ag7
ag3
ag4
ag4
ag8
ag25
ag11
ag50
asS'M00121'
p196
(lp197
g48
ag3
ag4
ag14
ag8
ag8
ag25
ag49
ag3
ag14
ag20
ag14
ag6
ag19
ag50
ag7
ag3
ag4
ag30
ag20
ag11
ag30
ag7
ag3
ag4
ag14
ag8
ag20
ag25
ag7
ag3
ag4
ag14
ag6
ag11
ag8
ag7
ag3
ag4
ag14
ag5
ag20
ag11
ag7
ag48
ag3
ag4
ag14
ag5
ag14
ag11
ag49
ag3
ag14
ag19
ag25
ag20
ag30
ag49
ag3
ag14
ag19
ag25
ag20
ag19
ag50
asS'M00089'
p198
(lp199
g48
ag3
ag4
ag4
ag6
ag30
ag11
ag49
ag3
ag14
ag19
ag25
ag4
ag6
ag49
ag3
ag14
ag19
ag25
ag4
ag5
ag49
ag3
ag4
ag4
ag6
ag19
ag4
ag49
ag3
ag14
ag19
ag25
ag4
ag8
ag49
ag3
ag4
ag4
ag6
ag19
ag14
ag49
ag3
ag4
ag19
ag6
ag30
ag14
ag49
ag3
ag4
ag8
ag25
ag11
ag14
ag50
ag7
ag48
ag3
ag4
ag4
ag6
ag25
ag25
ag49
ag3
ag14
ag19
ag25
ag4
ag11
ag49
ag3
ag14
ag19
ag25
ag14
ag19
ag49
ag3
ag14
ag19
ag25
ag14
ag5
ag49
ag3
ag14
ag19
ag25
ag14
ag11
ag49
ag3
ag14
ag19
ag25
ag30
ag19
ag49
ag3
ag14
ag20
ag6
ag5
ag20
ag50
ag7
ag3
ag4
ag14
ag4
ag8
ag4
ag7
ag48
ag3
ag4
ag4
ag6
ag19
ag25
ag49
ag3
ag14
ag14
ag14
ag25
ag25
ag49
ag3
ag14
ag14
ag14
ag6
ag4
ag49
ag3
ag14
ag20
ag20
ag25
ag6
ag49
ag3
ag14
ag8
ag8
ag25
ag14
ag50
asS'M00088'
p200
(lp201
g3
ag4
ag4
ag6
ag30
ag6
ag7
ag3
ag4
ag14
ag6
ag20
ag14
ag7
ag3
ag4
ag14
ag6
ag20
ag4
asS'M00379'
p202
(lp203
g3
ag4
ag19
ag8
ag6
ag8
ag35
ag3
ag4
ag19
ag19
ag20
ag5
ag35
ag3
ag4
ag19
ag4
ag11
ag20
ag35
ag3
ag14
ag4
ag30
ag25
ag11
asS'M00081'
p204
(lp205
g3
ag4
ag14
ag4
ag25
ag14
ag7
ag3
ag4
ag14
ag14
ag8
ag20
ag7
ag3
ag4
ag14
ag30
ag14
ag19
asS'M00080'
p206
(lp207
g3
ag4
ag30
ag25
ag30
ag5
ag7
ag3
ag4
ag30
ag8
ag20
ag14
ag7
ag3
ag4
ag30
ag8
ag20
ag19
ag7
ag3
ag4
ag30
ag8
ag25
ag4
ag7
ag3
ag4
ag30
ag8
ag20
ag8
ag7
ag3
ag4
ag30
ag8
ag20
ag11
ag7
ag3
ag4
ag30
ag8
ag20
ag20
ag7
ag3
ag4
ag30
ag8
ag20
ag4
ag7
ag3
ag4
ag19
ag30
ag5
ag8
ag7
ag3
ag4
ag19
ag30
ag5
ag11
ag7
ag3
ag4
ag19
ag30
ag8
ag4
ag7
ag3
ag4
ag30
ag8
ag20
ag5
asS'M00083'
p208
(lp209
g3
ag4
ag4
ag6
ag6
ag25
ag49
ag48
ag3
ag4
ag4
ag6
ag6
ag5
ag7
ag3
ag4
ag4
ag6
ag6
ag8
ag50
ag49
ag3
ag14
ag14
ag25
ag19
ag19
ag49
ag48
ag48
ag3
ag4
ag4
ag6
ag20
ag5
ag49
ag3
ag4
ag11
ag20
ag25
ag8
ag49
ag3
ag4
ag4
ag6
ag20
ag8
ag50
ag7
ag3
ag4
ag4
ag4
ag25
ag11
ag7
ag48
ag3
ag4
ag30
ag19
ag5
ag30
ag49
ag3
ag4
ag14
ag5
ag14
ag6
ag49
ag3
ag14
ag6
ag19
ag6
ag19
ag50
ag7
ag48
ag3
ag4
ag4
ag30
ag4
ag8
ag49
ag3
ag4
ag30
ag19
ag5
ag14
ag49
ag3
ag14
ag4
ag5
ag8
ag4
ag49
ag3
ag4
ag4
ag30
ag4
ag11
ag50
ag50
asS'M00082'
p210
(lp211
g48
ag3
ag14
ag14
ag30
ag6
ag30
ag49
ag48
ag3
ag4
ag30
ag14
ag6
ag4
ag35
ag3
ag4
ag14
ag11
ag6
ag14
ag49
ag3
ag14
ag14
ag30
ag6
ag19
ag50
ag35
ag48
ag3
ag4
ag14
ag11
ag6
ag30
ag35
ag3
ag4
ag14
ag11
ag6
ag19
ag49
ag3
ag14
ag8
ag20
ag5
ag30
ag50
ag50
ag7
ag48
ag3
ag4
ag4
ag6
ag6
ag25
ag49
ag3
ag4
ag4
ag6
ag6
ag5
ag35
ag3
ag4
ag4
ag6
ag6
ag8
ag49
ag3
ag14
ag14
ag25
ag19
ag19
ag49
ag48
ag3
ag4
ag4
ag6
ag20
ag25
ag7
ag48
ag3
ag4
ag4
ag6
ag20
ag8
ag49
ag3
ag14
ag8
ag20
ag5
ag19
ag50
ag50
ag50
asS'M00085'
p212
(lp213
g48
ag3
ag4
ag5
ag25
ag4
ag8
ag49
ag3
ag4
ag5
ag25
ag4
ag11
ag50
ag7
ag48
ag3
ag4
ag4
ag4
ag30
ag30
ag7
ag3
ag4
ag5
ag25
ag14
ag14
ag49
ag3
ag4
ag5
ag25
ag14
ag25
ag50
ag7
ag3
ag4
ag5
ag25
ag14
ag30
asS'M00670'
p214
(lp215
g3
ag4
ag30
ag4
ag6
ag5
ag35
ag3
ag4
ag30
ag4
ag6
ag6
ag35
ag3
ag4
ag30
ag4
ag6
ag25
ag35
ag3
ag14
ag8
ag20
ag8
ag14
asS'M00087'
p216
(lp217
g48
ag3
ag4
ag4
ag30
ag19
ag30
ag49
ag3
ag4
ag4
ag30
ag20
ag11
ag49
ag3
ag4
ag4
ag30
ag25
ag25
ag49
ag3
ag4
ag6
ag20
ag20
ag25
ag49
ag3
ag4
ag11
ag20
ag5
ag11
ag50
ag7
ag48
ag48
ag48
ag3
ag4
ag14
ag6
ag11
ag30
ag49
ag3
ag4
ag5
ag25
ag14
ag14
ag49
ag3
ag14
ag19
ag5
ag6
ag5
ag50
ag7
ag48
ag3
ag4
ag4
ag4
ag30
ag30
ag49
ag3
ag4
ag5
ag25
ag14
ag6
ag50
ag50
ag49
ag3
ag4
ag14
ag8
ag30
ag25
ag49
ag3
ag4
ag14
ag5
ag8
ag30
ag49
ag3
ag4
ag5
ag25
ag14
ag20
ag49
ag3
ag4
ag5
ag25
ag14
ag25
ag49
ag3
ag14
ag4
ag25
ag30
ag5
ag50
ag7
ag48
ag3
ag4
ag4
ag6
ag19
ag30
ag49
ag3
ag4
ag5
ag25
ag4
ag8
ag49
ag3
ag4
ag5
ag25
ag4
ag11
ag49
ag3
ag4
ag5
ag25
ag14
ag19
ag50
asS'M00086'
p218
(lp219
g3
ag4
ag14
ag8
ag11
ag5
ag49
ag3
ag14
ag25
ag4
ag14
ag19
asS'M00320'
p220
(lp221
g3
ag4
ag5
ag4
ag11
ag14
ag35
ag3
ag14
ag14
ag5
ag30
ag4
ag35
ag3
ag4
ag6
ag8
ag6
ag14
asS'M00298'
p222
(lp223
g3
ag14
ag14
ag4
ag25
ag14
ag35
ag3
ag14
ag14
ag4
ag25
ag4
asS'M00321'
p224
(lp225
g3
ag14
ag14
ag11
ag25
ag4
ag35
ag3
ag14
ag14
ag11
ag25
ag14
ag35
ag3
ag14
ag14
ag11
ag25
ag30
ag35
ag3
ag14
ag14
ag11
ag25
ag19
asS'M00589'
p226
(lp227
g3
ag14
ag5
ag4
ag5
ag19
ag35
ag3
ag14
ag5
ag4
ag5
ag20
ag35
ag3
ag14
ag5
ag4
ag5
ag6
asS'M00333'
p228
(lp229
g3
ag4
ag19
ag14
ag11
ag11
ag35
ag3
ag4
ag19
ag14
ag11
ag6
ag55
ag3
ag4
ag19
ag14
ag11
ag8
ag55
ag3
ag4
ag19
ag30
ag4
ag14
ag35
ag3
ag4
ag19
ag30
ag4
ag19
ag35
ag3
ag4
ag19
ag14
ag11
ag25
ag55
ag3
ag4
ag19
ag14
ag11
ag20
ag55
ag3
ag4
ag19
ag14
ag11
ag5
ag55
ag3
ag4
ag19
ag30
ag4
ag4
ag55
ag3
ag4
ag19
ag30
ag4
ag30
ag35
ag3
ag4
ag19
ag30
ag4
ag20
ag35
ag3
ag4
ag19
ag30
ag4
ag25
asS'M00332'
p230
(lp231
g3
ag4
ag19
ag30
ag30
ag20
ag35
ag3
ag4
ag19
ag30
ag30
ag6
ag35
ag3
ag4
ag19
ag30
ag30
ag5
ag35
ag3
ag4
ag19
ag30
ag30
ag8
ag35
ag3
ag4
ag19
ag30
ag30
ag11
ag35
ag3
ag4
ag19
ag30
ag19
ag4
ag35
ag3
ag4
ag19
ag30
ag30
ag25
ag55
ag3
ag4
ag19
ag30
ag30
ag19
ag55
ag3
ag4
ag20
ag4
ag25
ag20
ag35
ag3
ag4
ag19
ag30
ag30
ag30
ag55
ag3
ag4
ag19
ag30
ag30
ag4
ag35
ag3
ag4
ag19
ag30
ag14
ag11
ag55
ag3
ag4
ag19
ag30
ag30
ag14
ag55
ag3
ag4
ag20
ag4
ag25
ag5
ag55
ag3
ag4
ag20
ag4
ag25
ag6
ag55
ag3
ag4
ag20
ag4
ag25
ag19
ag55
ag3
ag4
ag20
ag4
ag25
ag11
ag55
ag3
ag4
ag20
ag4
ag25
ag8
asS'M00331'
p232
(lp233
g3
ag4
ag30
ag20
ag25
ag19
ag35
ag3
ag4
ag30
ag20
ag25
ag30
ag35
ag3
ag4
ag30
ag20
ag25
ag25
ag35
ag3
ag4
ag30
ag20
ag25
ag6
ag35
ag3
ag4
ag30
ag20
ag25
ag5
ag35
ag3
ag4
ag30
ag20
ag25
ag8
ag35
ag3
ag4
ag30
ag20
ag25
ag11
ag35
ag3
ag4
ag30
ag20
ag6
ag4
ag35
ag3
ag4
ag30
ag20
ag6
ag14
ag35
ag3
ag4
ag30
ag20
ag6
ag30
ag35
ag3
ag4
ag30
ag20
ag25
ag20
ag35
ag48
ag3
ag4
ag30
ag20
ag6
ag20
ag49
ag3
ag4
ag30
ag6
ag25
ag20
ag50
ag55
ag3
ag4
ag30
ag20
ag25
ag4
ag55
ag3
ag4
ag30
ag20
ag25
ag14
ag55
ag3
ag4
ag30
ag20
ag6
ag19
ag55
ag3
ag4
ag30
ag20
ag6
ag25
asS'M00330'
p234
(lp235
g3
ag14
ag30
ag25
ag20
ag14
ag35
ag3
ag14
ag30
ag25
ag20
ag30
ag35
ag3
ag14
ag30
ag25
ag20
ag19
asS'M00337'
p236
(lp237
g3
ag4
ag30
ag5
ag30
ag25
ag35
ag3
ag4
ag30
ag5
ag30
ag6
ag35
ag3
ag4
ag30
ag5
ag30
ag5
ag35
ag3
ag4
ag30
ag5
ag30
ag8
ag35
ag3
ag4
ag30
ag5
ag30
ag11
ag35
ag3
ag4
ag30
ag5
ag19
ag4
ag35
ag3
ag4
ag30
ag5
ag19
ag14
ag35
ag3
ag4
ag30
ag5
ag19
ag30
ag35
ag3
ag4
ag30
ag5
ag19
ag20
ag35
ag3
ag4
ag30
ag5
ag19
ag25
ag35
ag3
ag4
ag30
ag5
ag19
ag6
ag35
ag3
ag4
ag30
ag5
ag20
ag14
ag35
ag3
ag4
ag30
ag5
ag19
ag19
ag35
ag3
ag4
ag30
ag5
ag20
ag4
ag35
ag3
ag4
ag6
ag6
ag11
ag6
ag35
ag3
ag4
ag6
ag6
ag11
ag5
asS'M00336'
p238
(lp239
g3
ag4
ag19
ag14
ag14
ag6
ag55
ag3
ag4
ag19
ag14
ag14
ag5
ag35
ag3
ag4
ag19
ag14
ag14
ag8
ag55
ag3
ag4
ag19
ag20
ag30
ag25
asS'M00335'
p240
(lp241
g48
ag3
ag4
ag19
ag4
ag5
ag30
ag35
ag3
ag4
ag19
ag4
ag5
ag20
ag49
ag3
ag14
ag30
ag30
ag25
ag5
ag50
ag35
ag3
ag4
ag19
ag4
ag5
ag19
ag35
ag3
ag4
ag19
ag4
ag5
ag25
ag55
ag3
ag14
ag19
ag19
ag4
ag14
ag35
ag3
ag4
ag19
ag4
ag5
ag6
ag35
ag3
ag4
ag19
ag30
ag14
ag4
ag35
ag3
ag4
ag19
ag30
ag14
ag5
ag35
ag3
ag4
ag19
ag4
ag5
ag4
ag35
ag3
ag4
ag19
ag14
ag14
ag4
ag55
ag3
ag4
ag19
ag4
ag5
ag14
ag55
ag3
ag4
ag19
ag14
ag4
ag6
asS'M00334'
p242
(lp243
g48
ag3
ag14
ag14
ag11
ag4
ag30
ag49
ag3
ag14
ag14
ag11
ag14
ag4
ag49
ag3
ag14
ag14
ag11
ag14
ag14
ag50
ag35
ag3
ag14
ag14
ag11
ag4
ag14
ag35
ag3
ag14
ag14
ag11
ag4
ag4
ag35
ag3
ag14
ag14
ag11
ag4
ag19
ag35
ag48
ag3
ag14
ag14
ag8
ag11
ag5
ag49
ag3
ag14
ag14
ag11
ag4
ag25
ag49
ag3
ag14
ag14
ag11
ag14
ag11
ag50
ag35
ag3
ag14
ag14
ag8
ag11
ag6
ag35
ag3
ag14
ag14
ag8
ag11
ag25
ag35
ag3
ag14
ag14
ag11
ag4
ag5
ag35
ag3
ag14
ag14
ag11
ag4
ag20
ag35
ag3
ag14
ag14
ag11
ag4
ag6
ag35
ag3
ag14
ag14
ag8
ag11
ag19
ag35
ag3
ag14
ag14
ag8
ag11
ag30
ag35
ag3
ag14
ag14
ag8
ag11
ag14
asS'M00339'
p244
(lp245
g3
ag14
ag19
ag20
ag4
ag8
ag35
ag3
ag14
ag19
ag20
ag4
ag11
ag35
ag3
ag14
ag30
ag19
ag20
ag4
asS'M00338'
p246
(lp247
g48
ag3
ag4
ag14
ag6
ag11
ag5
ag49
ag3
ag14
ag4
ag14
ag25
ag4
ag50
ag7
ag3
ag4
ag14
ag5
ag25
ag8
asS'M00771'
p248
(lp249
g3
ag14
ag11
ag6
ag14
ag6
ag7
ag3
ag14
ag11
ag6
ag14
ag5
asS'M00238'
p250
(lp251
g3
ag4
ag30
ag4
ag5
ag19
ag35
ag3
ag4
ag30
ag4
ag5
ag30
ag35
ag3
ag4
ag30
ag4
ag5
ag14
asS'M00239'
p252
(lp253
g3
ag4
ag30
ag4
ag19
ag25
ag35
ag3
ag4
ag30
ag4
ag19
ag19
ag35
ag3
ag4
ag30
ag4
ag19
ag20
ag35
ag3
ag4
ag30
ag4
ag19
ag14
ag35
ag3
ag4
ag30
ag4
ag19
ag30
asS'M00232'
p254
(lp255
g3
ag4
ag11
ag11
ag6
ag11
ag35
ag3
ag4
ag11
ag11
ag5
ag4
ag35
ag3
ag4
ag11
ag11
ag5
ag14
ag35
ag3
ag4
ag11
ag11
ag5
ag30
asS'M00233'
p256
(lp257
g3
ag14
ag4
ag4
ag4
ag25
ag35
ag3
ag14
ag4
ag4
ag4
ag6
ag35
ag3
ag14
ag4
ag4
ag4
ag5
ag35
ag3
ag14
ag4
ag4
ag4
ag8
asS'M00230'
p258
(lp259
g3
ag14
ag4
ag4
ag4
ag14
ag35
ag3
ag14
ag4
ag4
ag4
ag30
ag35
ag3
ag14
ag4
ag4
ag4
ag19
ag35
ag3
ag14
ag4
ag4
ag4
ag20
asS'M00231'
p260
(lp261
g3
ag14
ag4
ag4
ag14
ag8
ag35
ag3
ag14
ag4
ag4
ag14
ag11
ag35
ag3
ag14
ag4
ag4
ag30
ag4
ag35
ag3
ag14
ag4
ag4
ag30
ag14
asS'M00236'
p262
(lp263
g3
ag4
ag30
ag4
ag19
ag4
ag35
ag3
ag4
ag30
ag4
ag30
ag11
ag35
ag3
ag4
ag30
ag4
ag30
ag8
asS'M00237'
p264
(lp265
g3
ag4
ag14
ag11
ag11
ag11
ag35
ag3
ag4
ag14
ag11
ag11
ag5
ag35
ag3
ag4
ag14
ag11
ag11
ag8
ag35
ag3
ag4
ag14
ag11
ag11
ag25
ag35
ag3
ag4
ag14
ag11
ag11
ag6
asS'M00234'
p266
(lp267
g3
ag4
ag30
ag20
ag30
ag20
ag35
ag3
ag14
ag4
ag4
ag4
ag11
ag35
ag3
ag14
ag4
ag4
ag14
ag4
asS'M00235'
p268
(lp269
g3
ag14
ag4
ag4
ag30
ag30
ag35
ag3
ag14
ag4
ag4
ag30
ag19
ag35
ag3
ag14
ag4
ag4
ag30
ag20
ag35
ag3
ag14
ag4
ag4
ag30
ag25
asS'M00786'
p270
(lp271
g3
ag14
ag8
ag30
ag8
ag14
ag7
ag3
ag14
ag20
ag14
ag19
ag30
ag7
ag3
ag14
ag5
ag20
ag5
ag25
ag7
ag3
ag14
ag8
ag30
ag8
ag4
ag7
ag3
ag14
ag5
ag8
ag30
ag5
ag7
ag3
ag14
ag5
ag8
ag30
ag6
ag7
ag3
ag14
ag20
ag14
ag19
ag20
ag7
ag3
ag14
ag5
ag8
ag30
ag25
ag7
ag3
ag14
ag8
ag30
ag5
ag11
asS'M00787'
p272
(lp273
g3
ag14
ag11
ag25
ag20
ag6
ag7
ag3
ag14
ag11
ag25
ag20
ag5
ag7
ag3
ag14
ag11
ag25
ag25
ag4
ag7
ag3
ag14
ag11
ag25
ag20
ag11
ag7
ag3
ag14
ag11
ag25
ag20
ag8
ag7
ag3
ag14
ag19
ag4
ag19
ag5
asS'M00784'
p274
(lp275
g3
ag14
ag11
ag25
ag6
ag6
ag7
ag3
ag14
ag11
ag25
ag6
ag5
ag7
ag3
ag14
ag11
ag25
ag6
ag8
ag7
ag3
ag14
ag11
ag25
ag6
ag11
ag7
ag3
ag14
ag11
ag25
ag5
ag4
asS'M00785'
p276
(lp277
g3
ag14
ag11
ag5
ag20
ag14
ag7
ag3
ag14
ag11
ag5
ag30
ag19
asS'M00782'
p278
(lp279
g3
ag14
ag25
ag11
ag25
ag11
ag7
ag3
ag14
ag25
ag11
ag6
ag4
ag7
ag3
ag14
ag25
ag11
ag6
ag14
ag7
ag3
ag14
ag25
ag11
ag6
ag19
ag7
ag3
ag14
ag25
ag11
ag6
ag20
ag7
ag3
ag14
ag25
ag11
ag6
ag25
ag7
ag3
ag14
ag25
ag11
ag6
ag6
ag7
ag3
ag14
ag25
ag11
ag6
ag5
asS'M00783'
p280
(lp281
g3
ag14
ag25
ag11
ag6
ag8
ag7
ag3
ag14
ag25
ag11
ag6
ag11
ag7
ag3
ag14
ag25
ag8
ag8
ag6
ag7
ag55
ag3
ag14
ag25
ag11
ag5
ag4
ag7
ag3
ag14
ag25
ag11
ag5
ag14
ag7
ag3
ag14
ag25
ag11
ag5
ag30
asS'M00780'
p282
(lp283
g3
ag14
ag20
ag30
ag25
ag14
ag7
ag3
ag14
ag20
ag30
ag25
ag30
ag7
ag3
ag14
ag20
ag30
ag25
ag19
ag7
ag3
ag14
ag20
ag30
ag25
ag20
ag7
ag3
ag14
ag20
ag30
ag25
ag25
ag7
ag3
ag14
ag20
ag30
ag25
ag6
ag7
ag3
ag30
ag14
ag19
ag4
ag14
asS'M00781'
p284
(lp285
g3
ag14
ag25
ag11
ag20
ag14
ag7
ag3
ag14
ag25
ag11
ag20
ag30
ag7
ag3
ag14
ag25
ag11
ag20
ag19
ag7
ag3
ag14
ag25
ag11
ag20
ag20
asS'M00788'
p286
(lp287
g3
ag14
ag11
ag8
ag19
ag25
ag7
ag3
ag14
ag11
ag8
ag19
ag20
asS'M00789'
p288
(lp289
g3
ag14
ag20
ag30
ag6
ag6
ag7
ag3
ag14
ag11
ag8
ag8
ag20
ag7
ag3
ag14
ag11
ag8
ag8
ag25
ag7
ag3
ag14
ag11
ag8
ag8
ag6
ag35
ag3
ag14
ag11
ag8
ag8
ag5
ag7
ag3
ag14
ag11
ag8
ag8
ag8
ag7
ag3
ag14
ag11
ag8
ag8
ag11
asS'M00369'
p290
(lp291
g3
ag14
ag19
ag4
ag30
ag5
ag7
ag3
ag14
ag19
ag4
ag30
ag11
ag7
ag3
ag14
ag19
ag4
ag19
ag4
asS'M00180'
p292
(lp293
g3
ag4
ag19
ag4
ag4
ag6
ag35
ag3
ag4
ag19
ag4
ag14
ag4
ag35
ag3
ag4
ag19
ag4
ag14
ag14
ag35
ag3
ag4
ag19
ag4
ag4
ag8
ag35
ag3
ag4
ag19
ag4
ag14
ag30
ag35
ag3
ag4
ag19
ag4
ag14
ag25
ag35
ag3
ag4
ag19
ag4
ag14
ag5
ag35
ag3
ag4
ag19
ag4
ag14
ag19
ag35
ag3
ag4
ag19
ag4
ag14
ag20
ag35
ag3
ag4
ag19
ag4
ag14
ag6
ag35
ag3
ag4
ag19
ag4
ag4
ag11
ag35
ag3
ag4
ag19
ag4
ag4
ag5
asS'M00346'
p294
(lp295
g3
ag4
ag4
ag6
ag4
ag4
ag7
ag3
ag4
ag4
ag8
ag19
ag4
ag7
ag3
ag4
ag4
ag4
ag14
ag8
ag7
ag3
ag14
ag14
ag25
ag30
ag11
ag7
ag3
ag4
ag14
ag6
ag8
ag11
ag7
ag3
ag4
ag14
ag25
ag11
ag25
ag7
ag3
ag4
ag4
ag4
ag30
ag20
ag7
ag3
ag4
ag8
ag6
ag11
ag30
ag35
ag3
ag14
ag20
ag4
ag6
ag5
ag7
ag3
ag4
ag8
ag6
ag11
ag14
asS'M00344'
p296
(lp297
g3
ag14
ag5
ag14
ag4
ag4
ag7
ag3
ag4
ag4
ag8
ag6
ag19
ag7
ag3
ag4
ag14
ag6
ag30
ag20
ag7
ag3
ag4
ag19
ag8
ag20
ag14
asS'M00345'
p298
(lp299
g48
ag48
ag3
ag4
ag8
ag4
ag11
ag19
ag49
ag3
ag14
ag19
ag8
ag14
ag30
ag50
ag7
ag3
ag4
ag8
ag4
ag11
ag20
ag49
ag3
ag14
ag19
ag8
ag19
ag14
ag50
ag7
ag48
ag3
ag4
ag4
ag8
ag25
ag4
ag49
ag3
ag14
ag6
ag19
ag5
ag4
ag50
ag7
ag3
ag4
ag14
ag6
ag30
ag20
asS'M00342'
p300
(lp301
g3
ag4
ag19
ag20
ag19
ag30
ag35
ag3
ag4
ag19
ag20
ag19
ag19
ag35
ag3
ag14
ag19
ag25
ag30
ag5
ag35
ag3
ag14
ag19
ag25
ag5
ag14
asS'M00343'
p302
(lp303
g3
ag4
ag19
ag20
ag19
ag30
ag35
ag3
ag4
ag19
ag20
ag19
ag19
ag35
ag3
ag4
ag19
ag20
ag30
ag4
asS'M00340'
p304
(lp305
g3
ag4
ag30
ag5
ag30
ag25
ag35
ag3
ag4
ag30
ag5
ag30
ag6
ag35
ag3
ag4
ag30
ag5
ag30
ag5
ag35
ag3
ag4
ag30
ag5
ag30
ag8
ag35
ag3
ag4
ag30
ag5
ag30
ag11
ag35
ag3
ag4
ag30
ag5
ag19
ag4
ag35
ag3
ag4
ag30
ag5
ag19
ag14
ag35
ag3
ag4
ag30
ag5
ag19
ag30
ag35
ag3
ag4
ag30
ag5
ag19
ag20
ag35
ag3
ag4
ag30
ag5
ag19
ag25
ag35
ag3
ag4
ag30
ag5
ag19
ag6
ag35
ag3
ag4
ag30
ag5
ag19
ag5
ag35
ag3
ag4
ag30
ag5
ag19
ag8
ag35
ag3
ag4
ag30
ag5
ag19
ag11
asS'M00341'
p306
(lp307
g3
ag4
ag19
ag4
ag6
ag14
ag35
ag3
ag4
ag19
ag4
ag6
ag30
ag35
ag3
ag4
ag19
ag4
ag6
ag19
ag35
ag3
ag4
ag19
ag4
ag6
ag20
ag35
ag3
ag4
ag19
ag4
ag6
ag25
ag35
ag3
ag4
ag19
ag4
ag6
ag6
ag35
ag3
ag4
ag19
ag4
ag30
ag8
ag35
ag3
ag4
ag19
ag4
ag19
ag30
ag35
ag3
ag4
ag19
ag4
ag19
ag19
ag35
ag3
ag4
ag19
ag4
ag19
ag25
ag35
ag3
ag4
ag19
ag4
ag19
ag6
ag35
ag3
ag4
ag19
ag4
ag19
ag5
ag35
ag3
ag4
ag19
ag4
ag19
ag8
ag35
ag3
ag4
ag19
ag4
ag19
ag11
ag35
ag3
ag4
ag19
ag4
ag30
ag11
ag35
ag3
ag4
ag19
ag4
ag19
ag4
ag35
ag3
ag4
ag19
ag4
ag19
ag14
ag35
ag3
ag4
ag6
ag6
ag11
ag14
ag35
ag3
ag14
ag4
ag8
ag8
ag14
asS'M00427'
p308
(lp309
g3
ag4
ag11
ag30
ag11
ag14
ag35
ag3
ag14
ag20
ag30
ag11
ag25
ag35
ag3
ag14
ag20
ag30
ag11
ag6
ag35
ag3
ag4
ag19
ag19
ag20
ag25
ag35
ag3
ag14
ag20
ag30
ag11
ag5
ag35
ag3
ag14
ag20
ag30
ag11
ag8
ag35
ag3
ag14
ag20
ag4
ag4
ag20
ag35
ag3
ag14
ag20
ag30
ag11
ag11
ag35
ag3
ag14
ag20
ag19
ag4
ag4
ag35
ag3
ag14
ag20
ag19
ag4
ag14
ag35
ag3
ag14
ag20
ag19
ag4
ag30
ag35
ag3
ag14
ag20
ag19
ag4
ag19
ag35
ag3
ag14
ag20
ag19
ag4
ag20
ag35
ag3
ag14
ag20
ag19
ag4
ag25
ag35
ag3
ag14
ag20
ag19
ag4
ag6
ag35
ag3
ag14
ag20
ag19
ag4
ag5
ag35
ag3
ag14
ag20
ag19
ag4
ag8
ag35
ag3
ag14
ag20
ag19
ag4
ag11
ag35
ag3
ag14
ag20
ag19
ag14
ag4
ag35
ag3
ag14
ag20
ag19
ag14
ag14
ag35
ag3
ag14
ag20
ag19
ag14
ag30
ag35
ag3
ag14
ag20
ag19
ag14
ag19
ag35
ag3
ag14
ag20
ag19
ag14
ag20
ag35
ag3
ag14
ag20
ag19
ag14
ag25
ag35
ag3
ag14
ag20
ag19
ag14
ag6
ag35
ag3
ag14
ag20
ag19
ag14
ag5
ag35
ag3
ag14
ag20
ag19
ag14
ag8
ag35
ag3
ag14
ag30
ag14
ag5
ag30
ag35
ag3
ag14
ag20
ag19
ag14
ag11
ag35
ag3
ag14
ag4
ag25
ag5
ag5
ag35
ag3
ag14
ag30
ag14
ag6
ag4
ag35
ag3
ag14
ag20
ag19
ag30
ag4
ag35
ag3
ag14
ag20
ag19
ag30
ag14
asS'M00426'
p310
(lp311
g3
ag14
ag19
ag14
ag30
ag11
ag35
ag3
ag14
ag19
ag14
ag19
ag4
ag55
ag3
ag14
ag19
ag14
ag19
ag14
ag55
ag3
ag14
ag19
ag14
ag19
ag30
ag55
ag3
ag14
ag19
ag14
ag19
ag19
ag55
ag3
ag14
ag19
ag14
ag19
ag20
ag55
ag3
ag14
ag19
ag14
ag19
ag25
ag55
ag3
ag14
ag19
ag14
ag19
ag6
ag55
ag3
ag14
ag19
ag14
ag19
ag5
asS'M00425'
p312
(lp313
g3
ag14
ag14
ag14
ag30
ag8
ag35
ag3
ag14
ag14
ag14
ag30
ag11
ag35
ag3
ag14
ag14
ag14
ag19
ag4
ag35
ag3
ag14
ag14
ag14
ag19
ag14
asS'M00424'
p314
(lp315
g3
ag14
ag14
ag14
ag4
ag11
ag35
ag3
ag14
ag14
ag14
ag14
ag4
ag35
ag3
ag14
ag14
ag14
ag14
ag14
ag35
ag3
ag14
ag14
ag14
ag14
ag30
ag35
ag3
ag14
ag14
ag14
ag14
ag19
ag55
ag3
ag14
ag14
ag14
ag14
ag20
asS'M00423'
p316
(lp317
g3
ag14
ag25
ag20
ag11
ag25
ag35
ag3
ag14
ag25
ag20
ag11
ag6
ag35
ag3
ag14
ag25
ag20
ag11
ag5
asS'M00422'
p318
(lp319
g3
ag4
ag4
ag14
ag11
ag30
ag35
ag3
ag4
ag4
ag14
ag11
ag25
ag7
ag3
ag4
ag4
ag14
ag11
ag19
ag35
ag3
ag4
ag4
ag14
ag11
ag5
ag35
ag3
ag4
ag4
ag14
ag11
ag20
asS'M00348'
p320
(lp321
g3
ag14
ag19
ag8
ag8
ag11
ag35
ag3
ag14
ag19
ag8
ag11
ag4
ag35
ag3
ag14
ag19
ag8
ag11
ag14
ag35
ag3
ag14
ag19
ag8
ag11
ag30
asS'M00349'
p322
(lp323
g3
ag14
ag19
ag8
ag11
ag19
ag35
ag3
ag14
ag19
ag8
ag11
ag20
ag35
ag3
ag14
ag19
ag8
ag11
ag25
ag35
ag3
ag14
ag19
ag8
ag11
ag6
asS'M00648'
p324
(lp325
g3
ag4
ag5
ag6
ag20
ag30
ag7
ag3
ag4
ag5
ag6
ag6
ag20
ag7
ag3
ag4
ag5
ag5
ag11
ag11
ag35
ag3
ag4
ag5
ag5
ag8
ag8
ag35
ag3
ag4
ag5
ag5
ag8
ag11
asS'M00522'
p326
(lp327
g3
ag14
ag20
ag11
ag8
ag8
ag7
ag3
ag14
ag20
ag11
ag8
ag11
asS'M00523'
p328
(lp329
g3
ag14
ag25
ag4
ag14
ag14
ag7
ag3
ag14
ag25
ag4
ag14
ag30
asS'M00520'
p330
(lp331
g3
ag14
ag20
ag11
ag8
ag4
ag7
ag3
ag14
ag20
ag11
ag8
ag14
asS'M00521'
p332
(lp333
g3
ag14
ag20
ag11
ag8
ag30
ag7
ag3
ag14
ag20
ag11
ag8
ag19
asS'M00526'
p334
(lp335
g48
ag3
ag4
ag4
ag11
ag30
ag8
ag49
ag3
ag14
ag30
ag25
ag30
ag20
ag49
ag3
ag14
ag30
ag25
ag30
ag25
ag49
ag3
ag14
ag30
ag25
ag30
ag6
ag50
ag7
ag3
ag4
ag4
ag14
ag19
ag19
ag7
ag3
ag4
ag14
ag5
ag14
ag20
ag7
ag3
ag4
ag4
ag30
ag14
ag25
ag7
ag3
ag4
ag19
ag19
ag20
ag4
ag7
ag48
ag3
ag4
ag14
ag25
ag8
ag6
ag49
ag3
ag14
ag30
ag25
ag30
ag6
ag50
asS'M00527'
p336
(lp337
g48
ag3
ag4
ag4
ag11
ag30
ag8
ag49
ag3
ag14
ag30
ag25
ag30
ag20
ag49
ag3
ag14
ag30
ag25
ag30
ag25
ag49
ag3
ag14
ag30
ag25
ag30
ag6
ag50
ag7
ag3
ag4
ag4
ag14
ag19
ag19
ag7
ag3
ag4
ag14
ag5
ag14
ag20
ag7
ag3
ag4
ag4
ag30
ag14
ag25
ag7
ag3
ag14
ag4
ag30
ag4
ag6
ag7
ag3
ag4
ag14
ag5
ag5
ag8
ag7
ag48
ag3
ag4
ag14
ag25
ag8
ag6
ag49
ag3
ag14
ag30
ag25
ag30
ag6
ag50
asS'M00524'
p338
(lp339
g3
ag14
ag20
ag11
ag8
ag6
ag7
ag3
ag14
ag20
ag11
ag8
ag5
asS'M00525'
p340
(lp341
g3
ag4
ag4
ag11
ag30
ag8
ag7
ag3
ag4
ag4
ag14
ag19
ag19
ag7
ag3
ag4
ag14
ag5
ag14
ag20
ag7
ag3
ag4
ag4
ag30
ag14
ag25
ag7
ag3
ag4
ag25
ag8
ag30
ag30
ag7
ag3
ag4
ag4
ag8
ag20
ag14
ag7
ag3
ag4
ag25
ag8
ag30
ag19
ag7
ag3
ag4
ag14
ag5
ag5
ag8
ag7
ag3
ag4
ag14
ag25
ag8
ag6
asS'M00643'
p342
(lp343
g3
ag14
ag8
ag14
ag30
ag11
ag7
ag3
ag14
ag8
ag4
ag11
ag20
ag35
ag3
ag14
ag8
ag4
ag11
ag25
ag35
ag3
ag14
ag8
ag14
ag19
ag11
asS'M00642'
p344
(lp345
g3
ag14
ag8
ag19
ag4
ag14
ag7
ag3
ag14
ag8
ag19
ag4
ag30
ag35
ag3
ag14
ag8
ag19
ag4
ag19
ag55
ag3
ag14
ag8
ag14
ag19
ag11
asS'M00528'
p346
(lp347
g3
ag14
ag4
ag11
ag20
ag20
ag35
ag3
ag14
ag4
ag11
ag20
ag25
ag35
ag3
ag14
ag4
ag11
ag20
ag6
ag7
ag3
ag14
ag4
ag25
ag19
ag25
asS'M00529'
p348
(lp349
g48
ag3
ag4
ag4
ag19
ag5
ag4
ag35
ag3
ag4
ag4
ag19
ag5
ag14
ag35
ag3
ag4
ag4
ag19
ag5
ag20
ag49
ag3
ag4
ag30
ag25
ag6
ag5
ag35
ag3
ag4
ag30
ag25
ag6
ag8
ag50
ag7
ag48
ag3
ag4
ag4
ag19
ag6
ag8
ag49
ag3
ag14
ag25
ag8
ag6
ag20
ag50
ag7
ag48
ag3
ag4
ag20
ag25
ag6
ag14
ag35
ag3
ag4
ag30
ag19
ag4
ag25
ag49
ag3
ag14
ag25
ag8
ag5
ag5
ag50
ag7
ag3
ag4
ag4
ag19
ag5
ag6
asS'M00647'
p350
(lp351
g48
ag3
ag4
ag19
ag25
ag5
ag5
ag49
ag3
ag14
ag8
ag11
ag11
ag30
ag49
ag3
ag14
ag19
ag6
ag19
ag30
ag49
ag3
ag14
ag19
ag6
ag19
ag14
ag49
ag3
ag4
ag25
ag8
ag4
ag20
ag49
ag3
ag14
ag8
ag19
ag30
ag25
ag49
ag3
ag14
ag8
ag11
ag11
ag14
ag50
ag7
ag48
ag3
ag4
ag19
ag25
ag8
ag25
ag35
ag3
ag14
ag8
ag14
ag19
ag8
ag35
ag48
ag3
ag14
ag8
ag14
ag19
ag11
ag49
ag3
ag14
ag30
ag19
ag20
ag4
ag50
ag50
asS'M00641'
p352
(lp353
g3
ag14
ag8
ag30
ag11
ag5
ag7
ag3
ag14
ag8
ag30
ag11
ag8
ag35
ag3
ag14
ag8
ag30
ag11
ag11
ag55
ag3
ag14
ag8
ag19
ag4
ag4
asS'M00645'
p354
(lp355
g3
ag4
ag5
ag6
ag20
ag30
ag7
ag3
ag4
ag5
ag6
ag6
ag20
ag7
ag3
ag14
ag8
ag19
ag30
ag14
ag35
ag3
ag14
ag8
ag19
ag30
ag30
ag35
ag3
ag14
ag8
ag19
ag30
ag19
asS'M00644'
p356
(lp357
g3
ag14
ag8
ag19
ag4
ag20
ag7
ag3
ag14
ag8
ag4
ag11
ag11
ag7
ag3
ag14
ag8
ag19
ag4
ag25
ag35
ag3
ag14
ag8
ag19
ag4
ag6
ag35
ag3
ag14
ag8
ag19
ag4
ag5
ag55
ag3
ag14
ag8
ag19
ag4
ag8
asS'M00646'
p358
(lp359
g3
ag4
ag5
ag6
ag20
ag30
ag7
ag3
ag4
ag5
ag6
ag6
ag20
ag7
ag3
ag4
ag19
ag25
ag8
ag25
ag35
ag3
ag14
ag8
ag19
ag30
ag20
ag35
ag3
ag14
ag30
ag19
ag20
ag4
asS'M00162'
p360
(lp361
g3
ag4
ag30
ag6
ag19
ag25
ag35
ag3
ag4
ag30
ag6
ag19
ag5
ag35
ag3
ag4
ag30
ag6
ag19
ag20
ag35
ag3
ag4
ag30
ag6
ag19
ag6
ag35
ag3
ag4
ag30
ag6
ag20
ag30
ag35
ag3
ag4
ag30
ag6
ag20
ag19
ag35
ag3
ag4
ag19
ag6
ag8
ag11
ag35
ag3
ag4
ag30
ag6
ag20
ag4
asS'M00163'
p362
(lp363
g3
ag4
ag30
ag6
ag8
ag11
ag35
ag3
ag4
ag30
ag6
ag11
ag4
ag35
ag3
ag4
ag30
ag6
ag11
ag14
ag35
ag3
ag4
ag30
ag6
ag11
ag30
ag35
ag3
ag4
ag30
ag6
ag11
ag19
ag35
ag3
ag4
ag30
ag6
ag11
ag20
asS'M00160'
p364
(lp365
g3
ag4
ag30
ag14
ag20
ag25
ag35
ag3
ag4
ag30
ag14
ag20
ag5
ag35
ag3
ag4
ag30
ag14
ag20
ag8
ag35
ag3
ag4
ag30
ag14
ag20
ag11
ag35
ag3
ag4
ag30
ag14
ag25
ag4
ag35
ag3
ag4
ag30
ag14
ag25
ag14
ag35
ag3
ag4
ag30
ag14
ag25
ag30
ag35
ag3
ag4
ag30
ag14
ag20
ag20
ag35
ag3
ag4
ag30
ag14
ag25
ag20
ag35
ag48
ag3
ag4
ag19
ag6
ag6
ag14
ag49
ag3
ag4
ag30
ag14
ag25
ag25
ag50
ag35
ag3
ag4
ag30
ag14
ag20
ag6
ag35
ag3
ag4
ag30
ag14
ag25
ag19
ag35
ag3
ag4
ag19
ag6
ag6
ag30
asS'M00161'
p366
(lp367
g3
ag4
ag30
ag5
ag4
ag19
ag35
ag3
ag4
ag30
ag5
ag4
ag6
ag35
ag3
ag4
ag30
ag5
ag4
ag25
ag35
ag3
ag4
ag30
ag5
ag4
ag20
ag35
ag3
ag4
ag30
ag5
ag4
ag5
ag35
ag3
ag4
ag30
ag5
ag4
ag8
asS'M00166'
p368
(lp369
g3
ag4
ag4
ag8
ag25
ag25
ag7
ag48
ag3
ag4
ag14
ag6
ag4
ag14
ag55
ag3
ag4
ag14
ag6
ag4
ag30
ag50
ag7
ag3
ag4
ag4
ag11
ag30
ag5
ag7
ag48
ag3
ag4
ag25
ag30
ag11
ag8
ag49
ag3
ag4
ag4
ag14
ag25
ag4
ag49
ag3
ag4
ag4
ag14
ag19
ag20
ag50
asS'M00167'
p370
(lp371
g48
ag3
ag4
ag14
ag6
ag30
ag19
ag49
ag3
ag4
ag14
ag6
ag30
ag20
ag50
ag7
ag48
ag3
ag4
ag19
ag8
ag20
ag14
ag49
ag3
ag4
ag30
ag20
ag20
ag6
ag49
ag3
ag14
ag14
ag25
ag19
ag30
ag49
ag3
ag4
ag14
ag4
ag8
ag6
ag49
ag3
ag4
ag20
ag4
ag20
ag14
ag50
ag7
ag3
ag4
ag4
ag6
ag14
ag25
ag7
ag48
ag3
ag4
ag14
ag6
ag30
ag19
ag49
ag3
ag4
ag14
ag6
ag30
ag20
ag50
ag7
ag48
ag3
ag4
ag14
ag14
ag4
ag4
ag49
ag3
ag14
ag14
ag25
ag19
ag30
ag49
ag3
ag4
ag14
ag4
ag8
ag6
ag50
ag7
ag3
ag4
ag4
ag6
ag14
ag25
ag7
ag48
ag3
ag4
ag14
ag8
ag4
ag5
ag49
ag3
ag4
ag14
ag8
ag4
ag8
ag50
asS'M00165'
p372
(lp373
g3
ag4
ag4
ag8
ag25
ag25
ag7
ag48
ag3
ag4
ag14
ag6
ag4
ag14
ag55
ag3
ag4
ag14
ag6
ag4
ag30
ag50
ag7
ag3
ag4
ag4
ag11
ag30
ag5
ag7
ag48
ag3
ag4
ag25
ag30
ag11
ag8
ag49
ag3
ag4
ag4
ag14
ag25
ag4
ag49
ag3
ag4
ag4
ag14
ag19
ag20
ag50
ag7
ag48
ag3
ag4
ag14
ag6
ag30
ag19
ag49
ag3
ag4
ag14
ag6
ag30
ag20
ag50
ag7
ag48
ag3
ag4
ag19
ag8
ag20
ag14
ag49
ag3
ag4
ag30
ag20
ag20
ag6
ag49
ag3
ag14
ag14
ag25
ag19
ag30
ag49
ag3
ag4
ag14
ag4
ag8
ag6
ag49
ag3
ag4
ag20
ag4
ag20
ag14
ag50
ag7
ag3
ag4
ag4
ag6
ag14
ag25
ag7
ag48
ag3
ag4
ag14
ag6
ag30
ag19
ag49
ag3
ag4
ag14
ag6
ag30
ag20
ag50
ag7
ag48
ag3
ag4
ag14
ag14
ag4
ag4
ag49
ag3
ag14
ag14
ag25
ag19
ag30
ag49
ag3
ag4
ag14
ag4
ag8
ag6
ag50
ag7
ag3
ag4
ag4
ag6
ag14
ag25
ag7
ag48
ag3
ag4
ag14
ag8
ag4
ag5
ag49
ag3
ag4
ag14
ag8
ag4
ag8
ag50
asS'M00283'
p374
(lp375
g3
ag4
ag30
ag8
ag30
ag14
ag35
ag3
ag4
ag30
ag8
ag30
ag30
ag35
ag3
ag4
ag19
ag20
ag5
ag25
asS'M00282'
p376
(lp377
g3
ag4
ag30
ag5
ag6
ag19
ag35
ag3
ag4
ag30
ag5
ag6
ag20
ag35
ag3
ag4
ag30
ag5
ag6
ag25
asS'M00168'
p378
(lp379
g3
ag4
ag14
ag25
ag11
ag25
ag7
ag48
ag3
ag4
ag4
ag4
ag30
ag25
ag49
ag3
ag4
ag4
ag4
ag30
ag6
ag49
ag3
ag4
ag4
ag4
ag30
ag20
ag50
asS'M00169'
p380
(lp381
g3
ag4
ag4
ag4
ag30
ag11
ag7
ag3
ag4
ag14
ag4
ag4
ag6
asS'M00287'
p382
(lp383
g3
ag4
ag30
ag5
ag20
ag20
ag35
ag3
ag14
ag4
ag11
ag8
ag20
ag35
ag3
ag14
ag4
ag11
ag8
ag25
ag35
ag3
ag14
ag4
ag11
ag8
ag6
asS'M00286'
p384
(lp385
g3
ag14
ag4
ag5
ag19
ag30
ag35
ag3
ag14
ag4
ag5
ag19
ag19
ag35
ag3
ag14
ag4
ag5
ag19
ag20
ag35
ag3
ag14
ag4
ag5
ag19
ag25
asS'M00285'
p386
(lp387
g3
ag4
ag30
ag25
ag20
ag4
ag35
ag3
ag4
ag30
ag25
ag20
ag14
ag35
ag3
ag4
ag30
ag30
ag14
ag30
ag35
ag3
ag4
ag30
ag30
ag4
ag11
ag35
ag3
ag4
ag30
ag25
ag20
ag30
ag35
ag3
ag4
ag30
ag30
ag14
ag4
asS'M00284'
p388
(lp389
g3
ag4
ag30
ag6
ag4
ag19
ag35
ag3
ag4
ag30
ag6
ag4
ag20
ag35
ag3
ag4
ag30
ag6
ag4
ag25
ag35
ag3
ag4
ag30
ag6
ag4
ag6
ag35
ag3
ag4
ag30
ag6
ag4
ag5
ag35
ag3
ag4
ag30
ag6
ag4
ag8
asS'M00737'
p390
(lp391
g3
ag14
ag11
ag4
ag8
ag19
ag35
ag3
ag14
ag11
ag4
ag8
ag20
ag7
ag3
ag14
ag11
ag4
ag8
ag14
ag7
ag3
ag14
ag11
ag4
ag8
ag30
ag7
ag3
ag14
ag14
ag6
ag19
ag14
ag35
ag3
ag14
ag14
ag6
ag19
ag30
asS'M00736'
p392
(lp393
g3
ag14
ag11
ag14
ag4
ag30
ag35
ag3
ag14
ag11
ag14
ag4
ag19
ag35
ag3
ag4
ag25
ag19
ag5
ag25
ag7
ag3
ag14
ag11
ag14
ag4
ag20
ag7
ag3
ag14
ag11
ag14
ag4
ag25
ag7
ag3
ag14
ag11
ag14
ag4
ag6
asS'M00734'
p394
(lp395
g3
ag14
ag11
ag4
ag8
ag14
ag7
ag3
ag14
ag11
ag4
ag8
ag30
asS'M00733'
p396
(lp397
g3
ag14
ag11
ag4
ag5
ag5
ag7
ag3
ag14
ag11
ag4
ag5
ag8
asS'M00732'
p398
(lp399
g3
ag14
ag11
ag4
ag8
ag4
ag35
ag3
ag14
ag11
ag4
ag5
ag11
asS'M00731'
p400
(lp401
g3
ag14
ag11
ag4
ag8
ag20
ag35
ag3
ag14
ag11
ag4
ag8
ag19
asS'M00730'
p402
(lp403
g3
ag14
ag11
ag4
ag5
ag5
ag7
ag3
ag14
ag11
ag4
ag5
ag8
ag7
ag3
ag14
ag11
ag4
ag5
ag11
ag35
ag3
ag14
ag11
ag4
ag8
ag4
asS'M00045'
p404
(lp405
g3
ag4
ag14
ag5
ag20
ag25
ag7
ag3
ag4
ag14
ag5
ag14
ag30
ag7
ag3
ag4
ag14
ag20
ag6
ag8
ag7
ag3
ag4
ag14
ag20
ag5
ag11
asS'M00044'
p406
(lp407
g3
ag4
ag19
ag19
ag19
ag20
ag7
ag3
ag4
ag4
ag20
ag25
ag5
ag7
ag3
ag4
ag4
ag20
ag25
ag14
ag7
ag3
ag4
ag14
ag8
ag4
ag4
ag7
ag48
ag3
ag4
ag14
ag25
ag25
ag25
ag49
ag3
ag14
ag6
ag14
ag5
ag14
ag50
asS'M00047'
p408
(lp409
g3
ag4
ag4
ag6
ag14
ag19
ag7
ag3
ag4
ag4
ag25
ag20
ag30
ag7
ag3
ag4
ag4
ag11
ag19
ag19
asS'M00046'
p410
(lp411
g3
ag4
ag4
ag30
ag4
ag5
ag49
ag3
ag14
ag5
ag5
ag30
ag30
ag35
ag3
ag14
ag5
ag5
ag30
ag19
ag7
ag3
ag4
ag14
ag20
ag6
ag20
ag7
ag3
ag4
ag14
ag20
ag19
ag14
ag49
ag3
ag4
ag6
ag4
ag14
ag6
asS'M00040'
p412
(lp413
g48
ag3
ag4
ag4
ag8
ag19
ag30
ag49
ag3
ag14
ag25
ag8
ag20
ag11
ag50
ag7
ag48
ag3
ag4
ag4
ag30
ag30
ag4
ag49
ag3
ag14
ag25
ag30
ag30
ag6
ag49
ag3
ag14
ag25
ag30
ag30
ag5
ag50
asS'M00739'
p414
(lp415
g3
ag14
ag11
ag30
ag30
ag6
ag35
ag3
ag14
ag11
ag30
ag30
ag5
ag35
ag3
ag14
ag11
ag30
ag30
ag8
ag35
ag3
ag14
ag11
ag30
ag30
ag11
ag35
ag3
ag14
ag11
ag30
ag19
ag4
asS'M00042'
p416
(lp417
g48
ag3
ag4
ag4
ag25
ag4
ag25
ag49
ag3
ag4
ag4
ag25
ag4
ag14
ag50
ag7
ag48
ag3
ag4
ag14
ag25
ag11
ag30
ag49
ag3
ag4
ag14
ag25
ag11
ag19
ag50
ag7
ag3
ag4
ag4
ag25
ag4
ag19
ag7
ag3
ag4
ag4
ag25
ag25
ag19
asS'M00638'
p418
(lp419
g3
ag14
ag8
ag30
ag20
ag30
ag35
ag3
ag14
ag8
ag30
ag20
ag19
ag35
ag3
ag14
ag20
ag25
ag5
ag8
ag35
ag3
ag14
ag20
ag25
ag8
ag14
asS'M00639'
p420
(lp421
g3
ag14
ag8
ag30
ag11
ag20
ag7
ag3
ag14
ag8
ag30
ag11
ag25
ag35
ag3
ag14
ag8
ag30
ag11
ag6
ag55
ag3
ag4
ag8
ag5
ag30
ag14
asS'M00636'
p422
(lp423
g3
ag14
ag8
ag30
ag25
ag14
ag35
ag3
ag14
ag8
ag30
ag25
ag30
ag55
ag3
ag14
ag8
ag30
ag25
ag19
ag55
ag3
ag14
ag8
ag30
ag25
ag20
ag7
ag3
ag14
ag8
ag30
ag25
ag25
ag7
ag3
ag14
ag8
ag30
ag25
ag6
asS'M00637'
p424
(lp425
g48
ag3
ag4
ag25
ag25
ag11
ag11
ag35
ag3
ag4
ag25
ag6
ag4
ag4
ag35
ag3
ag14
ag14
ag19
ag14
ag14
ag49
ag3
ag14
ag6
ag19
ag14
ag11
ag35
ag3
ag14
ag6
ag19
ag30
ag4
ag35
ag3
ag14
ag8
ag30
ag20
ag8
ag35
ag3
ag14
ag8
ag30
ag20
ag11
ag50
asS'M00634'
p426
(lp427
g3
ag14
ag8
ag30
ag19
ag19
ag35
ag3
ag14
ag8
ag30
ag19
ag30
asS'M00635'
p428
(lp429
g3
ag14
ag8
ag30
ag14
ag6
ag35
ag3
ag14
ag8
ag30
ag14
ag5
asS'M00632'
p430
(lp431
g3
ag4
ag14
ag5
ag8
ag25
ag7
ag3
ag4
ag4
ag8
ag20
ag11
ag7
ag3
ag4
ag4
ag11
ag6
ag25
ag7
ag3
ag4
ag14
ag5
ag8
ag20
asS'M00633'
p432
(lp433
g3
ag4
ag25
ag19
ag4
ag8
ag7
ag3
ag14
ag8
ag14
ag30
ag6
ag7
ag3
ag14
ag14
ag19
ag11
ag25
ag7
ag48
ag3
ag4
ag4
ag14
ag19
ag14
ag49
ag3
ag14
ag8
ag11
ag5
ag8
ag50
asS'M00630'
p434
(lp435
g48
ag3
ag14
ag8
ag14
ag4
ag6
ag49
ag3
ag14
ag11
ag6
ag19
ag20
ag50
ag7
ag3
ag14
ag8
ag14
ag4
ag30
ag7
ag3
ag14
ag8
ag14
ag4
ag19
ag7
ag3
ag14
ag8
ag14
ag4
ag5
asS'M00631'
p436
(lp437
g3
ag4
ag14
ag8
ag14
ag30
ag7
ag3
ag4
ag4
ag4
ag20
ag14
ag7
ag48
ag3
ag4
ag14
ag6
ag8
ag25
ag49
ag3
ag14
ag6
ag8
ag20
ag11
ag35
ag3
ag14
ag6
ag8
ag25
ag4
ag50
ag7
ag3
ag4
ag4
ag8
ag5
ag20
ag7
ag48
ag3
ag4
ag14
ag6
ag30
ag25
ag49
ag3
ag14
ag5
ag20
ag6
ag19
ag50
asS'M00823'
p438
(lp439
g3
ag14
ag20
ag30
ag25
ag14
ag7
ag3
ag14
ag20
ag30
ag25
ag30
ag7
ag3
ag14
ag20
ag30
ag25
ag19
ag7
ag3
ag14
ag20
ag30
ag25
ag20
ag7
ag3
ag14
ag20
ag30
ag25
ag25
ag7
ag3
ag14
ag20
ag30
ag25
ag6
ag7
ag3
ag30
ag14
ag19
ag4
ag14
ag7
ag3
ag14
ag20
ag30
ag25
ag5
ag35
ag3
ag30
ag14
ag30
ag11
ag5
asS'M00822'
p440
(lp441
g3
ag30
ag14
ag14
ag19
ag25
ag35
ag3
ag30
ag14
ag14
ag19
ag19
ag35
ag3
ag14
ag8
ag14
ag19
ag11
asS'M00821'
p442
(lp443
g3
ag30
ag14
ag14
ag19
ag6
ag35
ag3
ag30
ag14
ag14
ag19
ag5
ag35
ag3
ag30
ag14
ag14
ag19
ag20
ag35
ag3
ag14
ag30
ag19
ag20
ag4
asS'M00820'
p444
(lp445
g3
ag30
ag4
ag11
ag5
ag19
ag49
ag3
ag30
ag4
ag11
ag5
ag20
ag49
ag3
ag30
ag4
ag11
ag5
ag25
ag7
ag3
ag30
ag4
ag11
ag5
ag6
ag7
ag3
ag30
ag4
ag11
ag5
ag5
asS'M00827'
p446
(lp447
g3
ag30
ag14
ag14
ag8
ag19
asS'M00826'
p448
(lp449
g3
ag30
ag4
ag14
ag25
ag11
ag35
ag3
ag30
ag14
ag14
ag5
ag25
ag7
ag3
ag30
ag4
ag14
ag25
ag6
ag7
ag3
ag30
ag14
ag14
ag5
ag6
ag7
ag3
ag30
ag14
ag14
ag5
ag5
ag7
ag3
ag30
ag14
ag14
ag5
ag8
ag7
ag3
ag30
ag14
ag14
ag5
ag11
asS'M00825'
p450
(lp451
g3
ag14
ag25
ag19
ag14
ag20
ag7
ag3
ag30
ag14
ag14
ag6
ag8
ag35
ag3
ag30
ag14
ag14
ag6
ag11
ag35
ag3
ag30
ag14
ag14
ag5
ag4
ag35
ag3
ag30
ag14
ag14
ag5
ag14
ag35
ag3
ag30
ag14
ag14
ag5
ag30
ag35
ag3
ag30
ag14
ag14
ag5
ag19
ag35
ag3
ag30
ag14
ag14
ag5
ag20
asS'M00824'
p452
(lp453
g3
ag14
ag25
ag19
ag14
ag20
ag7
ag3
ag30
ag14
ag14
ag6
ag4
ag35
ag3
ag30
ag14
ag14
ag6
ag14
ag35
ag3
ag30
ag14
ag14
ag6
ag30
ag35
ag3
ag30
ag14
ag14
ag6
ag19
ag35
ag3
ag30
ag14
ag14
ag6
ag20
ag35
ag3
ag30
ag14
ag14
ag6
ag25
ag35
ag3
ag30
ag14
ag14
ag6
ag6
ag35
ag3
ag30
ag14
ag14
ag6
ag5
asS'M00829'
p454
(lp455
g3
ag14
ag25
ag19
ag30
ag4
ag7
ag3
ag30
ag14
ag14
ag11
ag14
ag7
ag3
ag30
ag14
ag14
ag11
ag30
asS'M00828'
p456
(lp457
g3
ag30
ag14
ag14
ag8
ag19
asS'M00463'
p458
(lp459
g3
ag4
ag5
ag6
ag25
ag6
ag7
ag3
ag4
ag5
ag6
ag5
ag30
asS'M00462'
p460
(lp461
g3
ag4
ag5
ag6
ag25
ag25
ag7
ag3
ag4
ag5
ag6
ag5
ag14
asS'M00461'
p462
(lp463
g3
ag4
ag5
ag6
ag25
ag20
ag7
ag3
ag4
ag5
ag6
ag5
ag4
asS'M00460'
p464
(lp465
g3
ag4
ag5
ag6
ag25
ag19
ag7
ag3
ag4
ag5
ag6
ag6
ag11
asS'M00467'
p466
(lp467
g3
ag4
ag8
ag20
ag5
ag11
ag7
ag3
ag14
ag4
ag6
ag11
ag5
ag7
ag3
ag14
ag14
ag19
ag30
ag11
asS'M00466'
p468
(lp469
g3
ag4
ag5
ag5
ag6
ag11
ag7
ag3
ag14
ag14
ag19
ag19
ag30
asS'M00465'
p470
(lp471
g3
ag14
ag14
ag25
ag30
ag4
ag7
ag3
ag14
ag14
ag25
ag30
ag14
asS'M00464'
p472
(lp473
g3
ag14
ag14
ag19
ag30
ag8
ag7
ag3
ag14
ag14
ag19
ag19
ag4
asS'M00469'
p474
(lp475
g3
ag14
ag14
ag6
ag30
ag11
ag7
ag3
ag14
ag14
ag6
ag19
ag4
asS'M00468'
p476
(lp477
g3
ag14
ag4
ag6
ag8
ag14
ag7
ag3
ag14
ag4
ag6
ag8
ag30
asS'M00265'
p478
(lp479
g3
ag4
ag30
ag5
ag5
ag5
ag35
ag3
ag4
ag30
ag5
ag5
ag8
ag35
ag3
ag4
ag30
ag5
ag5
ag11
asS'M00264'
p480
(lp481
g3
ag4
ag30
ag19
ag30
ag30
ag35
ag3
ag4
ag30
ag19
ag30
ag19
asS'M00267'
p482
(lp483
g3
ag4
ag30
ag8
ag4
ag30
ag35
ag3
ag4
ag30
ag8
ag4
ag19
ag35
ag3
ag4
ag30
ag8
ag4
ag20
asS'M00309'
p484
(lp485
g3
ag4
ag25
ag19
ag4
ag8
ag7
ag48
ag3
ag14
ag14
ag19
ag11
ag25
ag49
ag3
ag14
ag8
ag14
ag30
ag5
ag50
ag7
ag48
ag3
ag14
ag8
ag4
ag30
ag4
ag35
ag3
ag14
ag8
ag4
ag30
ag14
ag35
ag3
ag14
ag8
ag4
ag30
ag30
ag49
ag3
ag14
ag8
ag14
ag30
ag8
ag49
ag3
ag4
ag19
ag5
ag19
ag8
ag50
asS'M00261'
p486
(lp487
g3
ag4
ag30
ag19
ag30
ag4
ag35
ag3
ag4
ag30
ag19
ag30
ag14
ag35
ag3
ag4
ag30
ag6
ag8
ag25
ag35
ag3
ag4
ag30
ag6
ag8
ag20
asS'M00260'
p488
(lp489
g3
ag4
ag30
ag19
ag19
ag5
ag35
ag48
ag3
ag4
ag19
ag5
ag6
ag19
ag49
ag3
ag4
ag30
ag19
ag20
ag30
ag49
ag3
ag14
ag20
ag14
ag25
ag11
ag50
ag55
ag3
ag4
ag30
ag19
ag20
ag25
ag35
ag3
ag4
ag30
ag19
ag19
ag8
ag35
ag3
ag4
ag30
ag19
ag20
ag4
ag35
ag3
ag4
ag30
ag19
ag20
ag14
ag35
ag3
ag4
ag30
ag19
ag20
ag19
ag55
ag3
ag4
ag30
ag19
ag19
ag11
ag55
ag3
ag4
ag30
ag19
ag20
ag20
asS'M00263'
p490
(lp491
g3
ag4
ag30
ag19
ag30
ag20
ag35
ag3
ag4
ag30
ag19
ag30
ag25
ag35
ag3
ag4
ag30
ag19
ag30
ag6
ag35
ag3
ag4
ag19
ag25
ag4
ag6
asS'M00262'
p492
(lp493
g3
ag4
ag30
ag19
ag30
ag5
ag35
ag3
ag4
ag30
ag19
ag30
ag8
ag35
ag3
ag4
ag19
ag25
ag4
ag20
ag35
ag3
ag4
ag19
ag25
ag4
ag25
asS'M00302'
p494
(lp495
g3
ag14
ag14
ag4
ag8
ag14
ag35
ag3
ag14
ag14
ag4
ag8
ag30
ag35
ag3
ag14
ag14
ag4
ag8
ag19
ag35
ag3
ag14
ag14
ag4
ag8
ag20
asS'M00303'
p496
(lp497
g3
ag4
ag30
ag5
ag5
ag5
ag35
ag3
ag14
ag14
ag14
ag11
ag14
ag35
ag3
ag14
ag14
ag14
ag11
ag30
asS'M00300'
p498
(lp499
g3
ag14
ag14
ag4
ag5
ag19
ag35
ag3
ag14
ag14
ag4
ag5
ag20
ag35
ag3
ag14
ag14
ag4
ag5
ag25
ag35
ag3
ag14
ag14
ag4
ag5
ag6
asS'M00301'
p500
(lp501
g3
ag14
ag14
ag4
ag5
ag5
ag35
ag3
ag14
ag14
ag4
ag5
ag8
ag35
ag3
ag14
ag14
ag4
ag5
ag11
ag35
ag3
ag14
ag14
ag4
ag8
ag4
asS'M00269'
p502
(lp503
g3
ag4
ag30
ag8
ag4
ag8
ag35
ag3
ag4
ag30
ag8
ag4
ag11
ag35
ag3
ag4
ag30
ag8
ag14
ag4
asS'M00268'
p504
(lp505
g3
ag4
ag30
ag5
ag5
ag5
ag35
ag3
ag4
ag30
ag5
ag20
ag11
ag35
ag3
ag4
ag30
ag5
ag25
ag4
asS'M00304'
p506
(lp507
g3
ag14
ag14
ag14
ag11
ag20
ag35
ag3
ag14
ag14
ag14
ag11
ag25
ag35
ag3
ag14
ag14
ag14
ag11
ag6
ag35
ag3
ag4
ag30
ag5
ag5
ag14
asS'M00305'
p508
(lp509
g3
ag14
ag14
ag14
ag11
ag8
ag35
ag3
ag14
ag14
ag14
ag11
ag11
ag35
ag3
ag14
ag14
ag30
ag4
ag4
asS'M00289'
p510
(lp511
g3
ag14
ag4
ag5
ag25
ag20
ag35
ag3
ag14
ag4
ag5
ag25
ag25
ag35
ag3
ag14
ag4
ag5
ag25
ag6
asS'M00288'
p512
(lp513
g3
ag4
ag5
ag20
ag6
ag6
ag35
ag48
ag3
ag14
ag4
ag5
ag19
ag11
ag49
ag3
ag14
ag4
ag5
ag20
ag14
ag50
ag35
ag3
ag14
ag4
ag5
ag20
ag4
asS'M00416'
p514
(lp515
g3
ag4
ag30
ag8
ag30
ag5
ag35
ag3
ag4
ag30
ag8
ag30
ag6
ag35
ag3
ag4
ag30
ag8
ag30
ag8
ag35
ag3
ag4
ag30
ag8
ag30
ag11
asS'M00417'
p516
(lp517
g3
ag4
ag30
ag30
ag11
ag5
ag35
ag3
ag4
ag30
ag30
ag11
ag8
ag35
ag3
ag4
ag30
ag30
ag11
ag11
ag35
ag3
ag4
ag30
ag19
ag4
ag4
asS'M00414'
p518
(lp519
g3
ag14
ag4
ag11
ag4
ag14
ag35
ag3
ag4
ag19
ag14
ag6
ag25
ag35
ag3
ag14
ag4
ag11
ag11
ag4
ag35
ag3
ag14
ag25
ag19
ag6
ag25
asS'M00415'
p520
(lp521
g48
ag3
ag14
ag4
ag30
ag20
ag5
ag49
ag3
ag14
ag4
ag30
ag4
ag25
ag49
ag3
ag14
ag4
ag30
ag20
ag8
ag49
ag3
ag14
ag4
ag30
ag20
ag11
ag49
ag3
ag14
ag4
ag30
ag20
ag20
ag49
ag3
ag14
ag4
ag30
ag4
ag19
ag49
ag3
ag14
ag4
ag30
ag25
ag4
ag49
ag3
ag14
ag25
ag19
ag11
ag5
ag49
ag3
ag14
ag4
ag30
ag20
ag25
ag49
ag3
ag14
ag4
ag30
ag20
ag6
ag50
ag7
ag3
ag14
ag4
ag30
ag25
ag14
ag7
ag3
ag14
ag4
ag5
ag4
ag19
ag7
ag3
ag14
ag4
ag30
ag25
ag8
asS'M00412'
p522
(lp523
g3
ag14
ag30
ag14
ag11
ag14
ag35
ag3
ag14
ag30
ag14
ag11
ag30
ag35
ag3
ag14
ag30
ag14
ag11
ag19
ag35
ag3
ag14
ag30
ag14
ag11
ag20
ag35
ag3
ag14
ag30
ag14
ag11
ag25
ag35
ag3
ag14
ag30
ag14
ag11
ag6
ag35
ag3
ag14
ag30
ag14
ag11
ag5
ag35
ag3
ag14
ag30
ag14
ag11
ag8
ag35
ag3
ag14
ag25
ag4
ag25
ag19
asS'M00413'
p524
(lp525
g3
ag14
ag4
ag8
ag8
ag8
ag35
ag3
ag14
ag4
ag8
ag8
ag11
ag35
ag3
ag14
ag4
ag8
ag11
ag4
ag35
ag3
ag14
ag4
ag8
ag11
ag30
ag35
ag3
ag14
ag4
ag8
ag11
ag19
ag35
ag3
ag14
ag4
ag8
ag11
ag20
ag35
ag3
ag14
ag4
ag6
ag4
ag6
ag35
ag3
ag14
ag4
ag8
ag11
ag6
ag35
ag3
ag14
ag4
ag8
ag11
ag8
ag35
ag3
ag14
ag4
ag11
ag11
ag19
asS'M00410'
p526
(lp527
g3
ag14
ag30
ag14
ag8
ag8
ag35
ag3
ag14
ag30
ag14
ag8
ag11
ag35
ag3
ag14
ag30
ag14
ag11
ag4
asS'M00411'
p528
(lp529
g3
ag4
ag19
ag8
ag6
ag8
ag35
ag3
ag4
ag19
ag19
ag20
ag5
ag35
ag3
ag4
ag19
ag4
ag11
ag20
ag35
ag3
ag4
ag19
ag19
ag6
ag4
asS'M00418'
p530
(lp531
g3
ag4
ag5
ag25
ag20
ag4
ag7
ag3
ag4
ag5
ag25
ag20
ag19
ag35
ag3
ag4
ag5
ag25
ag20
ag20
ag7
ag3
ag4
ag5
ag25
ag20
ag25
ag7
ag3
ag4
ag5
ag25
ag20
ag6
ag7
ag3
ag4
ag5
ag25
ag20
ag5
ag35
ag3
ag4
ag5
ag25
ag20
ag8
ag7
ag3
ag4
ag5
ag25
ag20
ag11
ag35
ag3
ag4
ag5
ag25
ag25
ag4
asS'M00419'
p532
(lp533
g3
ag14
ag4
ag6
ag14
ag6
ag35
ag3
ag14
ag8
ag30
ag11
ag19
ag7
ag3
ag14
ag4
ag6
ag14
ag5
ag7
ag3
ag14
ag4
ag6
ag14
ag8
asS'M00281'
p534
(lp535
g3
ag4
ag30
ag5
ag8
ag6
ag35
ag3
ag4
ag30
ag5
ag8
ag5
ag35
ag3
ag4
ag30
ag5
ag8
ag8
asS'M00181'
p536
(lp537
g3
ag4
ag19
ag4
ag14
ag8
ag35
ag3
ag4
ag19
ag4
ag30
ag14
ag35
ag3
ag4
ag19
ag4
ag30
ag5
ag35
ag3
ag4
ag19
ag4
ag30
ag4
ag35
ag3
ag4
ag19
ag4
ag30
ag19
ag35
ag3
ag4
ag19
ag4
ag30
ag6
ag35
ag3
ag14
ag20
ag5
ag30
ag14
ag35
ag3
ag4
ag19
ag4
ag30
ag25
ag35
ag3
ag4
ag19
ag4
ag30
ag20
ag35
ag3
ag4
ag19
ag4
ag30
ag30
ag35
ag3
ag4
ag19
ag4
ag14
ag11
ag35
ag3
ag4
ag19
ag4
ag14
ag19
ag35
ag3
ag4
ag19
ag4
ag14
ag20
ag35
ag3
ag4
ag19
ag4
ag14
ag6
ag35
ag3
ag4
ag19
ag4
ag4
ag11
ag35
ag3
ag4
ag19
ag4
ag4
ag5
asS'M00001'
p538
(lp539
g48
ag3
ag4
ag4
ag8
ag20
ag20
ag49
ag3
ag14
ag30
ag20
ag4
ag5
ag49
ag3
ag4
ag4
ag8
ag20
ag25
ag49
ag3
ag4
ag4
ag8
ag8
ag6
ag49
ag3
ag4
ag8
ag4
ag5
ag20
ag49
ag3
ag4
ag4
ag11
ag14
ag8
ag50
ag7
ag48
ag3
ag4
ag14
ag8
ag14
ag4
ag49
ag3
ag4
ag6
ag8
ag25
ag11
ag49
ag3
ag14
ag19
ag8
ag14
ag4
ag49
ag3
ag14
ag25
ag11
ag14
ag6
ag50
ag7
ag48
ag3
ag4
ag4
ag8
ag25
ag4
ag49
ag3
ag14
ag6
ag19
ag5
ag4
ag49
ag3
ag4
ag4
ag11
ag14
ag8
ag50
ag7
ag48
ag3
ag4
ag14
ag6
ag30
ag19
ag49
ag3
ag4
ag14
ag6
ag30
ag20
ag49
ag3
ag14
ag14
ag6
ag20
ag25
ag49
ag3
ag14
ag6
ag19
ag4
ag25
ag49
ag3
ag14
ag6
ag19
ag4
ag6
ag50
ag7
ag3
ag4
ag14
ag8
ag4
ag19
ag7
ag48
ag48
ag3
ag4
ag4
ag14
ag19
ag20
ag49
ag3
ag4
ag4
ag14
ag25
ag4
ag50
ag7
ag3
ag4
ag4
ag11
ag30
ag5
ag49
ag3
ag14
ag14
ag19
ag8
ag11
ag50
ag7
ag48
ag3
ag4
ag14
ag8
ag19
ag20
ag49
ag3
ag14
ag25
ag6
ag19
ag19
ag49
ag3
ag14
ag25
ag6
ag19
ag20
ag49
ag3
ag14
ag25
ag6
ag19
ag25
ag50
ag7
ag3
ag4
ag14
ag6
ag8
ag11
ag7
ag48
ag3
ag4
ag4
ag8
ag5
ag19
ag49
ag3
ag14
ag30
ag20
ag4
ag6
ag50
asS'M00003'
p540
(lp541
g48
ag3
ag4
ag14
ag25
ag11
ag6
ag49
ag3
ag4
ag14
ag6
ag14
ag4
ag50
ag7
ag3
ag4
ag14
ag6
ag8
ag11
ag7
ag48
ag3
ag4
ag14
ag8
ag19
ag20
ag49
ag3
ag14
ag25
ag6
ag19
ag19
ag49
ag3
ag14
ag25
ag6
ag19
ag20
ag49
ag3
ag14
ag25
ag6
ag19
ag25
ag50
ag7
ag3
ag4
ag4
ag11
ag30
ag5
ag7
ag48
ag3
ag4
ag4
ag14
ag19
ag20
ag49
ag3
ag4
ag4
ag14
ag25
ag4
ag50
ag7
ag3
ag4
ag14
ag8
ag4
ag19
ag7
ag48
ag48
ag3
ag4
ag14
ag6
ag30
ag19
ag49
ag3
ag4
ag14
ag6
ag30
ag20
ag49
ag3
ag14
ag14
ag6
ag20
ag25
ag50
ag7
ag48
ag3
ag4
ag19
ag8
ag20
ag14
ag49
ag3
ag4
ag30
ag20
ag20
ag6
ag49
ag3
ag14
ag14
ag25
ag19
ag30
ag49
ag3
ag4
ag14
ag4
ag8
ag6
ag49
ag3
ag4
ag20
ag4
ag20
ag14
ag50
ag49
ag3
ag4
ag14
ag6
ag30
ag30
ag50
asS'M00002'
p542
(lp543
g3
ag4
ag14
ag8
ag4
ag19
ag7
ag48
ag48
ag3
ag4
ag4
ag14
ag19
ag20
ag49
ag3
ag4
ag4
ag14
ag25
ag4
ag50
ag7
ag3
ag4
ag4
ag11
ag30
ag5
ag49
ag3
ag14
ag14
ag19
ag8
ag11
ag50
ag7
ag48
ag3
ag4
ag14
ag8
ag19
ag20
ag49
ag3
ag14
ag25
ag6
ag19
ag19
ag49
ag3
ag14
ag25
ag6
ag19
ag20
ag49
ag3
ag14
ag25
ag6
ag19
ag25
ag50
ag7
ag3
ag4
ag14
ag6
ag8
ag11
ag7
ag48
ag3
ag4
ag4
ag8
ag5
ag19
ag49
ag3
ag14
ag30
ag20
ag4
ag6
ag50
asS'M00005'
p544
(lp545
g3
ag4
ag4
ag11
ag20
ag8
asS'M00004'
p546
(lp547
g48
ag3
ag14
ag19
ag11
ag19
ag5
ag49
ag48
ag48
ag3
ag4
ag4
ag4
ag19
ag6
ag49
ag3
ag14
ag11
ag30
ag20
ag19
ag50
ag7
ag48
ag3
ag4
ag14
ag4
ag25
ag5
ag49
ag3
ag4
ag5
ag20
ag4
ag20
ag50
ag50
ag50
ag7
ag3
ag4
ag4
ag4
ag19
ag19
ag7
ag3
ag4
ag14
ag5
ag8
ag19
ag7
ag48
ag3
ag4
ag14
ag8
ag4
ag5
ag49
ag3
ag4
ag14
ag8
ag4
ag8
ag50
ag7
ag3
ag4
ag4
ag6
ag14
ag25
ag7
ag3
ag4
ag4
ag6
ag14
ag6
ag7
ag48
ag3
ag4
ag14
ag8
ag14
ag4
ag49
ag3
ag4
ag6
ag8
ag25
ag11
ag49
ag3
ag14
ag19
ag8
ag14
ag4
ag49
ag3
ag14
ag25
ag11
ag14
ag6
ag50
asS'M00007'
p548
(lp549
g3
ag4
ag4
ag6
ag14
ag25
ag7
ag48
ag3
ag4
ag4
ag6
ag14
ag6
ag49
ag3
ag14
ag19
ag8
ag14
ag4
ag50
ag7
ag3
ag4
ag14
ag5
ag8
ag19
ag7
ag48
ag3
ag4
ag14
ag8
ag4
ag5
ag49
ag3
ag4
ag14
ag8
ag4
ag8
ag50
asS'M00006'
p550
(lp551
g48
ag3
ag14
ag19
ag11
ag19
ag5
ag49
ag48
ag48
ag3
ag4
ag4
ag4
ag19
ag6
ag49
ag3
ag14
ag11
ag30
ag20
ag19
ag50
ag7
ag48
ag3
ag4
ag14
ag4
ag25
ag5
ag49
ag3
ag4
ag5
ag20
ag4
ag20
ag50
ag50
ag50
ag7
ag3
ag4
ag4
ag4
ag19
ag19
asS'M00009'
p552
(lp553
g3
ag4
ag14
ag6
ag20
ag5
ag7
ag48
ag3
ag4
ag14
ag6
ag8
ag14
ag49
ag3
ag4
ag14
ag6
ag8
ag30
ag50
ag7
ag48
ag3
ag4
ag4
ag4
ag19
ag14
ag49
ag3
ag4
ag4
ag4
ag19
ag4
ag50
ag7
ag48
ag3
ag4
ag4
ag14
ag6
ag20
ag35
ag3
ag4
ag4
ag6
ag25
ag8
ag35
ag3
ag4
ag4
ag19
ag8
ag30
ag49
ag3
ag4
ag4
ag14
ag5
ag20
ag35
ag3
ag4
ag4
ag14
ag5
ag25
ag55
ag3
ag4
ag4
ag14
ag5
ag5
ag55
ag3
ag4
ag4
ag14
ag5
ag6
ag50
ag7
ag48
ag3
ag4
ag14
ag11
ag4
ag30
ag35
ag3
ag4
ag14
ag11
ag4
ag19
ag49
ag3
ag4
ag14
ag8
ag11
ag11
ag35
ag3
ag4
ag14
ag11
ag4
ag4
ag49
ag3
ag14
ag8
ag14
ag14
ag8
ag50
ag7
ag48
ag3
ag4
ag4
ag30
ag19
ag20
ag35
ag3
ag4
ag4
ag30
ag19
ag25
ag35
ag3
ag4
ag4
ag30
ag19
ag6
ag35
ag3
ag4
ag4
ag30
ag19
ag5
ag49
ag3
ag4
ag4
ag30
ag19
ag11
ag35
ag3
ag4
ag4
ag30
ag20
ag4
ag35
ag3
ag4
ag4
ag30
ag20
ag14
ag55
ag48
ag3
ag4
ag4
ag30
ag20
ag30
ag49
ag3
ag14
ag8
ag8
ag25
ag11
ag49
ag3
ag14
ag8
ag8
ag6
ag4
ag50
ag49
ag3
ag4
ag4
ag30
ag20
ag20
ag35
ag3
ag4
ag4
ag30
ag20
ag25
ag35
ag3
ag4
ag4
ag30
ag20
ag6
ag55
ag3
ag4
ag4
ag30
ag20
ag5
ag50
ag7
ag48
ag3
ag4
ag14
ag6
ag5
ag6
ag49
ag3
ag4
ag14
ag6
ag5
ag11
ag49
ag3
ag4
ag14
ag6
ag5
ag5
ag35
ag3
ag4
ag14
ag6
ag5
ag8
ag50
ag7
ag48
ag3
ag4
ag4
ag4
ag30
ag6
ag49
ag3
ag4
ag4
ag4
ag30
ag25
ag49
ag3
ag4
ag4
ag4
ag30
ag20
ag49
ag3
ag4
ag4
ag14
ag14
ag6
ag50
asS'M00008'
p554
(lp555
g3
ag4
ag4
ag4
ag19
ag6
ag7
ag48
ag3
ag4
ag14
ag4
ag25
ag5
ag49
ag3
ag4
ag5
ag20
ag4
ag20
ag50
ag7
ag3
ag4
ag14
ag6
ag11
ag4
ag7
ag3
ag4
ag14
ag6
ag30
ag25
asS'M00672'
p556
(lp557
g3
ag14
ag30
ag5
ag20
ag19
ag7
ag3
ag4
ag20
ag14
ag30
ag6
ag7
ag3
ag14
ag4
ag8
ag25
ag30
asS'M00673'
p558
(lp559
g3
ag14
ag30
ag5
ag20
ag19
ag7
ag3
ag4
ag20
ag14
ag30
ag6
ag7
ag3
ag4
ag20
ag14
ag30
ag5
ag7
ag3
ag14
ag30
ag5
ag20
ag20
ag7
ag3
ag14
ag30
ag5
ag20
ag25
ag7
ag3
ag4
ag20
ag14
ag30
ag8
ag7
ag3
ag14
ag8
ag4
ag6
ag30
ag7
ag3
ag14
ag8
ag4
ag6
ag19
asS'M00779'
p560
(lp561
g3
ag4
ag25
ag25
ag25
ag6
ag7
ag48
ag3
ag14
ag20
ag6
ag30
ag6
ag49
ag3
ag14
ag20
ag6
ag30
ag5
ag50
ag7
ag48
ag3
ag14
ag20
ag6
ag30
ag8
ag49
ag3
ag14
ag20
ag6
ag30
ag11
ag50
ag7
ag48
ag3
ag14
ag20
ag6
ag19
ag4
ag35
ag3
ag14
ag20
ag6
ag19
ag14
ag49
ag3
ag14
ag20
ag6
ag19
ag30
ag50
asS'M00778'
p562
(lp563
g3
ag4
ag25
ag25
ag25
ag14
ag35
ag3
ag4
ag25
ag25
ag25
ag30
ag35
ag3
ag4
ag25
ag25
ag25
ag19
ag7
ag55
ag3
ag14
ag30
ag20
ag30
ag4
ag7
ag48
ag48
ag3
ag4
ag25
ag25
ag25
ag20
ag49
ag3
ag14
ag20
ag30
ag20
ag11
ag49
ag3
ag14
ag25
ag8
ag8
ag20
ag49
ag3
ag14
ag25
ag8
ag8
ag25
ag50
ag7
ag48
ag3
ag4
ag25
ag25
ag25
ag25
ag49
ag3
ag14
ag20
ag30
ag25
ag4
ag50
ag49
ag3
ag14
ag25
ag8
ag8
ag6
ag50
asS'M00676'
p564
(lp565
g3
ag4
ag20
ag25
ag30
ag5
ag7
ag3
ag14
ag6
ag14
ag5
ag30
ag7
ag3
ag4
ag4
ag11
ag30
ag30
ag35
ag3
ag4
ag30
ag6
ag20
ag11
ag7
ag3
ag4
ag20
ag20
ag25
ag6
ag7
ag48
ag3
ag4
ag5
ag30
ag4
ag14
ag49
ag3
ag4
ag11
ag20
ag4
ag8
ag50
asS'M00677'
p566
(lp567
g48
ag3
ag4
ag4
ag14
ag8
ag30
ag49
ag3
ag4
ag4
ag19
ag14
ag30
ag49
ag3
ag4
ag4
ag20
ag4
ag8
ag49
ag3
ag4
ag4
ag20
ag20
ag20
ag49
ag3
ag4
ag4
ag20
ag20
ag25
ag49
ag3
ag4
ag4
ag25
ag5
ag30
ag49
ag3
ag4
ag4
ag5
ag14
ag20
ag49
ag3
ag4
ag14
ag4
ag6
ag20
ag49
ag3
ag4
ag14
ag19
ag25
ag5
ag49
ag3
ag4
ag14
ag19
ag8
ag20
ag49
ag3
ag4
ag14
ag25
ag25
ag8
ag49
ag3
ag4
ag19
ag30
ag4
ag11
ag50
ag7
ag48
ag3
ag4
ag30
ag20
ag19
ag30
ag49
ag3
ag4
ag30
ag30
ag19
ag25
ag49
ag3
ag4
ag30
ag19
ag30
ag11
ag49
ag3
ag4
ag30
ag19
ag25
ag20
ag49
ag3
ag4
ag30
ag19
ag5
ag25
ag49
ag3
ag4
ag30
ag19
ag5
ag6
ag49
ag3
ag4
ag30
ag8
ag20
ag30
ag49
ag3
ag4
ag20
ag6
ag11
ag4
ag50
ag7
ag3
ag4
ag30
ag19
ag25
ag19
ag7
ag3
ag4
ag19
ag4
ag8
ag19
ag7
ag3
ag4
ag30
ag14
ag4
ag25
ag7
ag48
ag3
ag4
ag30
ag6
ag30
ag4
ag49
ag3
ag4
ag20
ag20
ag11
ag4
ag49
ag3
ag4
ag20
ag20
ag11
ag14
ag49
ag3
ag4
ag20
ag20
ag11
ag30
ag50
asS'M00674'
p568
(lp569
g3
ag14
ag30
ag6
ag5
ag19
ag7
ag3
ag14
ag30
ag6
ag5
ag20
ag7
ag3
ag14
ag30
ag6
ag5
ag25
ag7
ag3
ag14
ag30
ag6
ag5
ag6
asS'M00675'
p570
(lp571
g3
ag14
ag8
ag19
ag14
ag5
ag7
ag3
ag14
ag8
ag19
ag14
ag6
ag7
ag3
ag14
ag8
ag19
ag14
ag25
asS'M00773'
p572
(lp573
g3
ag14
ag25
ag11
ag8
ag8
ag7
ag3
ag14
ag25
ag11
ag8
ag11
ag35
ag3
ag14
ag25
ag11
ag11
ag4
ag7
ag3
ag14
ag25
ag11
ag11
ag30
ag7
ag3
ag14
ag25
ag11
ag11
ag14
ag7
ag3
ag14
ag25
ag11
ag11
ag19
ag7
ag3
ag14
ag25
ag11
ag11
ag20
ag7
ag3
ag14
ag25
ag11
ag11
ag25
ag7
ag3
ag14
ag25
ag11
ag11
ag6
asS'M00772'
p574
(lp575
g3
ag14
ag11
ag6
ag6
ag14
ag7
ag3
ag14
ag11
ag6
ag20
ag14
asS'M00678'
p576
(lp577
g48
ag3
ag4
ag6
ag30
ag30
ag20
ag49
ag3
ag14
ag14
ag11
ag8
ag11
ag49
ag3
ag14
ag14
ag11
ag11
ag4
ag49
ag3
ag14
ag14
ag11
ag8
ag8
ag50
ag7
ag3
ag4
ag6
ag30
ag30
ag25
ag7
ag3
ag4
ag6
ag30
ag30
ag6
ag7
ag3
ag14
ag8
ag8
ag4
ag6
ag35
ag3
ag4
ag6
ag30
ag30
ag11
ag7
ag48
ag3
ag14
ag6
ag5
ag11
ag5
ag49
ag3
ag14
ag6
ag5
ag11
ag8
ag49
ag3
ag4
ag6
ag30
ag19
ag4
ag49
ag3
ag14
ag6
ag5
ag11
ag11
ag50
asS'M00679'
p578
(lp579
g48
ag3
ag30
ag14
ag30
ag8
ag19
ag49
ag3
ag4
ag20
ag6
ag6
ag30
ag49
ag3
ag4
ag20
ag6
ag6
ag19
ag49
ag3
ag14
ag6
ag6
ag30
ag4
ag49
ag3
ag14
ag6
ag6
ag30
ag14
ag49
ag3
ag14
ag6
ag6
ag30
ag30
ag49
ag3
ag4
ag20
ag6
ag6
ag20
ag49
ag3
ag4
ag20
ag6
ag6
ag25
ag50
ag7
ag48
ag48
ag3
ag4
ag20
ag6
ag5
ag14
ag49
ag3
ag4
ag20
ag6
ag5
ag4
ag49
ag3
ag14
ag19
ag25
ag11
ag6
ag49
ag3
ag14
ag19
ag25
ag11
ag5
ag49
ag3
ag4
ag20
ag6
ag5
ag30
ag50
ag35
ag48
ag3
ag4
ag20
ag6
ag5
ag19
ag49
ag3
ag14
ag19
ag25
ag5
ag8
ag49
ag3
ag4
ag20
ag6
ag5
ag25
ag50
ag50
ag7
ag48
ag48
ag3
ag4
ag20
ag6
ag5
ag6
ag49
ag3
ag14
ag6
ag5
ag11
ag4
ag49
ag3
ag14
ag6
ag5
ag11
ag14
ag50
ag35
ag3
ag4
ag20
ag25
ag4
ag14
ag50
asS'M00777'
p580
(lp581
g3
ag14
ag20
ag19
ag5
ag14
ag7
ag3
ag14
ag20
ag19
ag5
ag30
ag7
ag3
ag14
ag20
ag19
ag5
ag19
ag7
ag3
ag14
ag20
ag19
ag5
ag20
ag7
ag3
ag14
ag20
ag19
ag5
ag25
asS'M00776'
p582
(lp583
g3
ag14
ag6
ag4
ag4
ag4
ag35
ag3
ag14
ag6
ag4
ag4
ag14
ag35
ag3
ag14
ag6
ag4
ag4
ag30
ag55
ag3
ag14
ag6
ag4
ag4
ag19
ag7
ag3
ag14
ag6
ag4
ag4
ag20
ag7
ag3
ag14
ag6
ag4
ag4
ag25
ag7
ag3
ag14
ag6
ag4
ag4
ag6
asS'M00775'
p584
(lp585
g3
ag14
ag6
ag4
ag4
ag5
ag7
ag3
ag14
ag6
ag4
ag4
ag8
ag7
ag3
ag14
ag6
ag4
ag4
ag11
ag7
ag3
ag14
ag19
ag19
ag30
ag4
ag7
ag3
ag14
ag6
ag4
ag14
ag4
asS'M00774'
p586
(lp587
g3
ag14
ag4
ag8
ag14
ag5
ag7
ag3
ag14
ag20
ag19
ag6
ag6
ag7
ag3
ag14
ag20
ag19
ag6
ag5
ag7
ag3
ag14
ag20
ag19
ag6
ag8
ag35
ag3
ag14
ag25
ag11
ag11
ag5
ag7
ag3
ag14
ag20
ag19
ag5
ag4
ag7
ag3
ag14
ag20
ag19
ag6
ag11
asS'M00579'
p588
(lp589
g48
ag3
ag4
ag4
ag6
ag30
ag25
ag49
ag3
ag14
ag19
ag5
ag8
ag8
ag49
ag3
ag14
ag25
ag4
ag30
ag20
ag50
ag7
ag3
ag4
ag4
ag11
ag30
ag25
asS'M00575'
p590
(lp591
g3
ag14
ag14
ag4
ag30
ag11
ag7
ag3
ag14
ag14
ag4
ag4
ag20
ag7
ag3
ag4
ag5
ag19
ag8
ag11
ag7
ag3
ag14
ag14
ag4
ag4
ag19
ag7
ag3
ag14
ag30
ag19
ag20
ag4
asS'M00574'
p592
(lp593
g3
ag14
ag14
ag4
ag30
ag19
ag7
ag55
ag3
ag14
ag14
ag4
ag30
ag20
ag7
ag3
ag14
ag14
ag4
ag30
ag25
ag7
ag3
ag14
ag14
ag4
ag30
ag6
ag7
ag3
ag14
ag14
ag4
ag30
ag5
asS'M00577'
p594
(lp595
g3
ag4
ag14
ag11
ag4
ag6
ag7
ag3
ag4
ag4
ag6
ag25
ag30
ag7
ag48
ag3
ag4
ag4
ag8
ag19
ag19
ag49
ag3
ag14
ag11
ag25
ag6
ag19
ag50
ag7
ag3
ag4
ag14
ag11
ag19
ag25
ag7
ag3
ag4
ag14
ag4
ag14
ag30
asS'M00571'
p596
(lp597
g3
ag14
ag6
ag19
ag4
ag4
ag35
ag3
ag14
ag6
ag30
ag11
ag11
ag35
ag3
ag14
ag30
ag19
ag20
ag4
asS'M00570'
p598
(lp599
g48
ag3
ag14
ag5
ag11
ag8
ag11
ag49
ag3
ag4
ag14
ag5
ag25
ag20
ag50
ag7
ag3
ag4
ag14
ag6
ag25
ag30
ag35
ag48
ag3
ag4
ag14
ag6
ag25
ag19
ag49
ag3
ag14
ag14
ag30
ag25
ag8
ag50
ag7
ag3
ag4
ag4
ag4
ag25
ag19
ag7
ag3
ag4
ag14
ag6
ag8
ag5
ag7
ag3
ag4
ag4
ag8
ag30
ag6
asS'M00573'
p600
(lp601
g3
ag14
ag6
ag25
ag11
ag19
ag7
ag3
ag4
ag4
ag6
ag25
ag30
ag7
ag48
ag3
ag4
ag4
ag8
ag19
ag19
ag49
ag3
ag14
ag11
ag25
ag6
ag19
ag50
ag7
ag3
ag4
ag14
ag11
ag19
ag25
ag7
ag3
ag4
ag14
ag4
ag14
ag30
asS'M00572'
p602
(lp603
g3
ag4
ag30
ag14
ag6
ag11
ag7
ag48
ag3
ag4
ag4
ag6
ag20
ag5
ag49
ag3
ag4
ag11
ag20
ag25
ag8
ag50
ag7
ag3
ag4
ag4
ag4
ag25
ag11
ag7
ag3
ag4
ag30
ag19
ag5
ag30
ag7
ag3
ag4
ag4
ag30
ag4
ag8
ag7
ag48
ag3
ag4
ag30
ag14
ag5
ag4
ag49
ag3
ag4
ag11
ag5
ag8
ag11
ag49
ag3
ag14
ag11
ag25
ag6
ag4
ag49
ag3
ag14
ag11
ag25
ag6
ag14
ag50
asS'M00049'
p604
(lp605
g3
ag4
ag14
ag11
ag19
ag11
ag7
ag3
ag4
ag14
ag5
ag25
ag6
ag7
ag48
ag3
ag4
ag4
ag11
ag19
ag11
ag49
ag3
ag14
ag8
ag25
ag19
ag30
ag49
ag3
ag14
ag8
ag25
ag19
ag19
ag49
ag3
ag4
ag4
ag11
ag20
ag20
ag50
ag7
ag48
ag3
ag4
ag4
ag11
ag20
ag4
ag49
ag3
ag4
ag4
ag8
ag5
ag19
ag49
ag3
ag14
ag30
ag20
ag4
ag6
ag50
asS'M00048'
p606
(lp607
g3
ag4
ag4
ag5
ag6
ag20
ag7
ag48
ag3
ag4
ag14
ag11
ag20
ag25
ag49
ag3
ag14
ag14
ag5
ag8
ag5
ag49
ag3
ag14
ag14
ag5
ag8
ag8
ag49
ag3
ag14
ag19
ag5
ag14
ag19
ag50
ag7
ag48
ag3
ag4
ag4
ag6
ag4
ag14
ag49
ag3
ag14
ag14
ag14
ag5
ag25
ag49
ag3
ag4
ag8
ag30
ag8
ag11
ag49
ag3
ag14
ag14
ag5
ag8
ag5
ag50
ag7
ag3
ag4
ag14
ag11
ag25
ag30
ag7
ag48
ag3
ag4
ag14
ag11
ag19
ag19
ag49
ag3
ag14
ag14
ag5
ag8
ag5
ag49
ag3
ag14
ag14
ag5
ag8
ag8
ag50
ag7
ag48
ag3
ag4
ag14
ag25
ag8
ag5
ag49
ag3
ag14
ag14
ag8
ag4
ag8
ag49
ag3
ag4
ag14
ag25
ag8
ag11
ag7
ag3
ag4
ag14
ag25
ag8
ag8
ag50
ag7
ag48
ag3
ag4
ag14
ag11
ag30
ag19
ag49
ag3
ag4
ag14
ag25
ag8
ag5
ag49
ag3
ag14
ag19
ag5
ag14
ag19
ag50
ag7
ag3
ag4
ag14
ag5
ag25
ag6
ag7
ag48
ag3
ag4
ag4
ag6
ag4
ag30
ag49
ag3
ag4
ag14
ag20
ag11
ag30
ag49
ag3
ag4
ag6
ag8
ag6
ag19
ag7
ag3
ag14
ag14
ag14
ag5
ag6
ag50
asS'M00159'
p608
(lp609
g3
ag4
ag30
ag14
ag14
ag5
ag35
ag3
ag4
ag30
ag14
ag14
ag8
ag35
ag3
ag4
ag30
ag14
ag14
ag11
ag35
ag3
ag4
ag30
ag14
ag30
ag4
ag35
ag3
ag4
ag30
ag14
ag30
ag14
ag35
ag3
ag4
ag30
ag14
ag30
ag30
ag35
ag3
ag4
ag30
ag14
ag4
ag5
ag35
ag3
ag4
ag30
ag14
ag30
ag19
ag35
ag3
ag4
ag30
ag14
ag30
ag20
asS'M00158'
p610
(lp611
g3
ag4
ag30
ag14
ag19
ag30
ag35
ag3
ag4
ag30
ag14
ag19
ag19
ag35
ag3
ag4
ag30
ag14
ag19
ag6
ag35
ag3
ag4
ag30
ag14
ag19
ag20
ag35
ag3
ag4
ag30
ag14
ag19
ag25
ag35
ag3
ag4
ag30
ag14
ag19
ag5
ag35
ag3
ag4
ag30
ag14
ag30
ag6
ag35
ag3
ag4
ag30
ag14
ag30
ag5
ag35
ag3
ag4
ag30
ag14
ag30
ag8
ag35
ag3
ag4
ag30
ag14
ag19
ag8
ag35
ag48
ag3
ag4
ag30
ag14
ag30
ag11
ag49
ag3
ag4
ag14
ag25
ag20
ag11
ag50
ag35
ag48
ag3
ag4
ag30
ag14
ag19
ag4
ag49
ag3
ag4
ag30
ag14
ag19
ag11
ag50
ag35
ag3
ag4
ag30
ag14
ag20
ag4
ag35
ag48
ag3
ag4
ag30
ag14
ag20
ag14
ag49
ag3
ag4
ag30
ag14
ag19
ag14
ag50
ag55
ag3
ag4
ag30
ag14
ag20
ag30
ag55
ag3
ag4
ag30
ag14
ag20
ag19
ag35
ag3
ag4
ag30
ag14
ag30
ag25
asS'M00138'
p612
(lp613
g3
ag4
ag4
ag20
ag5
ag25
ag7
ag3
ag14
ag19
ag4
ag8
ag30
ag7
ag3
ag4
ag25
ag30
ag5
ag5
asS'M00135'
p614
(lp615
g3
ag4
ag4
ag6
ag25
ag5
ag7
ag3
ag4
ag4
ag30
ag5
ag20
ag7
ag48
ag3
ag4
ag4
ag14
ag30
ag8
ag49
ag3
ag14
ag20
ag4
ag8
ag25
ag49
ag3
ag4
ag4
ag14
ag20
ag11
ag50
ag7
ag55
ag55
asS'M00134'
p616
(lp617
g3
ag4
ag14
ag20
ag5
ag6
ag7
ag3
ag4
ag14
ag25
ag8
ag14
asS'M00137'
p618
(lp619
g3
ag14
ag4
ag5
ag5
ag25
ag7
ag3
ag4
ag4
ag20
ag8
ag5
ag7
ag3
ag4
ag14
ag11
ag4
ag20
ag7
ag3
ag4
ag4
ag6
ag6
ag4
ag7
ag3
ag4
ag14
ag8
ag25
ag11
asS'M00136'
p620
(lp621
g3
ag4
ag11
ag20
ag5
ag4
ag7
ag3
ag4
ag11
ag20
ag5
ag14
ag7
ag3
ag4
ag11
ag20
ag5
ag30
ag7
ag3
ag4
ag11
ag20
ag5
ag19
asS'M00131'
p622
(lp623
g3
ag4
ag14
ag14
ag4
ag6
ag7
ag48
ag3
ag4
ag14
ag14
ag4
ag5
ag49
ag3
ag14
ag25
ag20
ag30
ag30
ag50
ag7
ag3
ag4
ag14
ag14
ag4
ag11
ag7
ag48
ag3
ag4
ag14
ag4
ag11
ag30
ag49
ag3
ag14
ag25
ag5
ag25
ag11
ag49
ag3
ag14
ag4
ag4
ag20
ag5
ag49
ag3
ag14
ag8
ag6
ag20
ag11
ag50
asS'M00130'
p624
(lp625
g48
ag3
ag4
ag4
ag8
ag8
ag8
ag49
ag3
ag14
ag11
ag8
ag4
ag14
ag49
ag3
ag14
ag19
ag5
ag14
ag14
ag50
ag7
ag48
ag3
ag4
ag4
ag8
ag8
ag11
ag49
ag3
ag14
ag19
ag5
ag14
ag30
ag50
ag7
ag48
ag3
ag4
ag14
ag14
ag14
ag6
ag49
ag3
ag4
ag25
ag8
ag25
ag5
ag49
ag3
ag4
ag25
ag8
ag25
ag8
ag49
ag3
ag4
ag25
ag8
ag25
ag11
ag49
ag3
ag4
ag25
ag8
ag6
ag4
ag49
ag3
ag4
ag25
ag8
ag6
ag14
ag50
ag7
ag3
ag4
ag4
ag11
ag14
ag14
asS'M00133'
p626
(lp627
g48
ag3
ag4
ag14
ag25
ag8
ag19
ag49
ag3
ag4
ag14
ag25
ag8
ag20
ag49
ag3
ag4
ag14
ag25
ag8
ag25
ag49
ag3
ag4
ag30
ag6
ag30
ag6
ag50
ag7
ag3
ag4
ag14
ag20
ag8
ag4
asS'M00132'
p628
(lp629
g3
ag4
ag4
ag11
ag14
ag19
ag7
ag3
ag4
ag4
ag11
ag14
ag25
ag7
ag3
ag14
ag4
ag25
ag5
ag30
asS'M00708'
p630
(lp631
g3
ag14
ag8
ag8
ag11
ag14
ag35
ag3
ag14
ag8
ag8
ag11
ag30
asS'M00709'
p632
(lp633
g3
ag4
ag5
ag6
ag19
ag5
ag7
ag3
ag4
ag5
ag6
ag6
ag4
ag7
ag3
ag4
ag25
ag6
ag8
ag25
ag35
ag3
ag14
ag19
ag8
ag8
ag8
ag35
ag3
ag14
ag30
ag19
ag20
ag4
asS'M00706'
p634
(lp635
g3
ag14
ag8
ag8
ag8
ag5
ag35
ag3
ag14
ag8
ag8
ag8
ag8
asS'M00707'
p636
(lp637
g3
ag14
ag8
ag8
ag8
ag11
ag35
ag3
ag14
ag8
ag8
ag11
ag4
asS'M00704'
p638
(lp639
g3
ag14
ag8
ag11
ag4
ag6
ag7
ag3
ag4
ag8
ag14
ag6
ag8
asS'M00705'
p640
(lp641
g3
ag14
ag8
ag11
ag4
ag11
ag7
ag3
ag14
ag8
ag11
ag4
ag8
asS'M00702'
p642
(lp643
g48
ag3
ag14
ag8
ag11
ag4
ag6
ag49
ag3
ag14
ag8
ag11
ag4
ag5
ag50
ag7
ag3
ag4
ag8
ag14
ag5
ag4
asS'M00700'
p644
(lp645
g48
ag3
ag14
ag8
ag11
ag4
ag6
ag49
ag3
ag14
ag8
ag11
ag4
ag5
ag50
ag7
ag3
ag14
ag8
ag14
ag4
ag20
asS'M00701'
p646
(lp647
g3
ag14
ag25
ag11
ag5
ag20
ag7
ag3
ag4
ag19
ag25
ag20
ag19
ag35
ag3
ag4
ag19
ag20
ag20
ag6
asS'M00043'
p648
(lp649
g3
ag4
ag4
ag20
ag19
ag14
asS'M00738'
p650
(lp651
g3
ag14
ag14
ag6
ag30
ag11
ag7
ag3
ag14
ag14
ag6
ag19
ag4
ag7
ag3
ag14
ag14
ag6
ag19
ag14
ag35
ag3
ag14
ag14
ag6
ag19
ag30
asS'M00151'
p652
(lp653
g48
ag48
ag3
ag4
ag4
ag20
ag14
ag30
ag35
ag3
ag4
ag4
ag20
ag14
ag19
ag49
ag3
ag4
ag4
ag20
ag14
ag4
ag50
ag35
ag3
ag4
ag4
ag20
ag14
ag14
ag50
ag49
ag3
ag4
ag19
ag8
ag8
ag6
ag35
ag3
ag4
ag19
ag8
ag8
ag5
ag35
ag3
ag4
ag19
ag8
ag8
ag8
ag49
ag3
ag4
ag19
ag8
ag11
ag4
ag35
ag3
ag4
ag19
ag8
ag11
ag14
ag35
ag3
ag4
ag19
ag8
ag8
ag11
asS'M00360'
p654
(lp655
g3
ag4
ag14
ag8
ag5
ag30
ag7
ag3
ag4
ag14
ag8
ag8
ag5
ag7
ag48
ag3
ag4
ag14
ag8
ag11
ag19
ag49
ag3
ag4
ag14
ag8
ag5
ag6
ag49
ag3
ag4
ag11
ag5
ag25
ag11
ag50
ag7
ag3
ag4
ag14
ag8
ag8
ag19
ag7
ag48
ag3
ag4
ag14
ag8
ag8
ag6
ag49
ag3
ag4
ag14
ag8
ag8
ag25
ag49
ag3
ag4
ag11
ag6
ag11
ag8
ag50
ag7
ag48
ag48
ag3
ag4
ag14
ag8
ag5
ag8
ag35
ag3
ag4
ag14
ag8
ag5
ag11
ag50
ag49
ag3
ag14
ag20
ag14
ag6
ag20
ag49
ag3
ag4
ag14
ag8
ag8
ag4
ag50
ag7
ag3
ag4
ag14
ag8
ag11
ag30
ag7
ag3
ag4
ag14
ag8
ag5
ag4
ag7
ag3
ag4
ag14
ag8
ag6
ag11
ag7
ag48
ag3
ag4
ag20
ag25
ag6
ag5
ag49
ag3
ag4
ag20
ag25
ag6
ag6
ag50
ag7
ag3
ag4
ag14
ag8
ag5
ag20
ag7
ag3
ag4
ag14
ag8
ag8
ag11
ag35
ag3
ag4
ag14
ag8
ag11
ag4
ag7
ag3
ag4
ag14
ag8
ag8
ag14
ag7
ag3
ag4
ag14
ag8
ag5
ag25
ag7
ag3
ag4
ag14
ag8
ag6
ag8
ag7
ag3
ag4
ag14
ag8
ag6
ag5
ag7
ag3
ag4
ag14
ag8
ag6
ag6
ag7
ag3
ag4
ag14
ag8
ag5
ag19
ag7
ag55
ag3
ag4
ag5
ag25
ag8
ag5
ag7
ag55
ag3
ag14
ag14
ag6
ag30
ag5
ag7
ag55
ag3
ag4
ag14
ag8
ag8
ag20
asS'M00150'
p656
(lp657
g3
ag4
ag4
ag30
ag20
ag20
ag35
ag3
ag4
ag4
ag30
ag20
ag25
ag35
ag3
ag4
ag4
ag30
ag20
ag6
ag35
ag3
ag4
ag4
ag30
ag20
ag5
asS'M00361'
p658
(lp659
g3
ag4
ag4
ag11
ag6
ag19
ag7
ag3
ag4
ag14
ag5
ag8
ag20
ag7
ag3
ag4
ag4
ag11
ag5
ag30
ag7
ag3
ag4
ag4
ag4
ag14
ag30
ag7
ag3
ag4
ag8
ag6
ag5
ag8
ag7
ag48
ag3
ag4
ag4
ag11
ag6
ag6
ag49
ag3
ag4
ag4
ag11
ag5
ag14
ag50
asS'M00229'
p660
(lp661
g48
ag3
ag4
ag11
ag11
ag11
ag6
ag49
ag3
ag4
ag11
ag11
ag11
ag5
ag50
ag35
ag3
ag4
ag11
ag11
ag11
ag8
ag35
ag3
ag4
ag11
ag11
ag11
ag11
ag35
ag3
ag14
ag4
ag4
ag4
ag4
asS'M00228'
p662
(lp663
g3
ag14
ag4
ag4
ag19
ag11
ag35
ag3
ag14
ag4
ag4
ag20
ag4
ag35
ag3
ag14
ag4
ag4
ag20
ag14
asS'M00182'
p664
(lp665
g3
ag4
ag30
ag11
ag11
ag11
ag35
ag3
ag4
ag19
ag4
ag4
ag30
ag35
ag3
ag4
ag19
ag4
ag30
ag5
ag35
ag3
ag4
ag19
ag4
ag30
ag4
ag35
ag3
ag4
ag19
ag4
ag4
ag4
ag55
ag3
ag4
ag19
ag4
ag4
ag14
ag55
ag3
ag4
ag19
ag4
ag4
ag19
ag35
ag3
ag4
ag19
ag4
ag4
ag20
ag35
ag3
ag4
ag19
ag4
ag4
ag25
ag35
ag3
ag4
ag19
ag4
ag14
ag19
ag35
ag3
ag4
ag19
ag4
ag14
ag20
ag35
ag3
ag4
ag19
ag4
ag14
ag6
ag35
ag3
ag4
ag19
ag4
ag4
ag11
ag35
ag3
ag4
ag19
ag4
ag4
ag5
asS'M00183'
p666
(lp667
g3
ag4
ag19
ag4
ag20
ag4
ag35
ag48
ag3
ag4
ag19
ag4
ag20
ag19
ag35
ag3
ag4
ag19
ag4
ag20
ag6
ag49
ag3
ag14
ag19
ag5
ag11
ag5
ag50
ag35
ag3
ag4
ag19
ag4
ag6
ag4
ag55
ag3
ag4
ag19
ag4
ag20
ag8
asS'M00184'
p668
(lp669
g3
ag4
ag19
ag4
ag20
ag30
ag35
ag3
ag4
ag19
ag4
ag20
ag14
ag35
ag48
ag3
ag4
ag19
ag4
ag20
ag20
ag35
ag3
ag4
ag19
ag4
ag20
ag25
ag49
ag3
ag14
ag19
ag5
ag11
ag8
ag50
ag35
ag3
ag4
ag19
ag4
ag25
ag19
ag35
ag3
ag4
ag19
ag4
ag25
ag25
ag35
ag3
ag4
ag19
ag4
ag25
ag8
ag35
ag3
ag4
ag19
ag4
ag20
ag5
ag35
ag3
ag4
ag19
ag4
ag20
ag11
ag35
ag3
ag4
ag19
ag4
ag25
ag4
ag35
ag3
ag4
ag19
ag4
ag25
ag6
ag35
ag3
ag4
ag19
ag4
ag25
ag11
ag35
ag3
ag4
ag19
ag4
ag25
ag14
ag55
ag3
ag4
ag19
ag4
ag25
ag30
ag55
ag3
ag4
ag19
ag4
ag25
ag20
asS'M00185'
p670
(lp671
g3
ag4
ag30
ag4
ag20
ag8
ag35
ag3
ag4
ag30
ag4
ag20
ag6
ag35
ag3
ag4
ag30
ag4
ag20
ag5
ag35
ag3
ag4
ag30
ag4
ag20
ag25
asS'M00186'
p672
(lp673
g3
ag4
ag25
ag5
ag5
ag30
ag35
ag3
ag4
ag25
ag5
ag5
ag19
ag35
ag3
ag4
ag6
ag8
ag25
ag5
asS'M00221'
p674
(lp675
g3
ag4
ag30
ag4
ag25
ag8
ag35
ag3
ag4
ag30
ag4
ag25
ag5
ag35
ag3
ag4
ag30
ag4
ag25
ag6
asS'M00220'
p676
(lp677
g3
ag14
ag4
ag25
ag25
ag11
ag35
ag3
ag14
ag4
ag25
ag6
ag4
ag35
ag3
ag14
ag4
ag25
ag6
ag14
ag35
ag3
ag14
ag4
ag25
ag6
ag30
asS'M00223'
p678
(lp679
g3
ag4
ag30
ag4
ag20
ag20
ag35
ag3
ag4
ag30
ag4
ag20
ag30
ag35
ag3
ag4
ag30
ag4
ag20
ag14
asS'M00222'
p680
(lp681
g3
ag4
ag30
ag4
ag20
ag4
ag35
ag3
ag4
ag30
ag4
ag19
ag5
ag35
ag3
ag4
ag30
ag4
ag19
ag8
ag35
ag3
ag4
ag30
ag4
ag19
ag6
asS'M00225'
p682
(lp683
g3
ag14
ag4
ag4
ag14
ag19
ag35
ag3
ag14
ag4
ag4
ag14
ag25
ag35
ag3
ag14
ag4
ag4
ag14
ag6
ag35
ag3
ag14
ag4
ag4
ag14
ag5
asS'M00224'
p684
(lp685
g3
ag14
ag6
ag11
ag4
ag25
ag35
ag3
ag14
ag6
ag11
ag4
ag6
ag35
ag3
ag14
ag6
ag11
ag4
ag5
asS'M00227'
p686
(lp687
g3
ag14
ag4
ag4
ag19
ag6
ag35
ag3
ag14
ag4
ag4
ag19
ag5
ag35
ag3
ag14
ag4
ag4
ag19
ag8
asS'M00226'
p688
(lp689
g3
ag14
ag4
ag4
ag14
ag20
ag35
ag3
ag14
ag4
ag4
ag14
ag25
ag35
ag3
ag14
ag4
ag4
ag14
ag6
ag35
ag3
ag14
ag4
ag4
ag14
ag5
asS'M00795'
p690
(lp691
g3
ag14
ag11
ag8
ag25
ag25
ag7
ag3
ag14
ag30
ag5
ag14
ag4
ag7
ag3
ag14
ag5
ag6
ag30
ag25
asS'M00794'
p692
(lp693
g3
ag14
ag19
ag19
ag14
ag30
ag7
ag3
ag14
ag19
ag19
ag14
ag19
asS'M00797'
p694
(lp695
g3
ag14
ag19
ag19
ag4
ag8
ag7
ag3
ag14
ag19
ag19
ag4
ag11
ag7
ag48
ag3
ag14
ag19
ag19
ag14
ag4
ag49
ag3
ag14
ag6
ag20
ag19
ag6
ag50
ag7
ag48
ag3
ag14
ag19
ag19
ag14
ag14
ag49
ag3
ag14
ag19
ag19
ag30
ag6
ag50
asS'M00796'
p696
(lp697
g3
ag14
ag11
ag8
ag25
ag19
ag7
ag3
ag14
ag11
ag8
ag25
ag20
ag7
ag3
ag14
ag19
ag19
ag4
ag5
asS'M00791'
p698
(lp699
g3
ag14
ag11
ag11
ag5
ag14
ag35
ag3
ag14
ag11
ag11
ag5
ag30
ag35
ag3
ag14
ag4
ag8
ag19
ag4
asS'M00790'
p700
(lp701
g3
ag14
ag20
ag30
ag6
ag6
ag7
ag3
ag14
ag11
ag11
ag8
ag14
ag7
ag3
ag14
ag20
ag30
ag25
ag5
ag7
ag3
ag14
ag11
ag11
ag8
ag30
asS'M00793'
p702
(lp703
g3
ag4
ag4
ag11
ag5
ag19
ag7
ag3
ag4
ag14
ag5
ag14
ag4
ag7
ag3
ag4
ag14
ag5
ag11
ag4
ag7
ag3
ag4
ag4
ag4
ag6
ag5
asS'M00792'
p704
(lp705
g3
ag14
ag11
ag11
ag5
ag25
ag35
ag3
ag14
ag11
ag11
ag5
ag6
ag35
ag3
ag14
ag11
ag11
ag5
ag19
asS'M00812'
p706
(lp707
g3
ag30
ag4
ag19
ag19
ag11
ag7
ag3
ag30
ag4
ag19
ag20
ag4
asS'M00768'
p708
(lp709
g3
ag14
ag11
ag25
ag11
ag30
ag7
ag3
ag14
ag11
ag25
ag11
ag25
ag35
ag3
ag14
ag11
ag25
ag11
ag20
ag35
ag3
ag14
ag8
ag14
ag19
ag11
asS'M00810'
p710
(lp711
g3
ag14
ag11
ag8
ag14
ag8
ag35
ag3
ag14
ag11
ag8
ag14
ag11
ag35
ag3
ag14
ag11
ag8
ag30
ag4
ag7
ag48
ag3
ag14
ag11
ag8
ag30
ag6
ag49
ag3
ag14
ag11
ag8
ag11
ag4
ag50
ag7
ag3
ag14
ag11
ag14
ag8
ag25
ag35
ag3
ag14
ag11
ag14
ag8
ag6
ag35
ag3
ag14
ag11
ag14
ag8
ag5
ag7
ag3
ag14
ag11
ag14
ag8
ag8
ag7
ag55
ag3
ag30
ag4
ag14
ag25
ag25
asS'M00811'
p712
(lp713
g3
ag30
ag4
ag14
ag5
ag4
ag49
ag3
ag30
ag4
ag14
ag6
ag11
ag7
ag48
ag3
ag30
ag4
ag14
ag5
ag4
ag49
ag48
ag3
ag30
ag4
ag14
ag25
ag8
ag7
ag3
ag14
ag11
ag5
ag4
ag4
ag50
ag50
ag7
ag3
ag30
ag4
ag14
ag5
ag14
ag55
ag3
ag30
ag4
ag14
ag5
ag30
ag7
ag3
ag14
ag25
ag19
ag25
ag11
ag49
ag3
ag14
ag8
ag30
ag5
ag6
asS'M00799'
p714
(lp715
g3
ag14
ag6
ag20
ag19
ag25
ag7
ag3
ag14
ag19
ag19
ag14
ag25
ag7
ag3
ag14
ag6
ag20
ag19
ag8
ag7
ag3
ag14
ag11
ag8
ag25
ag6
ag7
ag3
ag14
ag11
ag8
ag25
ag5
asS'M00798'
p716
(lp717
g3
ag14
ag6
ag20
ag19
ag25
ag7
ag3
ag14
ag19
ag19
ag14
ag25
ag7
ag3
ag14
ag19
ag19
ag14
ag5
ag7
ag48
ag3
ag14
ag19
ag19
ag14
ag6
ag49
ag3
ag14
ag6
ag20
ag19
ag8
ag50
ag7
ag3
ag14
ag19
ag19
ag14
ag8
asS'M00814'
p718
(lp719
g3
ag14
ag11
ag11
ag6
ag11
ag7
ag3
ag14
ag11
ag11
ag5
ag11
ag7
ag3
ag14
ag11
ag11
ag5
ag20
ag7
ag3
ag30
ag4
ag20
ag30
ag20
ag7
ag3
ag30
ag4
ag20
ag30
ag25
ag7
ag3
ag30
ag4
ag20
ag30
ag6
ag7
ag3
ag30
ag4
ag20
ag30
ag5
ag7
ag3
ag30
ag4
ag20
ag19
ag4
ag7
ag55
ag55
ag7
ag55
ag55
asS'M00769'
p720
(lp721
g3
ag14
ag8
ag19
ag4
ag20
ag7
ag3
ag14
ag11
ag25
ag11
ag14
ag7
ag3
ag14
ag11
ag25
ag11
ag25
ag35
ag3
ag14
ag11
ag25
ag11
ag20
ag35
ag3
ag14
ag11
ag25
ag11
ag19
asS'M00188'
p722
(lp723
g3
ag4
ag30
ag4
ag25
ag14
ag35
ag3
ag4
ag30
ag4
ag25
ag4
ag35
ag3
ag4
ag30
ag4
ag20
ag11
asS'M00447'
p724
(lp725
g3
ag4
ag5
ag6
ag20
ag4
ag7
ag3
ag4
ag5
ag6
ag6
ag30
asS'M00355'
p726
(lp727
g3
ag14
ag14
ag4
ag8
ag6
ag35
ag3
ag14
ag14
ag4
ag8
ag5
ag35
ag3
ag14
ag14
ag4
ag11
ag6
ag35
ag3
ag14
ag14
ag4
ag8
ag8
ag35
ag3
ag14
ag14
ag4
ag11
ag5
ag35
ag3
ag14
ag14
ag4
ag11
ag8
ag35
ag3
ag14
ag14
ag4
ag11
ag11
ag35
ag3
ag14
ag30
ag8
ag25
ag6
ag35
ag3
ag14
ag30
ag8
ag25
ag20
ag35
ag3
ag14
ag30
ag8
ag25
ag30
ag35
ag3
ag14
ag30
ag8
ag25
ag5
ag35
ag3
ag14
ag4
ag25
ag11
ag11
ag35
ag3
ag14
ag30
ag8
ag6
ag4
ag35
ag3
ag14
ag30
ag8
ag6
ag14
ag35
ag3
ag14
ag30
ag8
ag6
ag30
ag35
ag3
ag14
ag30
ag8
ag6
ag19
ag35
ag3
ag4
ag6
ag4
ag6
ag19
ag35
ag3
ag14
ag30
ag8
ag6
ag5
ag35
ag3
ag14
ag30
ag8
ag6
ag8
ag35
ag3
ag14
ag30
ag8
ag6
ag11
ag35
ag3
ag14
ag30
ag8
ag5
ag4
ag35
ag3
ag14
ag30
ag8
ag5
ag14
ag35
ag3
ag14
ag30
ag8
ag5
ag30
ag35
ag3
ag14
ag30
ag8
ag5
ag19
ag35
ag3
ag14
ag30
ag8
ag5
ag20
ag35
ag3
ag4
ag11
ag25
ag6
ag20
ag35
ag3
ag14
ag30
ag5
ag19
ag19
ag35
ag3
ag14
ag30
ag8
ag14
ag6
ag35
ag3
ag14
ag19
ag14
ag14
ag5
ag35
ag3
ag4
ag19
ag30
ag8
ag19
ag35
ag3
ag14
ag19
ag14
ag30
ag19
asS'M00354'
p728
(lp729
g3
ag14
ag14
ag4
ag8
ag6
ag35
ag3
ag14
ag14
ag4
ag8
ag5
ag35
ag3
ag14
ag14
ag4
ag11
ag6
ag35
ag3
ag14
ag14
ag4
ag8
ag8
ag35
ag3
ag14
ag14
ag4
ag11
ag5
ag35
ag3
ag14
ag14
ag4
ag11
ag8
ag35
ag3
ag14
ag14
ag4
ag11
ag11
ag35
ag3
ag14
ag30
ag6
ag30
ag14
ag35
ag3
ag14
ag30
ag6
ag30
ag30
ag35
ag3
ag14
ag30
ag6
ag30
ag19
ag35
ag3
ag14
ag30
ag6
ag30
ag20
ag35
ag3
ag14
ag30
ag6
ag30
ag25
ag35
ag3
ag14
ag30
ag6
ag30
ag6
ag35
ag3
ag14
ag30
ag6
ag30
ag5
ag35
ag3
ag14
ag30
ag8
ag20
ag19
ag35
ag3
ag14
ag30
ag6
ag6
ag30
ag35
ag3
ag4
ag11
ag25
ag6
ag5
ag35
ag3
ag14
ag30
ag8
ag20
ag20
ag35
ag3
ag14
ag30
ag8
ag20
ag25
ag35
ag3
ag14
ag30
ag8
ag25
ag30
ag55
ag3
ag14
ag30
ag8
ag25
ag19
ag35
ag3
ag14
ag30
ag8
ag25
ag25
ag35
ag3
ag14
ag30
ag8
ag25
ag6
ag35
ag3
ag14
ag30
ag8
ag25
ag5
ag35
ag3
ag14
ag30
ag8
ag25
ag20
ag35
ag3
ag14
ag30
ag8
ag25
ag8
ag35
ag3
ag14
ag30
ag8
ag25
ag11
ag35
ag3
ag14
ag19
ag4
ag11
ag11
ag35
ag3
ag14
ag14
ag11
ag8
ag20
ag35
ag3
ag14
ag30
ag8
ag20
ag5
ag35
ag3
ag14
ag30
ag8
ag20
ag6
asS'M00357'
p730
(lp731
g48
ag3
ag4
ag4
ag11
ag30
ag25
ag7
ag48
ag3
ag4
ag4
ag6
ag30
ag25
ag49
ag3
ag14
ag19
ag5
ag8
ag8
ag50
ag49
ag3
ag4
ag14
ag8
ag11
ag25
ag50
ag7
ag48
ag3
ag4
ag4
ag14
ag11
ag19
ag35
ag3
ag4
ag4
ag14
ag11
ag5
ag35
ag3
ag4
ag4
ag14
ag11
ag20
ag50
ag7
ag48
ag3
ag4
ag4
ag25
ag5
ag5
ag35
ag3
ag4
ag4
ag25
ag5
ag8
ag35
ag3
ag4
ag4
ag25
ag5
ag11
ag35
ag3
ag4
ag4
ag25
ag8
ag4
ag35
ag3
ag4
ag4
ag25
ag8
ag14
ag55
ag3
ag4
ag4
ag25
ag8
ag30
ag55
ag3
ag4
ag4
ag25
ag8
ag19
ag35
ag3
ag4
ag4
ag25
ag8
ag20
ag50
ag7
ag48
ag3
ag4
ag4
ag19
ag11
ag11
ag35
ag3
ag4
ag4
ag20
ag4
ag14
ag35
ag3
ag4
ag4
ag20
ag4
ag30
ag50
ag7
ag48
ag3
ag4
ag19
ag19
ag8
ag8
ag35
ag3
ag4
ag19
ag19
ag8
ag11
ag35
ag3
ag4
ag19
ag19
ag11
ag4
ag50
asS'M00356'
p732
(lp733
g3
ag14
ag20
ag4
ag8
ag4
ag35
ag3
ag4
ag20
ag20
ag8
ag4
ag35
ag3
ag14
ag20
ag4
ag8
ag14
ag7
ag3
ag4
ag4
ag19
ag11
ag11
ag35
ag3
ag4
ag4
ag20
ag4
ag14
ag35
ag3
ag4
ag4
ag20
ag4
ag30
ag7
ag3
ag4
ag19
ag19
ag8
ag8
ag35
ag3
ag4
ag19
ag19
ag8
ag11
ag35
ag3
ag4
ag19
ag19
ag11
ag4
asS'M00351'
p734
(lp735
g3
ag14
ag14
ag4
ag8
ag6
ag35
ag3
ag14
ag14
ag4
ag8
ag5
ag35
ag3
ag14
ag14
ag4
ag11
ag6
ag35
ag3
ag14
ag14
ag4
ag8
ag8
ag35
ag3
ag14
ag14
ag4
ag11
ag5
ag35
ag3
ag14
ag14
ag4
ag11
ag8
ag35
ag3
ag14
ag14
ag4
ag11
ag11
ag35
ag3
ag14
ag14
ag4
ag11
ag19
ag35
ag3
ag14
ag14
ag4
ag11
ag14
ag35
ag3
ag14
ag14
ag4
ag11
ag25
asS'M00350'
p736
(lp737
g48
ag3
ag14
ag4
ag5
ag5
ag25
ag49
ag3
ag14
ag19
ag4
ag6
ag20
ag50
ag7
ag3
ag4
ag4
ag20
ag8
ag5
ag7
ag3
ag4
ag14
ag11
ag4
ag20
ag7
ag3
ag4
ag4
ag25
ag8
ag8
asS'M00353'
p738
(lp739
g3
ag14
ag4
ag25
ag11
ag11
ag35
ag3
ag14
ag30
ag8
ag6
ag4
ag35
ag3
ag14
ag30
ag8
ag6
ag14
ag35
ag3
ag14
ag30
ag8
ag6
ag30
ag35
ag3
ag14
ag30
ag8
ag6
ag19
ag35
ag3
ag14
ag30
ag8
ag6
ag20
ag35
ag3
ag4
ag19
ag30
ag8
ag19
ag35
ag3
ag14
ag30
ag8
ag6
ag25
ag35
ag3
ag14
ag30
ag8
ag6
ag6
asS'M00352'
p740
(lp741
g3
ag14
ag14
ag4
ag8
ag6
ag35
ag3
ag14
ag14
ag4
ag8
ag5
ag35
ag3
ag14
ag14
ag4
ag11
ag6
ag35
ag3
ag14
ag14
ag4
ag8
ag8
ag35
ag3
ag14
ag14
ag4
ag11
ag5
ag35
ag3
ag14
ag14
ag4
ag11
ag8
ag35
ag3
ag14
ag14
ag4
ag11
ag11
ag35
ag3
ag14
ag14
ag4
ag11
ag30
ag35
ag3
ag14
ag14
ag4
ag11
ag20
ag35
ag3
ag14
ag30
ag8
ag30
ag25
ag35
ag3
ag14
ag30
ag8
ag30
ag6
ag35
ag3
ag14
ag30
ag8
ag30
ag5
ag35
ag3
ag14
ag30
ag8
ag30
ag8
ag35
ag3
ag14
ag30
ag8
ag30
ag11
ag35
ag3
ag14
ag30
ag8
ag19
ag4
ag35
ag3
ag14
ag30
ag8
ag19
ag14
ag35
ag3
ag14
ag30
ag8
ag19
ag30
ag35
ag3
ag14
ag30
ag8
ag19
ag19
ag35
ag3
ag14
ag30
ag8
ag19
ag25
ag35
ag3
ag14
ag30
ag8
ag19
ag20
asS'M00452'
p742
(lp743
g3
ag4
ag5
ag6
ag20
ag20
ag7
ag3
ag4
ag5
ag6
ag6
ag25
asS'M00453'
p744
(lp745
g3
ag4
ag5
ag6
ag20
ag25
ag7
ag3
ag4
ag5
ag6
ag6
ag6
asS'M00450'
p746
(lp747
g3
ag4
ag5
ag6
ag20
ag30
ag7
ag3
ag4
ag5
ag6
ag6
ag20
asS'M00451'
p748
(lp749
g3
ag4
ag5
ag6
ag20
ag19
ag7
ag3
ag4
ag5
ag5
ag5
ag14
asS'M00359'
p750
(lp751
g3
ag4
ag14
ag8
ag5
ag30
ag7
ag3
ag4
ag14
ag8
ag8
ag5
ag7
ag3
ag4
ag14
ag8
ag11
ag19
ag7
ag3
ag4
ag14
ag8
ag5
ag6
ag7
ag3
ag4
ag14
ag8
ag8
ag19
ag7
ag3
ag4
ag14
ag8
ag8
ag6
ag7
ag3
ag4
ag14
ag8
ag8
ag25
ag7
ag3
ag4
ag14
ag8
ag8
ag4
ag7
ag3
ag4
ag14
ag8
ag11
ag30
ag7
ag3
ag4
ag14
ag8
ag5
ag4
ag7
ag3
ag4
ag14
ag8
ag6
ag11
ag7
ag3
ag4
ag20
ag25
ag6
ag5
ag7
ag3
ag4
ag14
ag8
ag5
ag20
ag7
ag48
ag3
ag4
ag14
ag8
ag8
ag11
ag35
ag3
ag4
ag14
ag8
ag11
ag4
ag50
ag7
ag3
ag4
ag14
ag8
ag8
ag14
ag7
ag3
ag4
ag14
ag8
ag5
ag25
ag7
ag3
ag4
ag14
ag8
ag6
ag8
ag7
ag3
ag4
ag14
ag8
ag6
ag5
ag7
ag3
ag4
ag14
ag8
ag6
ag6
ag7
ag3
ag4
ag14
ag8
ag5
ag19
ag7
ag55
ag3
ag14
ag20
ag14
ag6
ag19
asS'M00358'
p752
(lp753
g3
ag4
ag8
ag4
ag11
ag5
ag7
ag3
ag4
ag25
ag11
ag5
ag11
ag7
ag3
ag4
ag25
ag8
ag8
ag20
ag7
ag3
ag14
ag19
ag4
ag19
ag11
ag35
ag3
ag4
ag6
ag4
ag19
ag20
asS'M00454'
p754
(lp755
g3
ag4
ag5
ag6
ag20
ag6
ag7
ag3
ag4
ag5
ag6
ag6
ag5
asS'M00455'
p756
(lp757
g3
ag4
ag5
ag6
ag20
ag5
ag7
ag3
ag4
ag5
ag5
ag5
ag30
asS'M00762'
p758
(lp759
g3
ag14
ag11
ag19
ag20
ag14
ag35
ag3
ag14
ag11
ag19
ag20
ag4
asS'M00763'
p760
(lp761
g3
ag4
ag25
ag8
ag30
ag6
asS'M00319'
p762
(lp763
g3
ag14
ag14
ag5
ag4
ag5
ag35
ag3
ag14
ag14
ag5
ag4
ag8
ag35
ag3
ag14
ag14
ag5
ag4
ag11
ag35
ag3
ag14
ag14
ag5
ag14
ag4
asS'M00318'
p764
(lp765
g3
ag14
ag14
ag5
ag4
ag20
ag35
ag3
ag14
ag14
ag5
ag4
ag25
ag35
ag3
ag14
ag14
ag5
ag4
ag6
asS'M00531'
p766
(lp767
g48
ag3
ag4
ag4
ag19
ag6
ag5
ag49
ag3
ag14
ag4
ag25
ag19
ag20
ag49
ag3
ag4
ag4
ag19
ag5
ag30
ag55
ag3
ag4
ag4
ag19
ag6
ag4
ag50
ag7
ag48
ag3
ag4
ag4
ag19
ag6
ag6
ag49
ag3
ag14
ag5
ag8
ag5
ag5
ag50
asS'M00530'
p768
(lp769
g48
ag3
ag4
ag4
ag19
ag5
ag4
ag35
ag3
ag4
ag4
ag19
ag5
ag14
ag35
ag3
ag4
ag4
ag19
ag5
ag20
ag49
ag3
ag4
ag30
ag25
ag6
ag5
ag35
ag3
ag4
ag30
ag25
ag6
ag8
ag50
ag7
ag48
ag3
ag4
ag4
ag19
ag6
ag30
ag35
ag3
ag4
ag4
ag19
ag6
ag19
ag49
ag3
ag4
ag19
ag19
ag8
ag25
ag35
ag3
ag14
ag25
ag8
ag5
ag6
ag50
asS'M00533'
p770
(lp771
g3
ag4
ag4
ag20
ag25
ag25
ag7
ag48
ag3
ag4
ag4
ag14
ag25
ag14
ag49
ag3
ag14
ag4
ag30
ag14
ag11
ag50
ag7
ag3
ag4
ag14
ag8
ag30
ag6
ag7
ag3
ag4
ag25
ag11
ag30
ag14
asS'M00532'
p772
(lp773
g48
ag3
ag4
ag14
ag6
ag4
ag14
ag55
ag3
ag4
ag14
ag6
ag4
ag30
ag50
ag7
ag3
ag14
ag11
ag30
ag6
ag11
ag7
ag3
ag14
ag14
ag25
ag14
ag5
ag7
ag3
ag4
ag19
ag5
ag8
ag14
ag7
ag3
ag14
ag20
ag30
ag5
ag30
ag7
ag3
ag4
ag4
ag6
ag4
ag4
ag7
ag3
ag4
ag4
ag8
ag19
ag4
ag7
ag48
ag3
ag14
ag25
ag8
ag11
ag19
ag49
ag3
ag14
ag25
ag11
ag14
ag11
ag50
ag7
ag3
ag14
ag25
ag11
ag14
ag8
asS'M00535'
p774
(lp775
g3
ag4
ag11
ag4
ag14
ag14
ag7
ag3
ag4
ag14
ag5
ag4
ag19
ag35
ag3
ag4
ag14
ag5
ag4
ag20
ag7
ag3
ag4
ag4
ag4
ag25
ag30
asS'M00534'
p776
(lp777
g3
ag14
ag20
ag25
ag5
ag11
ag35
ag3
ag14
ag20
ag25
ag8
ag4
ag35
ag3
ag14
ag20
ag25
ag5
ag8
ag35
ag3
ag14
ag20
ag25
ag8
ag14
ag7
ag3
ag14
ag20
ag25
ag8
ag30
ag7
ag3
ag14
ag20
ag25
ag8
ag19
ag7
ag3
ag14
ag20
ag25
ag8
ag20
ag7
ag3
ag14
ag20
ag25
ag8
ag25
ag7
ag3
ag4
ag4
ag14
ag25
ag30
asS'M00537'
p778
(lp779
g3
ag14
ag25
ag5
ag25
ag5
ag35
ag3
ag14
ag25
ag5
ag25
ag8
ag7
ag3
ag4
ag4
ag4
ag25
ag25
ag7
ag3
ag4
ag4
ag14
ag20
ag14
asS'M00539'
p780
(lp781
g3
ag14
ag4
ag6
ag14
ag11
ag35
ag3
ag14
ag6
ag19
ag4
ag19
ag35
ag3
ag14
ag6
ag19
ag4
ag20
ag35
ag3
ag14
ag8
ag30
ag30
ag5
ag7
ag3
ag14
ag4
ag6
ag30
ag4
ag7
ag3
ag14
ag4
ag6
ag30
ag14
ag7
ag3
ag14
ag4
ag6
ag30
ag30
ag7
ag3
ag14
ag4
ag6
ag30
ag19
asS'M00538'
p782
(lp783
g3
ag14
ag25
ag5
ag6
ag4
ag35
ag3
ag14
ag25
ag5
ag6
ag14
ag55
ag3
ag14
ag25
ag5
ag6
ag30
ag35
ag3
ag14
ag25
ag5
ag6
ag19
ag35
ag3
ag14
ag25
ag5
ag6
ag20
ag55
ag3
ag14
ag25
ag5
ag6
ag25
ag7
ag3
ag4
ag4
ag4
ag25
ag25
ag7
ag3
ag4
ag4
ag14
ag20
ag14
asS'M00171'
p784
(lp785
g3
ag4
ag14
ag25
ag11
ag25
ag7
ag3
ag14
ag20
ag20
ag25
ag20
ag7
ag3
ag14
ag20
ag20
ag25
ag25
ag7
ag48
ag3
ag4
ag4
ag4
ag30
ag25
ag49
ag3
ag4
ag4
ag4
ag30
ag6
ag50
ag7
ag3
ag4
ag4
ag4
ag30
ag8
ag7
ag48
ag3
ag4
ag4
ag8
ag14
ag20
ag49
ag3
ag14
ag20
ag30
ag5
ag30
ag50
ag7
ag3
ag4
ag14
ag4
ag4
ag6
asS'M00170'
p786
(lp787
g3
ag4
ag14
ag25
ag11
ag25
ag7
ag3
ag14
ag20
ag20
ag25
ag20
ag7
ag3
ag14
ag20
ag20
ag25
ag25
ag7
ag3
ag4
ag14
ag6
ag14
ag4
asS'M00173'
p788
(lp789
g48
ag3
ag4
ag4
ag14
ag6
ag11
ag35
ag3
ag4
ag4
ag14
ag5
ag4
ag35
ag3
ag4
ag4
ag14
ag5
ag14
ag35
ag3
ag4
ag4
ag14
ag5
ag30
ag49
ag3
ag4
ag19
ag5
ag19
ag5
ag50
ag7
ag48
ag48
ag3
ag4
ag14
ag4
ag4
ag5
ag49
ag3
ag4
ag14
ag4
ag4
ag6
ag50
ag7
ag3
ag4
ag14
ag25
ag11
ag25
ag49
ag3
ag4
ag14
ag11
ag25
ag11
ag35
ag3
ag4
ag14
ag11
ag6
ag4
ag49
ag3
ag4
ag14
ag11
ag25
ag8
ag50
ag7
ag3
ag4
ag4
ag4
ag30
ag20
ag7
ag48
ag3
ag4
ag14
ag6
ag5
ag6
ag49
ag3
ag4
ag14
ag6
ag5
ag11
ag49
ag3
ag4
ag14
ag6
ag5
ag5
ag35
ag3
ag4
ag14
ag6
ag5
ag8
ag50
ag7
ag48
ag3
ag4
ag4
ag30
ag19
ag11
ag35
ag3
ag4
ag4
ag30
ag20
ag4
ag55
ag3
ag4
ag4
ag30
ag20
ag14
ag55
ag3
ag4
ag4
ag30
ag20
ag30
ag49
ag3
ag4
ag4
ag30
ag20
ag20
ag35
ag3
ag4
ag4
ag30
ag20
ag25
ag55
ag3
ag4
ag4
ag30
ag20
ag6
ag55
ag3
ag4
ag4
ag30
ag20
ag5
ag49
ag3
ag14
ag8
ag25
ag25
ag6
ag35
ag3
ag14
ag8
ag25
ag25
ag5
ag35
ag3
ag14
ag8
ag25
ag25
ag8
ag35
ag3
ag14
ag8
ag25
ag25
ag11
ag35
ag3
ag14
ag8
ag25
ag6
ag4
ag50
ag7
ag48
ag3
ag4
ag14
ag11
ag4
ag30
ag35
ag3
ag4
ag14
ag11
ag4
ag19
ag50
ag7
ag48
ag3
ag4
ag4
ag14
ag5
ag20
ag35
ag3
ag4
ag4
ag14
ag5
ag25
ag55
ag3
ag4
ag4
ag14
ag5
ag5
ag55
ag3
ag4
ag4
ag14
ag5
ag6
ag50
ag7
ag3
ag4
ag4
ag4
ag19
ag14
ag7
ag48
ag3
ag4
ag14
ag6
ag8
ag14
ag49
ag3
ag4
ag14
ag6
ag8
ag30
ag50
ag7
ag48
ag3
ag14
ag25
ag30
ag19
ag4
ag35
ag3
ag14
ag25
ag30
ag19
ag14
ag49
ag3
ag14
ag25
ag30
ag19
ag30
ag35
ag3
ag14
ag25
ag30
ag19
ag19
ag7
ag3
ag14
ag25
ag30
ag19
ag20
ag50
asS'M00172'
p790
(lp791
g3
ag4
ag14
ag25
ag11
ag25
ag7
ag3
ag4
ag4
ag4
ag25
ag14
ag7
ag3
ag4
ag4
ag4
ag30
ag11
ag7
ag3
ag4
ag14
ag4
ag4
ag6
asS'M00175'
p792
(lp793
g3
ag4
ag30
ag25
ag8
ag8
ag35
ag3
ag4
ag30
ag25
ag8
ag6
ag35
ag3
ag4
ag30
ag25
ag11
ag14
ag55
ag3
ag4
ag4
ag25
ag19
ag14
asS'M00174'
p794
(lp795
g48
ag48
ag3
ag14
ag4
ag11
ag20
ag20
ag35
ag3
ag14
ag4
ag11
ag20
ag25
ag35
ag3
ag14
ag4
ag11
ag20
ag6
ag50
ag49
ag48
ag3
ag14
ag6
ag14
ag25
ag5
ag35
ag3
ag14
ag6
ag14
ag25
ag8
ag35
ag3
ag14
ag6
ag14
ag25
ag11
ag35
ag3
ag14
ag6
ag14
ag6
ag4
ag35
ag3
ag14
ag6
ag14
ag6
ag14
ag35
ag3
ag14
ag6
ag14
ag6
ag30
ag50
ag50
ag7
ag48
ag48
ag3
ag14
ag20
ag4
ag30
ag8
ag55
ag3
ag14
ag20
ag4
ag30
ag11
ag50
ag49
ag3
ag14
ag5
ag4
ag6
ag6
ag50
asS'M00177'
p796
(lp797
g3
ag4
ag30
ag11
ag8
ag14
ag35
ag3
ag4
ag30
ag11
ag8
ag25
ag35
ag3
ag4
ag30
ag11
ag8
ag20
ag35
ag3
ag4
ag30
ag11
ag8
ag5
ag35
ag3
ag4
ag30
ag11
ag8
ag11
ag35
ag3
ag4
ag30
ag11
ag11
ag14
ag35
ag3
ag4
ag30
ag11
ag11
ag19
ag35
ag3
ag4
ag30
ag11
ag11
ag25
ag35
ag3
ag4
ag30
ag11
ag11
ag5
ag35
ag3
ag4
ag30
ag11
ag20
ag5
ag35
ag3
ag4
ag30
ag11
ag20
ag11
ag35
ag3
ag4
ag30
ag11
ag25
ag14
ag35
ag3
ag4
ag30
ag11
ag25
ag19
ag35
ag3
ag4
ag30
ag11
ag25
ag25
ag35
ag3
ag4
ag30
ag11
ag25
ag8
ag35
ag3
ag4
ag30
ag11
ag25
ag5
ag35
ag3
ag4
ag30
ag11
ag6
ag4
ag35
ag3
ag4
ag30
ag11
ag6
ag30
ag35
ag3
ag4
ag30
ag11
ag6
ag20
ag35
ag3
ag4
ag30
ag11
ag6
ag6
ag35
ag3
ag4
ag30
ag11
ag6
ag11
ag35
ag3
ag4
ag30
ag11
ag5
ag14
ag35
ag3
ag4
ag30
ag11
ag5
ag19
ag35
ag3
ag4
ag30
ag11
ag5
ag20
ag35
ag3
ag4
ag30
ag11
ag5
ag25
ag35
ag3
ag4
ag30
ag11
ag5
ag6
ag35
ag3
ag4
ag30
ag11
ag5
ag8
ag35
ag3
ag4
ag30
ag11
ag5
ag5
ag35
ag3
ag4
ag30
ag11
ag5
ag11
ag35
ag3
ag4
ag30
ag11
ag8
ag4
ag55
ag3
ag4
ag30
ag11
ag8
ag19
ag35
ag3
ag4
ag30
ag11
ag11
ag8
ag35
ag3
ag4
ag30
ag11
ag30
ag25
ag35
ag3
ag4
ag30
ag11
ag19
ag4
ag35
ag3
ag4
ag30
ag11
ag19
ag30
ag35
ag3
ag4
ag30
ag11
ag19
ag20
ag35
ag3
ag4
ag30
ag11
ag19
ag5
ag35
ag3
ag4
ag30
ag11
ag19
ag6
ag35
ag3
ag4
ag30
ag11
ag19
ag8
ag35
ag3
ag4
ag30
ag11
ag20
ag4
ag35
ag3
ag4
ag30
ag8
ag6
ag6
ag35
ag3
ag4
ag30
ag8
ag6
ag25
ag35
ag3
ag4
ag30
ag8
ag6
ag8
ag35
ag3
ag4
ag30
ag8
ag5
ag4
ag35
ag3
ag4
ag30
ag8
ag5
ag19
ag35
ag3
ag4
ag30
ag8
ag5
ag30
ag35
ag3
ag4
ag30
ag8
ag5
ag25
ag35
ag3
ag4
ag30
ag8
ag5
ag5
ag35
ag3
ag4
ag30
ag8
ag8
ag4
ag35
ag3
ag4
ag30
ag8
ag8
ag19
ag35
ag3
ag4
ag30
ag8
ag8
ag30
ag35
ag3
ag4
ag30
ag8
ag8
ag25
ag35
ag3
ag4
ag30
ag8
ag8
ag11
ag35
ag3
ag4
ag30
ag8
ag11
ag14
ag35
ag3
ag4
ag30
ag8
ag11
ag20
ag35
ag3
ag4
ag30
ag8
ag11
ag19
ag35
ag3
ag4
ag30
ag8
ag11
ag6
ag35
ag3
ag4
ag30
ag8
ag11
ag8
ag35
ag3
ag4
ag30
ag11
ag4
ag14
ag35
ag3
ag4
ag30
ag11
ag4
ag4
ag35
ag3
ag4
ag30
ag11
ag4
ag19
ag35
ag3
ag4
ag30
ag11
ag4
ag25
ag35
ag3
ag4
ag30
ag11
ag4
ag8
ag35
ag3
ag4
ag30
ag11
ag14
ag4
ag35
ag3
ag4
ag30
ag11
ag14
ag30
ag35
ag3
ag4
ag30
ag11
ag14
ag25
ag35
ag3
ag4
ag30
ag11
ag14
ag8
ag35
ag3
ag4
ag30
ag11
ag14
ag5
ag35
ag3
ag4
ag30
ag11
ag30
ag4
ag35
ag3
ag4
ag30
ag11
ag30
ag30
ag35
ag3
ag4
ag30
ag11
ag30
ag14
ag35
ag3
ag4
ag30
ag11
ag30
ag19
ag35
ag3
ag4
ag30
ag11
ag30
ag20
ag35
ag3
ag4
ag30
ag11
ag30
ag5
ag55
ag3
ag4
ag30
ag11
ag30
ag8
ag35
ag3
ag4
ag30
ag11
ag30
ag11
ag35
ag3
ag4
ag30
ag11
ag20
ag14
ag35
ag3
ag4
ag30
ag11
ag20
ag30
ag35
ag3
ag4
ag30
ag11
ag20
ag19
asS'M00176'
p798
(lp799
g48
ag3
ag14
ag19
ag8
ag14
ag14
ag49
ag3
ag4
ag4
ag11
ag25
ag8
ag35
ag3
ag4
ag4
ag8
ag6
ag4
ag49
ag3
ag4
ag4
ag11
ag25
ag25
ag35
ag3
ag4
ag4
ag11
ag25
ag5
ag49
ag3
ag4
ag4
ag11
ag25
ag6
ag35
ag3
ag4
ag4
ag11
ag25
ag5
ag35
ag3
ag4
ag4
ag8
ag6
ag4
ag50
ag7
ag3
ag4
ag4
ag19
ag11
ag4
ag7
ag48
ag3
ag4
ag4
ag19
ag8
ag4
ag35
ag3
ag4
ag4
ag19
ag8
ag14
ag49
ag3
ag4
ag4
ag19
ag11
ag30
ag50
asS'M00179'
p800
(lp801
g3
ag4
ag30
ag11
ag20
ag6
ag35
ag3
ag4
ag30
ag11
ag4
ag6
ag35
ag3
ag4
ag30
ag11
ag19
ag4
ag35
ag3
ag4
ag30
ag8
ag11
ag30
ag35
ag3
ag4
ag30
ag8
ag8
ag6
ag35
ag3
ag4
ag30
ag11
ag6
ag25
ag35
ag3
ag4
ag30
ag8
ag11
ag4
ag35
ag3
ag4
ag30
ag11
ag8
ag30
ag35
ag3
ag4
ag30
ag11
ag4
ag20
ag35
ag3
ag4
ag30
ag11
ag6
ag14
ag35
ag3
ag4
ag30
ag8
ag5
ag20
ag35
ag3
ag4
ag30
ag8
ag11
ag25
ag35
ag3
ag4
ag30
ag11
ag8
ag5
ag35
ag3
ag4
ag30
ag11
ag19
ag14
ag35
ag3
ag4
ag30
ag11
ag25
ag20
ag35
ag3
ag4
ag30
ag11
ag11
ag20
ag35
ag3
ag4
ag30
ag11
ag19
ag19
ag35
ag3
ag4
ag30
ag11
ag14
ag30
ag35
ag3
ag4
ag30
ag8
ag8
ag25
ag35
ag3
ag4
ag30
ag8
ag8
ag14
ag35
ag3
ag4
ag30
ag11
ag8
ag8
ag35
ag3
ag4
ag30
ag11
ag4
ag5
ag35
ag3
ag4
ag30
ag8
ag5
ag6
ag35
ag3
ag4
ag30
ag11
ag25
ag30
ag35
ag3
ag4
ag30
ag11
ag20
ag8
ag35
ag3
ag4
ag30
ag11
ag8
ag6
ag35
ag3
ag4
ag30
ag8
ag8
ag19
ag35
ag3
ag4
ag30
ag8
ag5
ag14
ag35
ag3
ag4
ag30
ag11
ag11
ag6
ag35
ag3
ag4
ag30
ag11
ag11
ag30
ag35
ag3
ag4
ag30
ag11
ag25
ag4
ag35
ag3
ag4
ag30
ag11
ag19
ag6
ag35
ag3
ag4
ag30
ag11
ag5
ag11
ag35
ag3
ag4
ag30
ag8
ag11
ag6
ag35
ag3
ag4
ag30
ag8
ag6
ag11
ag35
ag3
ag4
ag30
ag8
ag6
ag20
ag35
ag3
ag4
ag30
ag8
ag6
ag19
ag35
ag3
ag4
ag30
ag8
ag6
ag5
ag35
ag3
ag4
ag30
ag11
ag6
ag5
ag35
ag3
ag4
ag30
ag11
ag25
ag6
ag35
ag3
ag4
ag30
ag11
ag5
ag8
ag35
ag3
ag4
ag30
ag11
ag30
ag11
ag35
ag3
ag4
ag30
ag8
ag5
ag5
ag35
ag3
ag4
ag30
ag11
ag8
ag20
ag35
ag3
ag4
ag30
ag11
ag11
ag14
ag35
ag3
ag4
ag30
ag11
ag5
ag20
ag35
ag3
ag4
ag30
ag11
ag5
ag5
ag35
ag3
ag4
ag30
ag11
ag6
ag30
ag35
ag3
ag4
ag30
ag11
ag14
ag4
ag35
ag3
ag4
ag30
ag11
ag30
ag20
ag35
ag3
ag4
ag30
ag8
ag6
ag6
ag35
ag3
ag4
ag30
ag8
ag8
ag11
ag35
ag3
ag4
ag30
ag11
ag30
ag30
ag35
ag3
ag4
ag30
ag11
ag30
ag14
ag35
ag3
ag4
ag30
ag11
ag11
ag25
ag35
ag3
ag4
ag30
ag11
ag6
ag6
ag35
ag3
ag4
ag30
ag11
ag30
ag5
ag55
ag3
ag4
ag30
ag11
ag20
ag20
ag55
ag3
ag4
ag30
ag11
ag5
ag6
ag55
ag3
ag4
ag30
ag11
ag5
ag25
ag55
ag3
ag4
ag30
ag11
ag8
ag19
ag55
ag3
ag4
ag30
ag8
ag5
ag19
ag55
ag3
ag4
ag30
ag11
ag14
ag5
ag55
ag3
ag4
ag30
ag11
ag30
ag8
ag55
ag3
ag4
ag30
ag11
ag14
ag25
ag55
ag3
ag4
ag30
ag8
ag5
ag25
ag35
ag3
ag4
ag30
ag11
ag4
ag8
asS'M00178'
p802
(lp803
g3
ag4
ag30
ag11
ag20
ag6
ag35
ag3
ag4
ag30
ag11
ag4
ag6
ag35
ag3
ag4
ag30
ag11
ag30
ag6
ag35
ag3
ag4
ag30
ag8
ag11
ag30
ag35
ag3
ag4
ag30
ag8
ag8
ag6
ag35
ag3
ag4
ag30
ag11
ag6
ag25
ag35
ag3
ag4
ag30
ag8
ag11
ag4
ag35
ag3
ag4
ag30
ag11
ag8
ag30
ag35
ag3
ag4
ag30
ag8
ag5
ag8
ag35
ag3
ag4
ag30
ag11
ag4
ag20
ag35
ag3
ag4
ag30
ag11
ag6
ag14
ag35
ag3
ag4
ag30
ag8
ag5
ag20
ag35
ag3
ag4
ag30
ag8
ag11
ag25
ag35
ag3
ag4
ag30
ag11
ag19
ag14
ag35
ag3
ag4
ag30
ag11
ag25
ag20
ag35
ag3
ag4
ag30
ag11
ag11
ag20
ag35
ag3
ag4
ag30
ag11
ag19
ag19
ag35
ag3
ag4
ag30
ag8
ag8
ag14
ag35
ag3
ag4
ag30
ag11
ag8
ag8
ag35
ag3
ag4
ag30
ag11
ag4
ag5
ag35
ag3
ag4
ag30
ag8
ag5
ag6
ag35
ag3
ag4
ag30
ag11
ag14
ag11
ag35
ag3
ag4
ag30
ag11
ag25
ag30
ag35
ag3
ag4
ag30
ag11
ag20
ag8
ag35
ag3
ag4
ag30
ag11
ag8
ag6
ag35
ag3
ag4
ag30
ag8
ag5
ag11
ag35
ag3
ag4
ag30
ag8
ag5
ag14
ag35
ag3
ag4
ag30
ag11
ag11
ag6
ag35
ag3
ag4
ag30
ag11
ag11
ag30
ag35
ag3
ag4
ag30
ag11
ag25
ag4
ag55
ag3
ag4
ag5
ag25
ag11
ag4
ag35
ag3
ag4
ag30
ag11
ag19
ag25
ag35
ag3
ag4
ag30
ag8
ag6
ag20
ag35
ag3
ag4
ag30
ag8
ag6
ag19
ag35
ag3
ag4
ag30
ag8
ag6
ag5
ag35
ag3
ag4
ag30
ag11
ag6
ag5
ag35
ag3
ag4
ag30
ag11
ag25
ag6
ag35
ag3
ag4
ag30
ag11
ag14
ag6
ag35
ag3
ag4
ag30
ag8
ag8
ag5
ag35
ag3
ag4
ag30
ag11
ag14
ag20
ag35
ag3
ag4
ag30
ag11
ag19
ag11
ag35
ag3
ag4
ag30
ag11
ag6
ag19
ag35
ag3
ag4
ag30
ag11
ag11
ag4
ag35
ag3
ag4
ag30
ag8
ag8
ag8
ag35
ag3
ag4
ag30
ag8
ag11
ag11
ag35
ag3
ag4
ag30
ag11
ag4
ag30
ag35
ag3
ag4
ag30
ag11
ag14
ag19
ag35
ag3
ag4
ag30
ag11
ag14
ag14
ag35
ag3
ag4
ag30
ag11
ag4
ag11
ag55
ag3
ag4
ag30
ag8
ag11
ag5
ag35
ag3
ag4
ag30
ag11
ag25
ag11
ag35
ag3
ag4
ag30
ag8
ag8
ag20
ag35
ag3
ag4
ag30
ag11
ag6
ag8
ag35
ag3
ag4
ag30
ag11
ag20
ag25
ag55
ag3
ag4
ag30
ag11
ag5
ag4
asS'M00314'
p804
(lp805
g3
ag14
ag14
ag6
ag19
ag30
ag35
ag3
ag14
ag14
ag6
ag19
ag14
asS'M00742'
p806
(lp807
g48
ag3
ag4
ag5
ag6
ag19
ag8
ag7
ag3
ag4
ag5
ag6
ag25
ag11
ag7
ag3
ag14
ag11
ag20
ag14
ag6
ag50
ag49
ag48
ag3
ag4
ag20
ag4
ag8
ag8
ag7
ag3
ag4
ag20
ag4
ag8
ag5
ag50
ag7
ag3
ag4
ag19
ag5
ag11
ag8
asS'M00743'
p808
(lp809
g3
ag4
ag5
ag6
ag19
ag8
ag7
ag3
ag4
ag5
ag6
ag25
ag11
ag7
ag3
ag4
ag19
ag5
ag11
ag11
asS'M00740'
p810
(lp811
g3
ag4
ag14
ag6
ag20
ag5
ag7
ag3
ag4
ag14
ag6
ag8
ag14
ag7
ag3
ag4
ag4
ag4
ag19
ag14
ag7
ag3
ag4
ag4
ag30
ag6
ag14
ag7
ag3
ag14
ag11
ag30
ag6
ag8
ag35
ag3
ag4
ag14
ag8
ag20
ag6
ag7
ag3
ag4
ag20
ag8
ag19
ag25
ag7
ag3
ag14
ag11
ag30
ag8
ag4
ag7
ag3
ag14
ag20
ag20
ag20
ag11
ag7
ag3
ag14
ag11
ag30
ag8
ag14
ag7
ag3
ag14
ag11
ag30
ag8
ag30
ag7
ag3
ag4
ag4
ag4
ag30
ag20
asS'M00741'
p812
(lp813
g48
ag3
ag4
ag14
ag11
ag6
ag25
ag35
ag3
ag4
ag14
ag11
ag6
ag6
ag49
ag3
ag14
ag14
ag30
ag6
ag19
ag35
ag48
ag3
ag14
ag8
ag20
ag5
ag30
ag49
ag3
ag14
ag11
ag19
ag14
ag30
ag50
ag49
ag3
ag4
ag14
ag11
ag6
ag20
ag35
ag3
ag14
ag25
ag4
ag19
ag6
ag35
ag3
ag14
ag25
ag4
ag19
ag5
ag50
ag7
ag3
ag4
ag25
ag6
ag4
ag6
ag7
ag48
ag3
ag4
ag14
ag8
ag20
ag5
ag49
ag3
ag4
ag14
ag8
ag20
ag8
ag35
ag3
ag4
ag14
ag8
ag20
ag11
ag49
ag3
ag14
ag14
ag11
ag20
ag30
ag50
asS'M00746'
p814
(lp815
g3
ag14
ag19
ag6
ag19
ag30
ag7
ag3
ag14
ag8
ag25
ag14
ag19
ag7
ag3
ag4
ag11
ag20
ag5
ag6
asS'M00747'
p816
(lp817
g3
ag14
ag11
ag19
ag14
ag4
ag35
ag3
ag14
ag11
ag19
ag4
ag11
asS'M00744'
p818
(lp819
g3
ag4
ag5
ag6
ag19
ag5
ag7
ag3
ag4
ag5
ag6
ag6
ag4
ag7
ag3
ag4
ag8
ag20
ag5
ag5
asS'M00745'
p820
(lp821
g48
ag3
ag14
ag8
ag4
ag5
ag30
ag7
ag3
ag14
ag8
ag4
ag5
ag19
ag50
ag49
ag48
ag3
ag4
ag5
ag6
ag20
ag20
ag7
ag3
ag4
ag5
ag6
ag6
ag25
ag50
ag49
ag3
ag14
ag8
ag30
ag11
ag5
ag7
ag3
ag14
ag8
ag4
ag11
ag19
asS'M00070'
p822
(lp823
g3
ag4
ag19
ag5
ag6
ag6
ag7
ag48
ag3
ag4
ag5
ag8
ag14
ag11
ag49
ag3
ag4
ag5
ag8
ag30
ag4
ag49
ag3
ag4
ag19
ag8
ag5
ag5
ag50
asS'M00071'
p824
(lp825
g3
ag4
ag19
ag5
ag6
ag6
ag7
ag48
ag3
ag4
ag5
ag11
ag6
ag6
ag49
ag3
ag4
ag5
ag11
ag6
ag5
ag49
ag3
ag4
ag5
ag11
ag6
ag8
ag49
ag3
ag4
ag5
ag11
ag6
ag11
ag50
asS'M00072'
p826
(lp827
g3
ag4
ag5
ag14
ag25
ag14
ag35
ag3
ag14
ag30
ag6
ag6
ag6
ag35
ag3
ag14
ag30
ag6
ag6
ag5
ag35
ag3
ag14
ag30
ag6
ag6
ag8
ag35
ag3
ag14
ag30
ag6
ag6
ag11
ag35
ag3
ag14
ag30
ag6
ag5
ag4
ag55
ag3
ag4
ag4
ag5
ag19
ag4
ag55
ag3
ag14
ag30
ag6
ag11
ag14
asS'M00073'
p828
(lp829
g3
ag4
ag14
ag30
ag30
ag8
ag7
ag3
ag4
ag25
ag25
ag20
ag6
ag7
ag3
ag4
ag14
ag30
ag19
ag4
asS'M00074'
p830
(lp831
g3
ag4
ag25
ag25
ag20
ag6
ag7
ag3
ag4
ag14
ag30
ag19
ag4
ag7
ag3
ag4
ag25
ag25
ag30
ag8
ag7
ag3
ag4
ag25
ag25
ag30
ag11
ag35
ag3
ag4
ag25
ag25
ag19
ag4
ag7
ag3
ag4
ag25
ag25
ag30
ag11
ag35
ag3
ag4
ag25
ag25
ag19
ag14
ag35
ag3
ag4
ag25
ag25
ag19
ag30
ag35
ag3
ag4
ag25
ag25
ag19
ag19
ag35
ag3
ag4
ag25
ag25
ag19
ag20
ag7
ag3
ag4
ag25
ag25
ag19
ag25
asS'M00075'
p832
(lp833
g3
ag4
ag14
ag30
ag19
ag14
ag7
ag3
ag4
ag4
ag5
ag19
ag6
asS'M00076'
p834
(lp835
g55
ag55
ag7
ag3
ag4
ag14
ag14
ag19
ag6
ag7
ag3
ag4
ag14
ag30
ag14
ag5
ag7
ag3
ag4
ag14
ag14
ag19
ag25
ag7
ag3
ag4
ag14
ag14
ag11
ag5
ag7
ag3
ag4
ag14
ag14
ag11
ag25
asS'M00077'
p836
(lp837
g3
ag4
ag14
ag14
ag19
ag25
ag7
ag3
ag4
ag14
ag14
ag11
ag5
ag7
ag3
ag4
ag14
ag14
ag11
ag25
ag7
ag3
ag4
ag14
ag14
ag19
ag30
asS'M00584'
p838
(lp839
g3
ag14
ag6
ag11
ag14
ag8
ag35
ag3
ag14
ag6
ag11
ag14
ag11
ag35
ag3
ag14
ag6
ag11
ag30
ag4
ag35
ag3
ag14
ag6
ag11
ag30
ag14
asS'M00585'
p840
(lp841
g3
ag14
ag6
ag11
ag25
ag6
ag35
ag3
ag14
ag6
ag11
ag25
ag5
ag35
ag3
ag14
ag6
ag11
ag25
ag8
ag35
ag3
ag14
ag6
ag11
ag25
ag11
ag35
ag3
ag14
ag6
ag11
ag6
ag4
asS'M00586'
p842
(lp843
g3
ag14
ag6
ag11
ag6
ag14
ag35
ag3
ag14
ag6
ag11
ag6
ag30
ag35
ag3
ag14
ag6
ag11
ag6
ag19
asS'M00587'
p844
(lp845
g3
ag14
ag5
ag4
ag6
ag30
ag35
ag3
ag14
ag5
ag4
ag6
ag19
asS'M00580'
p846
(lp847
g48
ag3
ag4
ag8
ag4
ag11
ag20
ag7
ag48
ag3
ag4
ag8
ag4
ag11
ag19
ag49
ag3
ag14
ag19
ag8
ag14
ag30
ag50
ag49
ag3
ag14
ag19
ag8
ag19
ag14
ag50
ag7
ag3
ag4
ag14
ag8
ag4
ag5
asS'M00581'
p848
(lp849
g3
ag4
ag19
ag25
ag30
ag19
ag35
ag3
ag14
ag6
ag5
ag8
ag19
ag35
ag3
ag14
ag6
ag5
ag8
ag20
asS'M00582'
p850
(lp851
g48
ag3
ag4
ag19
ag25
ag30
ag19
ag49
ag3
ag14
ag6
ag11
ag30
ag19
ag49
ag3
ag14
ag6
ag11
ag30
ag20
ag49
ag3
ag14
ag6
ag11
ag30
ag25
ag49
ag3
ag14
ag6
ag11
ag30
ag6
ag49
ag3
ag14
ag6
ag11
ag30
ag5
ag49
ag3
ag14
ag6
ag11
ag30
ag8
ag49
ag3
ag14
ag6
ag11
ag30
ag11
ag50
ag35
ag3
ag14
ag6
ag5
ag8
ag25
ag35
ag3
ag14
ag6
ag5
ag8
ag6
ag35
ag3
ag14
ag6
ag5
ag8
ag5
asS'M00583'
p852
(lp853
g3
ag14
ag6
ag11
ag14
ag6
ag35
ag3
ag14
ag6
ag11
ag14
ag5
asS'M00625'
p854
(lp855
g3
ag4
ag30
ag25
ag20
ag5
ag7
ag3
ag4
ag30
ag25
ag20
ag6
ag7
ag3
ag4
ag30
ag25
ag20
ag25
asS'M00624'
p856
(lp857
g3
ag14
ag8
ag4
ag5
ag20
ag35
ag3
ag14
ag8
ag4
ag5
ag25
ag35
ag3
ag14
ag8
ag4
ag5
ag5
ag7
ag3
ag14
ag8
ag4
ag5
ag6
asS'M00627'
p858
(lp859
g3
ag4
ag30
ag14
ag5
ag30
ag7
ag3
ag4
ag30
ag14
ag5
ag14
ag7
ag48
ag3
ag14
ag8
ag5
ag6
ag6
ag49
ag3
ag14
ag5
ag8
ag19
ag6
ag50
asS'M00620'
p860
(lp861
g3
ag4
ag4
ag14
ag6
ag11
ag35
ag3
ag4
ag4
ag14
ag5
ag4
ag35
ag3
ag4
ag4
ag14
ag5
ag14
ag35
ag3
ag4
ag4
ag14
ag5
ag30
ag7
ag3
ag4
ag14
ag11
ag25
ag11
ag35
ag3
ag4
ag14
ag11
ag6
ag4
ag7
ag3
ag4
ag4
ag4
ag30
ag20
ag7
ag3
ag4
ag14
ag6
ag5
ag5
ag35
ag3
ag4
ag14
ag6
ag5
ag8
ag7
ag3
ag14
ag8
ag30
ag4
ag11
ag35
ag3
ag14
ag8
ag30
ag14
ag4
ag7
ag3
ag4
ag14
ag11
ag4
ag30
ag35
ag3
ag4
ag14
ag11
ag4
ag19
ag7
ag3
ag4
ag4
ag14
ag5
ag20
ag35
ag3
ag4
ag4
ag14
ag5
ag25
ag35
ag3
ag4
ag4
ag14
ag5
ag6
ag35
ag3
ag4
ag4
ag14
ag5
ag5
asS'M00623'
p862
(lp863
g3
ag14
ag8
ag4
ag6
ag8
ag35
ag3
ag14
ag8
ag4
ag6
ag11
ag7
ag3
ag14
ag8
ag4
ag6
ag5
ag7
ag3
ag4
ag20
ag14
ag4
ag30
asS'M00622'
p864
(lp865
g3
ag14
ag8
ag4
ag30
ag11
ag35
ag3
ag14
ag8
ag4
ag19
ag4
ag7
ag3
ag14
ag20
ag11
ag5
ag20
ag7
ag3
ag14
ag8
ag4
ag30
ag8
ag7
ag3
ag14
ag25
ag19
ag25
ag5
ag7
ag3
ag14
ag19
ag11
ag11
ag25
ag7
ag3
ag4
ag14
ag5
ag11
ag11
asS'M00593'
p866
(lp867
g3
ag14
ag5
ag30
ag14
ag19
ag35
ag3
ag14
ag5
ag30
ag14
ag20
ag35
ag3
ag14
ag5
ag30
ag14
ag25
asS'M00382'
p868
(lp869
g3
ag4
ag19
ag8
ag6
ag8
ag35
ag3
ag4
ag19
ag19
ag20
ag5
ag35
ag3
ag4
ag19
ag4
ag11
ag20
ag35
ag48
ag3
ag14
ag4
ag4
ag11
ag11
ag49
ag3
ag14
ag4
ag14
ag4
ag4
ag50
asS'M00383'
p870
(lp871
g3
ag4
ag19
ag8
ag6
ag8
ag35
ag3
ag4
ag19
ag8
ag5
ag4
ag35
ag3
ag4
ag19
ag8
ag5
ag30
ag35
ag3
ag4
ag19
ag8
ag5
ag19
ag35
ag3
ag4
ag19
ag8
ag5
ag14
asS'M00380'
p872
(lp873
g3
ag4
ag19
ag8
ag6
ag8
ag35
ag3
ag4
ag19
ag19
ag20
ag5
ag35
ag3
ag4
ag19
ag4
ag11
ag20
ag35
ag3
ag4
ag19
ag19
ag6
ag30
asS'M00381'
p874
(lp875
g3
ag4
ag19
ag8
ag6
ag8
ag35
ag3
ag4
ag19
ag19
ag20
ag5
ag35
ag3
ag4
ag19
ag4
ag11
ag20
ag35
ag3
ag4
ag19
ag8
ag5
ag25
asS'M00386'
p876
(lp877
g3
ag4
ag19
ag8
ag6
ag8
ag35
ag3
ag14
ag4
ag6
ag4
ag11
ag35
ag3
ag14
ag4
ag6
ag14
ag4
ag35
ag3
ag14
ag4
ag25
ag5
ag4
asS'M00387'
p878
(lp879
g3
ag4
ag19
ag8
ag6
ag8
ag35
ag3
ag4
ag19
ag19
ag20
ag5
ag35
ag3
ag4
ag19
ag4
ag11
ag20
ag35
ag3
ag14
ag4
ag30
ag6
ag4
asS'M00384'
p880
(lp881
g3
ag4
ag19
ag8
ag6
ag8
ag35
ag3
ag4
ag19
ag8
ag6
ag11
ag35
ag3
ag14
ag4
ag25
ag30
ag19
asS'M00385'
p882
(lp883
g3
ag4
ag19
ag8
ag6
ag8
ag35
ag3
ag14
ag4
ag6
ag4
ag11
ag35
ag3
ag14
ag4
ag6
ag14
ag4
ag35
ag3
ag14
ag4
ag14
ag20
ag4
asS'M00388'
p884
(lp885
g3
ag14
ag4
ag6
ag14
ag14
ag35
ag3
ag14
ag4
ag6
ag14
ag30
ag35
ag3
ag4
ag19
ag8
ag5
ag30
ag35
ag3
ag4
ag19
ag8
ag5
ag19
ag35
ag48
ag3
ag4
ag20
ag5
ag4
ag14
ag49
ag3
ag4
ag20
ag6
ag11
ag20
ag49
ag3
ag4
ag20
ag6
ag11
ag25
ag49
ag3
ag4
ag20
ag6
ag11
ag6
ag49
ag3
ag4
ag20
ag6
ag11
ag5
ag49
ag3
ag4
ag20
ag6
ag11
ag8
ag49
ag3
ag4
ag20
ag6
ag11
ag11
ag50
asS'M00389'
p886
(lp887
g3
ag4
ag19
ag19
ag25
ag8
ag35
ag3
ag4
ag19
ag19
ag20
ag11
ag35
ag48
ag3
ag4
ag19
ag19
ag6
ag19
ag49
ag3
ag4
ag19
ag19
ag6
ag20
ag50
ag35
ag3
ag4
ag19
ag19
ag20
ag8
ag35
ag3
ag4
ag19
ag19
ag25
ag4
ag35
ag3
ag4
ag19
ag19
ag25
ag14
ag35
ag3
ag4
ag19
ag19
ag25
ag30
ag35
ag3
ag4
ag19
ag19
ag25
ag19
ag35
ag48
ag3
ag4
ag19
ag19
ag25
ag20
ag49
ag3
ag4
ag19
ag19
ag25
ag6
ag50
ag35
ag3
ag4
ag19
ag19
ag25
ag25
ag35
ag3
ag4
ag19
ag19
ag25
ag5
ag35
ag48
ag3
ag4
ag19
ag19
ag25
ag11
ag49
ag3
ag14
ag30
ag20
ag25
ag6
ag50
asS'M00118'
p888
(lp889
g48
ag3
ag14
ag14
ag30
ag4
ag20
ag35
ag3
ag14
ag14
ag30
ag4
ag25
ag49
ag3
ag4
ag14
ag11
ag14
ag11
ag50
ag7
ag48
ag3
ag30
ag14
ag20
ag25
ag6
ag49
ag3
ag4
ag14
ag11
ag30
ag4
ag50
asS'M00592'
p890
(lp891
g3
ag14
ag5
ag30
ag4
ag8
ag35
ag3
ag14
ag5
ag30
ag4
ag11
ag35
ag3
ag14
ag5
ag30
ag14
ag4
asS'M00690'
p892
(lp893
g48
ag3
ag4
ag20
ag20
ag30
ag4
ag49
ag3
ag4
ag20
ag20
ag30
ag14
ag50
ag7
ag3
ag4
ag20
ag20
ag6
ag19
ag7
ag3
ag4
ag20
ag20
ag6
ag20
asS'M00691'
p894
(lp895
g48
ag3
ag4
ag6
ag6
ag20
ag4
ag49
ag3
ag4
ag20
ag5
ag30
ag8
ag50
ag7
ag48
ag3
ag4
ag30
ag30
ag14
ag6
ag49
ag48
ag3
ag4
ag6
ag6
ag20
ag14
ag49
ag3
ag4
ag30
ag8
ag19
ag14
ag50
ag50
ag7
ag48
ag3
ag4
ag6
ag6
ag20
ag25
ag49
ag3
ag4
ag25
ag8
ag6
ag6
ag49
ag3
ag4
ag25
ag8
ag6
ag5
ag49
ag3
ag4
ag30
ag25
ag25
ag25
ag50
asS'M00692'
p896
(lp897
g48
ag48
ag48
ag48
ag3
ag4
ag30
ag4
ag8
ag11
ag49
ag3
ag4
ag30
ag4
ag11
ag14
ag50
ag35
ag48
ag3
ag4
ag20
ag25
ag4
ag19
ag49
ag3
ag14
ag4
ag14
ag25
ag14
ag49
ag3
ag14
ag4
ag14
ag25
ag30
ag50
ag50
ag35
ag48
ag3
ag4
ag30
ag30
ag4
ag6
ag35
ag3
ag4
ag6
ag6
ag30
ag6
ag50
ag50
ag7
ag48
ag3
ag4
ag6
ag6
ag14
ag8
ag35
ag48
ag3
ag14
ag5
ag20
ag25
ag20
ag49
ag3
ag4
ag11
ag19
ag8
ag11
ag49
ag3
ag4
ag6
ag6
ag30
ag4
ag50
ag50
ag50
ag49
ag48
ag48
ag3
ag4
ag30
ag30
ag4
ag6
ag35
ag48
ag3
ag14
ag8
ag8
ag14
ag4
ag35
ag3
ag14
ag20
ag25
ag4
ag25
ag35
ag3
ag14
ag8
ag8
ag14
ag14
ag35
ag3
ag14
ag8
ag8
ag14
ag30
ag35
ag3
ag14
ag8
ag8
ag14
ag19
ag50
ag50
ag7
ag48
ag3
ag4
ag20
ag6
ag8
ag14
ag35
ag3
ag4
ag6
ag6
ag30
ag4
ag50
ag50
ag49
ag48
ag48
ag48
ag3
ag4
ag20
ag25
ag6
ag19
ag35
ag3
ag4
ag6
ag6
ag20
ag6
ag50
ag35
ag48
ag3
ag4
ag20
ag25
ag6
ag19
ag35
ag48
ag3
ag4
ag6
ag6
ag25
ag4
ag49
ag3
ag14
ag30
ag5
ag6
ag4
ag50
ag50
ag50
ag7
ag48
ag3
ag14
ag30
ag20
ag14
ag19
ag35
ag3
ag4
ag11
ag30
ag20
ag11
ag50
ag50
asS'M00693'
p898
(lp899
g48
ag48
ag3
ag4
ag25
ag8
ag6
ag5
ag49
ag3
ag4
ag6
ag6
ag19
ag30
ag50
ag7
ag48
ag3
ag4
ag30
ag4
ag8
ag5
ag35
ag48
ag3
ag4
ag6
ag6
ag30
ag5
ag49
ag3
ag4
ag25
ag8
ag6
ag8
ag50
ag50
ag50
ag49
ag48
ag48
ag3
ag14
ag8
ag4
ag6
ag25
ag49
ag3
ag4
ag6
ag6
ag19
ag30
ag50
ag7
ag48
ag48
ag3
ag4
ag30
ag30
ag4
ag6
ag49
ag3
ag4
ag5
ag5
ag6
ag4
ag50
ag35
ag48
ag3
ag4
ag6
ag6
ag30
ag5
ag49
ag3
ag4
ag25
ag8
ag6
ag8
ag50
ag50
ag50
ag49
ag48
ag48
ag3
ag4
ag30
ag25
ag25
ag25
ag49
ag3
ag4
ag19
ag14
ag14
ag20
ag50
ag7
ag48
ag3
ag4
ag20
ag25
ag6
ag19
ag35
ag3
ag4
ag30
ag30
ag30
ag4
ag50
ag50
asS'M00694'
p900
(lp901
g48
ag3
ag14
ag30
ag19
ag30
ag19
ag49
ag3
ag14
ag30
ag19
ag30
ag20
ag49
ag48
ag3
ag14
ag30
ag19
ag14
ag8
ag35
ag3
ag14
ag30
ag19
ag14
ag11
ag50
ag50
ag7
ag48
ag3
ag4
ag5
ag19
ag5
ag6
ag49
ag3
ag14
ag8
ag30
ag8
ag19
ag49
ag48
ag3
ag4
ag20
ag11
ag20
ag8
ag35
ag3
ag4
ag20
ag11
ag25
ag30
ag50
ag50
asS'M00695'
p902
(lp903
g48
ag3
ag4
ag20
ag6
ag19
ag30
ag49
ag3
ag4
ag20
ag6
ag19
ag4
ag50
ag7
ag48
ag3
ag4
ag8
ag4
ag20
ag14
ag49
ag3
ag4
ag8
ag4
ag20
ag30
ag49
ag3
ag4
ag8
ag4
ag20
ag19
ag49
ag3
ag4
ag8
ag4
ag20
ag20
ag49
ag3
ag4
ag8
ag4
ag20
ag25
ag49
ag3
ag4
ag8
ag4
ag20
ag6
ag49
ag3
ag4
ag8
ag4
ag20
ag5
ag49
ag3
ag4
ag8
ag4
ag20
ag8
ag49
ag3
ag4
ag8
ag4
ag20
ag11
ag49
ag3
ag4
ag14
ag5
ag6
ag8
ag50
ag7
ag3
ag4
ag20
ag19
ag20
ag25
asS'M00696'
p904
(lp905
g3
ag14
ag8
ag14
ag20
ag4
ag7
ag3
ag14
ag8
ag14
ag20
ag14
ag35
ag3
ag14
ag8
ag14
ag20
ag30
ag35
ag3
ag14
ag30
ag19
ag20
ag4
asS'M00697'
p906
(lp907
g3
ag4
ag5
ag6
ag11
ag4
ag7
ag3
ag14
ag8
ag8
ag11
ag8
ag35
ag3
ag14
ag8
ag8
ag11
ag11
ag35
ag3
ag14
ag30
ag19
ag20
ag4
asS'M00698'
p908
(lp909
g3
ag14
ag8
ag11
ag4
ag4
ag7
ag3
ag14
ag8
ag11
ag4
ag14
ag35
ag3
ag14
ag8
ag11
ag4
ag30
ag35
ag3
ag14
ag8
ag11
ag4
ag19
asS'M00699'
p910
(lp911
g3
ag14
ag8
ag11
ag4
ag25
ag7
ag3
ag4
ag19
ag25
ag8
ag25
ag35
ag3
ag14
ag8
ag14
ag19
ag8
ag35
ag3
ag14
ag8
ag11
ag4
ag20
asS'M00498'
p912
(lp913
g3
ag14
ag19
ag25
ag11
ag8
ag7
ag3
ag14
ag19
ag25
ag11
ag11
asS'M00499'
p914
(lp915
g3
ag4
ag5
ag5
ag4
ag11
ag7
ag3
ag4
ag5
ag5
ag14
ag19
asS'M00496'
p916
(lp917
g3
ag14
ag30
ag30
ag11
ag20
ag7
ag3
ag14
ag30
ag30
ag11
ag25
asS'M00497'
p918
(lp919
g3
ag4
ag5
ag5
ag4
ag8
ag7
ag3
ag4
ag5
ag5
ag14
ag30
asS'M00494'
p920
(lp921
g3
ag14
ag14
ag6
ag20
ag4
ag7
ag3
ag14
ag14
ag6
ag20
ag14
asS'M00495'
p922
(lp923
g3
ag4
ag5
ag5
ag4
ag6
ag7
ag3
ag4
ag5
ag5
ag4
ag5
asS'M00492'
p924
(lp925
g3
ag4
ag5
ag5
ag4
ag20
ag7
ag3
ag4
ag5
ag5
ag4
ag25
asS'M00493'
p926
(lp927
g3
ag4
ag8
ag4
ag8
ag30
ag7
ag3
ag4
ag8
ag4
ag8
ag19
asS'M00490'
p928
(lp929
g3
ag14
ag14
ag6
ag14
ag20
ag7
ag3
ag14
ag14
ag6
ag14
ag25
asS'M00491'
p930
(lp931
g3
ag14
ag25
ag5
ag5
ag4
ag35
ag3
ag14
ag25
ag5
ag5
ag14
ag35
ag3
ag14
ag25
ag5
ag5
ag30
ag35
ag48
ag3
ag14
ag4
ag14
ag14
ag14
ag49
ag3
ag14
ag4
ag14
ag14
ag30
ag50
asS'M00250'
p932
(lp933
g3
ag4
ag11
ag6
ag11
ag4
ag35
ag3
ag4
ag11
ag6
ag11
ag14
asS'M00251'
p934
(lp935
g3
ag4
ag11
ag6
ag11
ag30
ag35
ag3
ag4
ag11
ag6
ag11
ag19
asS'M00252'
p936
(lp937
g3
ag4
ag11
ag6
ag11
ag20
ag35
ag3
ag4
ag11
ag6
ag11
ag25
asS'M00253'
p938
(lp939
g3
ag4
ag11
ag6
ag11
ag6
ag35
ag3
ag4
ag11
ag6
ag11
ag5
asS'M00254'
p940
(lp941
g3
ag4
ag14
ag11
ag11
ag30
ag35
ag3
ag4
ag14
ag11
ag11
ag4
asS'M00255'
p942
(lp943
g3
ag4
ag11
ag8
ag4
ag8
ag35
ag3
ag4
ag11
ag8
ag14
ag4
asS'M00256'
p944
(lp945
g3
ag4
ag11
ag8
ag14
ag14
ag35
ag3
ag4
ag11
ag8
ag14
ag30
asS'M00257'
p946
(lp947
g3
ag4
ag11
ag8
ag14
ag19
ag35
ag3
ag4
ag11
ag8
ag14
ag20
asS'M00258'
p948
(lp949
g3
ag4
ag30
ag4
ag4
ag20
ag35
ag3
ag4
ag30
ag4
ag4
ag19
asS'M00259'
p950
(lp951
g3
ag4
ag30
ag14
ag11
ag25
ag35
ag3
ag4
ag30
ag14
ag11
ag20
ag35
ag3
ag4
ag30
ag14
ag11
ag19
asS'M00315'
p952
(lp953
g3
ag14
ag14
ag6
ag19
ag6
ag35
ag3
ag14
ag14
ag6
ag19
ag25
asS'M00818'
p954
(lp955
g3
ag30
ag4
ag30
ag6
ag19
ag7
ag3
ag30
ag4
ag30
ag6
ag20
asS'M00317'
p956
(lp957
g3
ag14
ag14
ag6
ag4
ag20
ag35
ag3
ag14
ag14
ag6
ag4
ag25
ag35
ag3
ag14
ag14
ag6
ag4
ag6
ag35
ag3
ag14
ag14
ag6
ag4
ag5
asS'M00316'
p958
(lp959
g3
ag14
ag14
ag6
ag4
ag14
ag35
ag3
ag14
ag14
ag6
ag4
ag30
ag35
ag3
ag14
ag14
ag6
ag4
ag19
asS'M00819'
p960
(lp961
g3
ag14
ag30
ag30
ag25
ag4
ag7
ag3
ag14
ag25
ag11
ag4
ag5
ag7
ag55
ag55
ag7
ag3
ag14
ag8
ag4
ag25
ag6
ag7
ag3
ag14
ag5
ag5
ag20
ag5
ag7
ag3
ag14
ag8
ag4
ag11
ag14
ag7
ag3
ag14
ag8
ag4
ag25
ag5
ag7
ag3
ag14
ag5
ag20
ag5
ag6
asS'M00813'
p962
(lp963
g3
ag30
ag4
ag20
ag25
ag11
ag35
ag3
ag30
ag4
ag20
ag6
ag4
ag35
ag3
ag30
ag4
ag20
ag6
ag14
asS'M00405'
p964
(lp965
g3
ag14
ag30
ag8
ag5
ag8
ag35
ag3
ag14
ag30
ag8
ag5
ag11
ag35
ag3
ag14
ag19
ag14
ag5
ag20
ag35
ag3
ag14
ag19
ag14
ag5
ag25
ag35
ag3
ag14
ag19
ag14
ag5
ag6
asS'M00404'
p966
(lp967
g3
ag14
ag20
ag4
ag4
ag20
ag35
ag3
ag14
ag20
ag4
ag4
ag25
ag35
ag3
ag14
ag20
ag4
ag4
ag6
ag35
ag3
ag14
ag20
ag4
ag4
ag5
ag35
ag3
ag4
ag5
ag11
ag25
ag19
asS'M00407'
p968
(lp969
g3
ag4
ag19
ag8
ag6
ag8
ag35
ag3
ag4
ag19
ag19
ag20
ag5
ag35
ag3
ag4
ag19
ag4
ag11
ag20
ag35
ag3
ag4
ag19
ag19
ag6
ag14
asS'M00406'
p970
(lp971
g3
ag14
ag30
ag8
ag5
ag8
ag35
ag3
ag14
ag30
ag8
ag5
ag11
ag35
ag3
ag14
ag19
ag14
ag5
ag20
ag35
ag3
ag14
ag19
ag14
ag5
ag25
ag35
ag3
ag14
ag19
ag14
ag5
ag6
ag35
ag3
ag14
ag30
ag8
ag8
ag4
ag35
ag3
ag14
ag30
ag8
ag8
ag14
ag35
ag3
ag14
ag30
ag8
ag14
ag30
asS'M00401'
p972
(lp973
g3
ag14
ag4
ag11
ag25
ag6
ag35
ag3
ag4
ag11
ag20
ag8
ag14
ag35
ag3
ag4
ag5
ag19
ag20
ag30
asS'M00400'
p974
(lp975
g3
ag14
ag19
ag25
ag30
ag25
ag35
ag3
ag14
ag20
ag4
ag14
ag6
ag35
ag3
ag14
ag20
ag4
ag14
ag25
asS'M00403'
p976
(lp977
g3
ag14
ag4
ag6
ag4
ag14
ag35
ag3
ag14
ag20
ag4
ag30
ag6
ag35
ag48
ag3
ag14
ag4
ag4
ag8
ag8
ag49
ag3
ag14
ag20
ag4
ag4
ag8
ag50
ag35
ag3
ag14
ag20
ag4
ag30
ag5
ag35
ag3
ag14
ag14
ag25
ag14
ag11
ag35
ag3
ag14
ag19
ag11
ag8
ag11
ag35
ag3
ag14
ag20
ag4
ag30
ag25
ag35
ag3
ag14
ag19
ag25
ag30
ag25
ag35
ag3
ag14
ag20
ag4
ag14
ag25
ag35
ag3
ag14
ag20
ag4
ag14
ag6
asS'M00402'
p978
(lp979
g3
ag14
ag19
ag30
ag20
ag11
ag35
ag3
ag14
ag19
ag30
ag25
ag4
ag35
ag3
ag14
ag19
ag30
ag25
ag14
ag35
ag3
ag4
ag20
ag25
ag5
ag14
asS'M00816'
p980
(lp981
g3
ag30
ag4
ag20
ag8
ag5
ag7
ag3
ag30
ag4
ag20
ag8
ag8
asS'M00409'
p982
(lp983
g3
ag14
ag30
ag14
ag8
ag19
ag35
ag3
ag14
ag30
ag14
ag8
ag20
ag35
ag3
ag14
ag30
ag14
ag8
ag25
ag35
ag3
ag14
ag30
ag14
ag8
ag6
asS'M00408'
p984
(lp985
g3
ag14
ag30
ag14
ag8
ag30
ag35
ag3
ag4
ag20
ag5
ag4
ag25
asS'M00817'
p986
(lp987
g3
ag30
ag4
ag20
ag11
ag14
ag35
ag48
ag3
ag30
ag4
ag20
ag11
ag30
ag49
ag3
ag30
ag4
ag20
ag11
ag20
ag50
ag35
ag3
ag30
ag4
ag20
ag11
ag4
asS'M00815'
p988
(lp989
g3
ag14
ag11
ag11
ag6
ag11
ag7
ag3
ag30
ag4
ag20
ag19
ag14
ag7
ag3
ag30
ag4
ag20
ag19
ag30
ag7
ag3
ag30
ag4
ag20
ag19
ag19
ag7
ag3
ag30
ag4
ag20
ag19
ag20
ag7
ag3
ag30
ag4
ag20
ag19
ag25
ag7
ag3
ag30
ag4
ag20
ag19
ag6
ag7
ag3
ag30
ag4
ag20
ag19
ag5
ag7
ag3
ag30
ag4
ag20
ag19
ag8
asS'M00038'
p990
(lp991
g48
ag3
ag4
ag4
ag20
ag25
ag19
ag49
ag3
ag4
ag4
ag20
ag6
ag19
ag50
ag7
ag48
ag3
ag4
ag14
ag20
ag19
ag30
ag49
ag3
ag14
ag20
ag30
ag6
ag19
ag49
ag3
ag4
ag5
ag14
ag19
ag4
ag50
ag7
ag3
ag4
ag4
ag20
ag8
ag6
ag7
ag3
ag4
ag14
ag25
ag25
ag6
ag7
ag3
ag4
ag4
ag20
ag25
ag30
ag7
ag3
ag4
ag19
ag19
ag11
ag30
ag7
ag3
ag14
ag4
ag30
ag14
ag5
asS'M00039'
p992
(lp993
g48
ag3
ag14
ag4
ag5
ag5
ag25
ag49
ag3
ag14
ag19
ag4
ag6
ag20
ag50
ag7
ag3
ag4
ag4
ag20
ag8
ag5
ag7
ag3
ag4
ag14
ag11
ag4
ag20
ag7
ag3
ag14
ag19
ag4
ag6
ag25
ag7
ag3
ag4
ag11
ag5
ag25
ag20
ag7
ag55
ag3
ag14
ag8
ag19
ag6
ag8
ag7
ag3
ag4
ag4
ag25
ag8
ag8
ag7
ag3
ag4
ag11
ag5
ag25
ag19
ag7
ag3
ag4
ag11
ag5
ag25
ag25
ag7
ag3
ag14
ag19
ag4
ag6
ag6
ag7
ag3
ag4
ag4
ag4
ag8
ag19
asS'M00034'
p994
(lp995
g3
ag4
ag4
ag5
ag8
ag11
ag7
ag3
ag4
ag14
ag6
ag14
ag14
ag7
ag3
ag4
ag4
ag5
ag11
ag5
ag7
ag48
ag48
ag3
ag4
ag14
ag30
ag20
ag19
ag49
ag3
ag14
ag8
ag30
ag8
ag20
ag49
ag3
ag4
ag14
ag30
ag20
ag20
ag50
ag7
ag3
ag4
ag4
ag8
ag11
ag11
ag49
ag3
ag4
ag4
ag5
ag5
ag30
ag50
ag7
ag3
ag4
ag8
ag11
ag6
ag19
ag7
ag48
ag3
ag14
ag6
ag4
ag25
ag20
ag49
ag3
ag4
ag8
ag11
ag6
ag20
ag7
ag48
ag3
ag4
ag11
ag8
ag8
ag4
ag49
ag3
ag4
ag8
ag11
ag6
ag25
ag7
ag3
ag4
ag8
ag11
ag6
ag6
ag50
ag50
ag7
ag3
ag4
ag8
ag11
ag6
ag5
ag7
ag48
ag3
ag4
ag4
ag8
ag14
ag25
ag49
ag3
ag4
ag8
ag11
ag6
ag11
ag49
ag3
ag4
ag4
ag8
ag19
ag30
ag49
ag3
ag4
ag4
ag8
ag19
ag8
ag50
asS'M00035'
p996
(lp997
g3
ag4
ag4
ag5
ag8
ag11
ag7
ag48
ag3
ag4
ag4
ag25
ag25
ag8
ag49
ag3
ag14
ag5
ag19
ag11
ag8
ag49
ag3
ag14
ag5
ag19
ag11
ag11
ag50
ag7
ag3
ag4
ag14
ag30
ag25
ag14
ag7
ag48
ag3
ag4
ag14
ag6
ag11
ag5
ag49
ag3
ag14
ag4
ag14
ag25
ag4
ag50
asS'M00036'
p998
(lp999
g3
ag4
ag4
ag8
ag30
ag6
ag7
ag48
ag48
ag3
ag4
ag4
ag14
ag6
ag6
ag35
ag3
ag4
ag4
ag14
ag6
ag5
ag49
ag3
ag14
ag14
ag19
ag8
ag14
ag50
ag35
ag3
ag4
ag11
ag6
ag11
ag11
ag35
ag3
ag4
ag4
ag19
ag8
ag30
ag50
ag7
ag48
ag3
ag4
ag4
ag30
ag25
ag19
ag49
ag3
ag4
ag4
ag30
ag20
ag11
ag50
ag7
ag48
ag3
ag4
ag14
ag11
ag6
ag8
ag35
ag3
ag4
ag14
ag11
ag6
ag11
ag50
ag7
ag48
ag3
ag4
ag25
ag6
ag4
ag5
ag49
ag3
ag14
ag19
ag5
ag6
ag6
ag50
ag7
ag3
ag4
ag14
ag6
ag20
ag4
asS'M00037'
p1000
(lp1001
g3
ag4
ag4
ag25
ag4
ag30
ag7
ag3
ag4
ag14
ag25
ag11
ag19
ag7
ag3
ag4
ag4
ag6
ag6
ag11
ag7
ag3
ag4
ag4
ag25
ag20
ag19
asS'M00030'
p1002
(lp1003
g3
ag4
ag14
ag6
ag25
ag25
ag7
ag3
ag14
ag5
ag20
ag25
ag4
ag7
ag3
ag4
ag14
ag5
ag4
ag25
ag7
ag3
ag4
ag25
ag8
ag30
ag20
ag7
ag48
ag3
ag4
ag4
ag8
ag30
ag25
ag49
ag3
ag4
ag4
ag8
ag19
ag8
ag50
ag7
ag48
ag3
ag4
ag4
ag14
ag20
ag19
ag49
ag3
ag14
ag20
ag4
ag8
ag25
ag50
ag7
ag3
ag4
ag4
ag30
ag11
ag19
ag7
ag3
ag4
ag4
ag30
ag11
ag4
asS'M00031'
p1004
(lp1005
g3
ag4
ag25
ag8
ag30
ag6
asS'M00032'
p1006
(lp1007
g48
ag3
ag4
ag4
ag30
ag11
ag4
ag7
ag3
ag4
ag4
ag30
ag11
ag19
ag49
ag3
ag14
ag20
ag14
ag25
ag5
ag50
ag7
ag48
ag3
ag4
ag4
ag14
ag20
ag19
ag49
ag3
ag14
ag20
ag4
ag8
ag25
ag50
ag7
ag3
ag4
ag4
ag8
ag30
ag25
ag7
ag3
ag4
ag4
ag14
ag6
ag20
ag7
ag3
ag4
ag4
ag6
ag25
ag8
ag7
ag3
ag4
ag4
ag30
ag25
ag30
ag7
ag48
ag3
ag4
ag14
ag8
ag30
ag25
ag49
ag3
ag4
ag14
ag5
ag8
ag30
ag49
ag3
ag4
ag5
ag25
ag14
ag20
ag49
ag48
ag3
ag4
ag14
ag6
ag11
ag30
ag49
ag3
ag4
ag5
ag25
ag14
ag25
ag49
ag3
ag4
ag5
ag25
ag14
ag14
ag50
ag7
ag3
ag4
ag4
ag4
ag30
ag30
ag50
asS'M00033'
p1008
(lp1009
g3
ag4
ag4
ag11
ag30
ag8
ag7
ag3
ag4
ag4
ag14
ag19
ag19
ag7
ag3
ag4
ag4
ag8
ag19
ag6
ag7
ag3
ag4
ag6
ag5
ag14
ag8
ag7
ag3
ag4
ag6
ag5
ag30
ag4
asS'M00661'
p1010
(lp1011
g3
ag14
ag8
ag19
ag8
ag25
ag7
ag3
ag14
ag8
ag19
ag8
ag6
ag7
ag3
ag14
ag8
ag19
ag8
ag5
asS'M00660'
p1012
(lp1013
g3
ag4
ag19
ag30
ag30
ag30
ag35
ag3
ag4
ag19
ag30
ag30
ag6
ag35
ag3
ag4
ag19
ag30
ag30
ag5
ag35
ag3
ag4
ag19
ag30
ag30
ag8
ag35
ag3
ag4
ag19
ag30
ag30
ag11
ag35
ag3
ag4
ag19
ag30
ag19
ag4
ag35
ag3
ag4
ag19
ag30
ag30
ag20
ag35
ag3
ag4
ag19
ag30
ag30
ag25
ag35
ag3
ag4
ag19
ag30
ag30
ag19
ag35
ag3
ag14
ag8
ag19
ag5
ag20
ag35
ag3
ag14
ag8
ag19
ag5
ag6
ag7
ag3
ag14
ag8
ag19
ag5
ag19
ag7
ag3
ag14
ag8
ag19
ag5
ag25
ag7
ag3
ag14
ag8
ag19
ag5
ag5
ag7
ag3
ag14
ag8
ag19
ag5
ag8
ag7
ag3
ag14
ag8
ag19
ag5
ag11
ag7
ag3
ag14
ag8
ag19
ag8
ag4
ag7
ag3
ag14
ag8
ag19
ag8
ag14
asS'M00663'
p1014
(lp1015
g3
ag14
ag20
ag11
ag5
ag8
ag7
ag3
ag14
ag20
ag11
ag5
ag11
asS'M00662'
p1016
(lp1017
g3
ag4
ag30
ag20
ag8
ag11
ag7
ag3
ag14
ag8
ag20
ag20
ag20
asS'M00664'
p1018
(lp1019
g3
ag14
ag20
ag6
ag25
ag8
ag7
ag3
ag14
ag20
ag6
ag25
ag11
ag7
ag3
ag14
ag20
ag6
ag6
ag6
ag7
ag3
ag14
ag20
ag6
ag25
ag5
asS'M00667'
p1020
(lp1021
g3
ag14
ag8
ag30
ag14
ag11
ag7
ag3
ag14
ag8
ag30
ag14
ag8
asS'M00669'
p1022
(lp1023
g3
ag4
ag30
ag4
ag6
ag5
ag35
ag3
ag4
ag30
ag4
ag6
ag6
ag35
ag3
ag4
ag30
ag4
ag6
ag25
ag35
ag3
ag14
ag8
ag20
ag8
ag4
asS'M00668'
p1024
(lp1025
g3
ag14
ag8
ag20
ag5
ag6
ag7
ag3
ag4
ag8
ag14
ag25
ag14
asS'M00299'
p1026
(lp1027
g3
ag14
ag14
ag4
ag6
ag11
ag35
ag3
ag14
ag14
ag4
ag5
ag4
ag35
ag3
ag14
ag14
ag4
ag5
ag14
ag35
ag3
ag14
ag14
ag4
ag5
ag30
asS'M00548'
p1028
(lp1029
g3
ag14
ag6
ag30
ag20
ag11
ag35
ag3
ag14
ag6
ag30
ag20
ag19
ag35
ag3
ag14
ag6
ag30
ag20
ag20
ag35
ag3
ag14
ag6
ag30
ag20
ag30
ag35
ag3
ag14
ag6
ag30
ag20
ag25
ag35
ag3
ag14
ag6
ag30
ag20
ag6
asS'M00549'
p1030
(lp1031
g48
ag3
ag4
ag4
ag8
ag20
ag20
ag49
ag3
ag4
ag4
ag8
ag20
ag25
ag49
ag3
ag14
ag30
ag20
ag4
ag5
ag49
ag3
ag4
ag4
ag8
ag8
ag6
ag50
ag7
ag3
ag4
ag14
ag8
ag19
ag25
ag7
ag3
ag4
ag4
ag11
ag6
ag19
asS'M00540'
p1032
(lp1033
g3
ag4
ag20
ag14
ag14
ag6
ag7
ag3
ag4
ag20
ag14
ag14
ag5
ag7
ag3
ag4
ag5
ag25
ag19
ag20
ag7
ag3
ag4
ag5
ag25
ag19
ag25
ag7
ag3
ag4
ag5
ag25
ag19
ag6
asS'M00541'
p1034
(lp1035
g48
ag3
ag4
ag20
ag14
ag14
ag30
ag35
ag3
ag4
ag20
ag14
ag14
ag19
ag35
ag3
ag4
ag20
ag14
ag14
ag20
ag35
ag3
ag4
ag20
ag14
ag14
ag25
ag49
ag3
ag14
ag11
ag25
ag14
ag25
ag35
ag3
ag14
ag11
ag25
ag14
ag6
ag50
ag7
ag3
ag4
ag5
ag25
ag19
ag5
ag7
ag3
ag4
ag5
ag25
ag19
ag8
ag7
ag3
ag4
ag5
ag25
ag19
ag11
asS'M00542'
p1036
(lp1037
g3
ag4
ag19
ag30
ag30
ag14
ag35
ag3
ag4
ag19
ag30
ag14
ag11
ag35
ag3
ag4
ag19
ag30
ag30
ag30
ag35
ag3
ag4
ag19
ag30
ag30
ag6
ag35
ag3
ag4
ag19
ag30
ag30
ag5
ag35
ag3
ag4
ag19
ag30
ag30
ag8
ag35
ag3
ag4
ag19
ag30
ag30
ag11
ag35
ag3
ag4
ag19
ag30
ag19
ag4
ag35
ag3
ag4
ag19
ag30
ag30
ag20
ag35
ag3
ag4
ag19
ag30
ag30
ag25
ag7
ag3
ag14
ag30
ag5
ag8
ag20
ag7
ag3
ag14
ag30
ag5
ag8
ag5
ag7
ag3
ag14
ag30
ag5
ag8
ag25
ag7
ag3
ag14
ag30
ag5
ag8
ag6
ag7
ag3
ag14
ag30
ag5
ag8
ag8
ag7
ag3
ag14
ag6
ag4
ag20
ag14
ag7
ag3
ag14
ag6
ag4
ag20
ag30
asS'M00543'
p1038
(lp1039
g3
ag4
ag8
ag6
ag8
ag11
ag35
ag3
ag14
ag25
ag5
ag25
ag4
ag35
ag3
ag14
ag8
ag4
ag8
ag5
ag35
ag3
ag14
ag8
ag4
ag8
ag8
ag7
ag3
ag4
ag8
ag6
ag11
ag4
ag7
ag3
ag4
ag4
ag20
ag6
ag30
ag7
ag3
ag14
ag4
ag30
ag30
ag30
asS'M00544'
p1040
(lp1041
g3
ag14
ag25
ag5
ag25
ag14
ag55
ag3
ag14
ag25
ag5
ag25
ag30
ag55
ag3
ag14
ag25
ag5
ag25
ag19
ag7
ag3
ag14
ag25
ag5
ag25
ag20
ag35
ag3
ag14
ag25
ag5
ag25
ag25
ag7
ag3
ag14
ag25
ag5
ag25
ag6
asS'M00545'
p1042
(lp1043
g48
ag48
ag48
ag3
ag4
ag25
ag5
ag4
ag8
ag35
ag3
ag4
ag25
ag5
ag4
ag11
ag35
ag3
ag4
ag25
ag5
ag14
ag4
ag35
ag3
ag4
ag4
ag25
ag30
ag11
ag50
ag7
ag3
ag4
ag25
ag5
ag14
ag14
ag50
ag49
ag3
ag4
ag25
ag5
ag14
ag30
ag50
ag7
ag3
ag4
ag25
ag5
ag14
ag19
ag7
ag3
ag4
ag25
ag5
ag14
ag20
ag7
ag3
ag4
ag30
ag25
ag25
ag20
ag7
ag3
ag4
ag14
ag6
ag6
ag6
ag7
ag3
ag4
ag20
ag4
ag5
ag19
asS'M00546'
p1044
(lp1045
g48
ag3
ag4
ag4
ag14
ag4
ag6
ag49
ag3
ag4
ag4
ag4
ag8
ag5
ag35
ag3
ag14
ag19
ag20
ag5
ag11
ag35
ag3
ag14
ag19
ag20
ag8
ag4
ag49
ag3
ag14
ag19
ag20
ag8
ag14
ag35
ag3
ag14
ag19
ag20
ag8
ag30
ag49
ag3
ag14
ag14
ag14
ag5
ag5
ag35
ag3
ag14
ag14
ag14
ag5
ag8
ag35
ag3
ag14
ag19
ag20
ag8
ag19
ag50
ag7
ag48
ag3
ag4
ag4
ag19
ag6
ag25
ag49
ag3
ag14
ag6
ag8
ag19
ag8
ag49
ag3
ag14
ag6
ag8
ag19
ag11
ag50
ag7
ag48
ag3
ag14
ag19
ag20
ag8
ag20
ag49
ag3
ag4
ag5
ag14
ag30
ag5
ag7
ag48
ag3
ag14
ag19
ag20
ag8
ag25
ag49
ag3
ag14
ag6
ag8
ag19
ag8
ag49
ag3
ag14
ag6
ag8
ag20
ag4
ag50
ag50
ag7
ag48
ag3
ag4
ag14
ag20
ag6
ag6
ag49
ag3
ag14
ag6
ag8
ag20
ag30
ag50
ag7
ag3
ag4
ag14
ag20
ag5
ag5
asS'M00547'
p1046
(lp1047
g3
ag4
ag19
ag30
ag6
ag8
ag35
ag3
ag14
ag6
ag30
ag6
ag8
ag35
ag3
ag14
ag8
ag4
ag8
ag11
ag35
ag3
ag14
ag8
ag4
ag11
ag4
ag7
ag3
ag14
ag6
ag30
ag6
ag11
asS'M00295'
p1048
(lp1049
g3
ag14
ag4
ag6
ag4
ag25
ag35
ag3
ag4
ag8
ag5
ag19
ag25
ag35
ag3
ag4
ag8
ag5
ag19
ag5
ag35
ag3
ag4
ag8
ag5
ag19
ag20
ag35
ag3
ag14
ag4
ag8
ag25
ag8
ag35
ag3
ag14
ag4
ag5
ag25
ag20
ag35
ag3
ag14
ag4
ag5
ag25
ag25
ag35
ag3
ag14
ag4
ag5
ag25
ag6
ag35
ag3
ag4
ag20
ag8
ag4
ag30
ag35
ag3
ag14
ag4
ag8
ag6
ag25
ag35
ag3
ag14
ag4
ag8
ag6
ag6
ag35
ag3
ag14
ag4
ag8
ag6
ag5
ag35
ag3
ag14
ag4
ag11
ag4
ag14
ag35
ag3
ag4
ag20
ag5
ag30
ag8
asS'M00108'
p1050
(lp1051
g3
ag4
ag4
ag25
ag14
ag19
ag7
ag48
ag3
ag4
ag4
ag20
ag11
ag5
ag49
ag3
ag4
ag5
ag20
ag19
ag19
ag50
ag7
ag3
ag4
ag5
ag20
ag19
ag19
asS'M00109'
p1052
(lp1053
g3
ag4
ag4
ag25
ag14
ag30
ag7
ag3
ag4
ag4
ag25
ag14
ag19
ag7
ag48
ag3
ag4
ag4
ag20
ag11
ag5
ag49
ag3
ag4
ag5
ag20
ag19
ag19
ag50
ag7
ag48
ag3
ag14
ag25
ag6
ag8
ag4
ag49
ag3
ag4
ag4
ag4
ag5
ag14
ag50
asS'M00292'
p1054
(lp1055
g3
ag14
ag4
ag8
ag6
ag25
ag35
ag3
ag14
ag4
ag8
ag6
ag6
ag35
ag3
ag14
ag4
ag8
ag6
ag8
asS'M00100'
p1056
(lp1057
g3
ag4
ag20
ag5
ag14
ag8
ag7
ag3
ag4
ag14
ag6
ag19
ag20
asS'M00101'
p1058
(lp1059
g3
ag4
ag14
ag8
ag25
ag30
ag7
ag3
ag4
ag25
ag11
ag14
ag5
ag7
ag3
ag4
ag4
ag30
ag30
ag30
ag7
ag3
ag4
ag5
ag5
ag25
ag4
ag7
ag3
ag4
ag5
ag5
ag20
ag8
ag7
ag48
ag3
ag4
ag11
ag8
ag30
ag5
ag49
ag3
ag14
ag19
ag19
ag5
ag19
ag50
ag7
ag3
ag4
ag11
ag8
ag30
ag8
ag7
ag3
ag4
ag14
ag8
ag30
ag20
ag7
ag3
ag4
ag4
ag30
ag30
ag5
ag7
ag3
ag4
ag4
ag30
ag14
ag19
asS'M00102'
p1060
(lp1061
g3
ag4
ag4
ag25
ag25
ag11
ag7
ag3
ag4
ag11
ag8
ag30
ag11
ag7
ag3
ag4
ag4
ag30
ag30
ag5
ag7
ag3
ag4
ag11
ag8
ag19
ag14
ag7
ag3
ag4
ag4
ag30
ag30
ag19
asS'M00103'
p1062
(lp1063
g3
ag4
ag5
ag20
ag14
ag11
ag7
ag3
ag4
ag5
ag20
ag19
ag8
asS'M00104'
p1064
(lp1065
g3
ag4
ag4
ag20
ag8
ag11
ag7
ag3
ag14
ag30
ag20
ag4
ag8
ag7
ag3
ag4
ag5
ag20
ag19
ag14
ag7
ag3
ag4
ag4
ag30
ag25
ag14
ag7
ag3
ag4
ag4
ag4
ag19
ag5
ag7
ag3
ag4
ag4
ag20
ag8
ag8
ag7
ag3
ag4
ag8
ag5
ag20
ag8
ag7
ag3
ag4
ag14
ag5
ag11
ag6
ag7
ag3
ag14
ag4
ag30
ag14
ag20
ag7
ag3
ag14
ag30
ag20
ag4
ag25
ag7
ag3
ag4
ag8
ag5
ag6
ag20
ag7
ag3
ag14
ag14
ag11
ag11
ag30
asS'M00106'
p1066
(lp1067
g3
ag4
ag8
ag5
ag20
ag8
ag7
ag3
ag4
ag4
ag6
ag25
ag11
asS'M00107'
p1068
(lp1069
g3
ag4
ag4
ag20
ag11
ag8
ag7
ag48
ag3
ag4
ag4
ag4
ag5
ag4
ag49
ag3
ag4
ag14
ag8
ag30
ag30
ag50
asS'M00719'
p1070
(lp1071
g3
ag14
ag8
ag11
ag8
ag6
ag7
ag3
ag14
ag8
ag11
ag8
ag5
asS'M00718'
p1072
(lp1073
g3
ag14
ag8
ag14
ag19
ag14
ag7
ag3
ag4
ag19
ag25
ag8
ag25
ag35
ag3
ag14
ag8
ag14
ag19
ag8
ag35
ag3
ag14
ag8
ag14
ag19
ag11
asS'M00715'
p1074
(lp1075
g3
ag14
ag8
ag11
ag19
ag11
ag7
ag3
ag14
ag8
ag11
ag30
ag6
asS'M00714'
p1076
(lp1077
g3
ag14
ag8
ag11
ag19
ag8
ag7
ag3
ag4
ag8
ag14
ag6
ag5
asS'M00717'
p1078
(lp1079
g48
ag3
ag14
ag8
ag11
ag20
ag4
ag7
ag3
ag14
ag8
ag11
ag20
ag14
ag49
ag3
ag14
ag8
ag11
ag4
ag6
ag50
ag7
ag3
ag4
ag8
ag14
ag25
ag19
asS'M00716'
p1080
(lp1081
g3
ag14
ag8
ag11
ag20
ag4
ag7
ag3
ag14
ag8
ag11
ag20
ag14
asS'M00711'
p1082
(lp1083
g3
ag14
ag14
ag5
ag20
ag30
ag35
ag3
ag14
ag14
ag5
ag20
ag19
asS'M00710'
p1084
(lp1085
g3
ag14
ag14
ag8
ag14
ag20
ag35
ag3
ag14
ag14
ag8
ag14
ag25
asS'M00713'
p1086
(lp1087
g3
ag14
ag8
ag11
ag19
ag5
ag7
ag3
ag4
ag8
ag14
ag6
ag5
asS'M00712'
p1088
(lp1089
g3
ag14
ag8
ag11
ag30
ag20
ag35
ag3
ag14
ag8
ag11
ag30
ag25
asS'M00214'
p1090
(lp1091
g3
ag14
ag4
ag25
ag20
ag4
ag35
ag3
ag14
ag4
ag25
ag20
ag14
ag35
ag3
ag14
ag4
ag25
ag20
ag30
asS'M00215'
p1092
(lp1093
g3
ag14
ag4
ag25
ag20
ag19
ag35
ag3
ag14
ag4
ag25
ag20
ag20
ag35
ag3
ag14
ag4
ag25
ag20
ag25
asS'M00216'
p1094
(lp1095
g3
ag14
ag4
ag25
ag20
ag6
ag35
ag3
ag14
ag4
ag25
ag20
ag5
ag35
ag3
ag14
ag4
ag25
ag20
ag8
asS'M00217'
p1096
(lp1097
g3
ag14
ag4
ag25
ag20
ag11
ag35
ag3
ag14
ag4
ag25
ag25
ag4
ag35
ag3
ag14
ag4
ag25
ag25
ag14
asS'M00210'
p1098
(lp1099
g3
ag4
ag5
ag19
ag30
ag19
ag35
ag3
ag4
ag30
ag4
ag6
ag5
ag35
ag3
ag4
ag30
ag4
ag6
ag6
ag35
ag3
ag4
ag30
ag4
ag6
ag25
ag35
ag3
ag4
ag5
ag14
ag30
ag30
asS'M00211'
p1100
(lp1101
g3
ag4
ag30
ag4
ag6
ag11
ag35
ag3
ag4
ag30
ag4
ag6
ag8
asS'M00212'
p1102
(lp1103
g3
ag14
ag4
ag20
ag19
ag11
ag35
ag3
ag14
ag4
ag20
ag20
ag4
ag35
ag3
ag14
ag4
ag20
ag20
ag14
asS'M00213'
p1104
(lp1105
g3
ag14
ag4
ag25
ag19
ag5
ag35
ag3
ag14
ag4
ag25
ag19
ag8
ag35
ag3
ag14
ag4
ag25
ag19
ag11
asS'M00148'
p1106
(lp1107
g3
ag4
ag4
ag30
ag19
ag6
ag35
ag3
ag4
ag4
ag30
ag19
ag5
ag35
ag3
ag4
ag4
ag30
ag19
ag20
ag35
ag3
ag4
ag4
ag30
ag19
ag25
asS'M00218'
p1108
(lp1109
g3
ag14
ag4
ag25
ag25
ag30
ag35
ag3
ag14
ag4
ag25
ag25
ag19
ag35
ag3
ag14
ag4
ag25
ag25
ag20
asS'M00219'
p1110
(lp1111
g3
ag14
ag4
ag25
ag25
ag25
ag35
ag3
ag14
ag4
ag25
ag25
ag6
ag35
ag3
ag14
ag4
ag25
ag25
ag5
ag35
ag3
ag14
ag4
ag25
ag25
ag8
asS'M00199'
p1112
(lp1113
g3
ag14
ag4
ag14
ag8
ag8
ag35
ag3
ag14
ag4
ag14
ag8
ag11
ag35
ag3
ag14
ag4
ag14
ag11
ag4
ag55
ag3
ag14
ag4
ag14
ag11
ag14
asS'M00198'
p1114
(lp1115
g3
ag4
ag25
ag8
ag14
ag19
ag35
ag3
ag4
ag25
ag8
ag14
ag20
ag35
ag3
ag4
ag25
ag8
ag14
ag25
ag35
ag3
ag4
ag25
ag8
ag14
ag6
asS'M00197'
p1116
(lp1117
g3
ag14
ag4
ag14
ag30
ag4
ag35
ag3
ag14
ag4
ag14
ag30
ag14
ag35
ag3
ag14
ag4
ag14
ag30
ag30
ag35
ag3
ag14
ag4
ag14
ag14
ag30
asS'M00196'
p1118
(lp1119
g3
ag14
ag4
ag14
ag14
ag5
ag35
ag3
ag14
ag4
ag14
ag14
ag8
ag35
ag3
ag14
ag4
ag14
ag14
ag11
ag35
ag3
ag14
ag4
ag14
ag14
ag30
asS'M00194'
p1120
(lp1121
g3
ag14
ag4
ag14
ag4
ag8
ag35
ag3
ag14
ag4
ag14
ag4
ag11
ag35
ag3
ag14
ag4
ag14
ag14
ag4
ag35
ag48
ag3
ag14
ag4
ag14
ag14
ag14
ag49
ag3
ag14
ag4
ag14
ag14
ag30
ag50
asS'M00193'
p1122
(lp1123
g3
ag4
ag30
ag4
ag25
ag25
ag35
ag3
ag4
ag30
ag4
ag25
ag19
ag35
ag3
ag4
ag30
ag4
ag25
ag20
ag35
ag3
ag4
ag30
ag4
ag25
ag30
asS'M00192'
p1124
(lp1125
g3
ag4
ag25
ag5
ag5
ag5
ag35
ag3
ag4
ag25
ag5
ag5
ag8
ag35
ag3
ag4
ag25
ag5
ag5
ag11
asS'M00191'
p1126
(lp1127
g3
ag4
ag30
ag4
ag6
ag20
ag35
ag3
ag4
ag30
ag4
ag6
ag19
ag35
ag3
ag4
ag30
ag4
ag6
ag30
asS'M00190'
p1128
(lp1129
g3
ag4
ag30
ag4
ag14
ag30
ag35
ag3
ag4
ag30
ag4
ag14
ag14
ag35
ag3
ag4
ag30
ag4
ag14
ag4
asS'M00809'
p1130
(lp1131
g3
ag30
ag4
ag14
ag14
ag6
ag35
ag3
ag30
ag4
ag14
ag14
ag5
ag35
ag3
ag30
ag4
ag14
ag14
ag8
asS'M00808'
p1132
(lp1133
g3
ag30
ag4
ag4
ag8
ag6
ag7
ag3
ag30
ag4
ag4
ag8
ag5
ag35
ag3
ag30
ag4
ag4
ag8
ag8
ag7
ag3
ag30
ag4
ag4
ag8
ag11
ag7
ag3
ag30
ag4
ag4
ag11
ag4
asS'M00801'
p1134
(lp1135
g3
ag14
ag6
ag20
ag19
ag25
ag7
ag3
ag14
ag19
ag19
ag30
ag5
ag7
ag3
ag14
ag11
ag8
ag25
ag8
ag7
ag3
ag14
ag19
ag19
ag14
ag11
asS'M00800'
p1136
(lp1137
g3
ag14
ag6
ag20
ag19
ag25
ag7
ag3
ag14
ag6
ag20
ag19
ag6
ag7
ag3
ag14
ag19
ag19
ag30
ag6
ag7
ag3
ag14
ag6
ag20
ag19
ag8
ag7
ag3
ag14
ag19
ag19
ag30
ag30
asS'M00803'
p1138
(lp1139
g3
ag14
ag6
ag20
ag19
ag25
ag7
ag3
ag14
ag11
ag8
ag25
ag11
ag7
ag3
ag14
ag6
ag20
ag19
ag6
ag7
ag3
ag14
ag19
ag19
ag19
ag30
asS'M00802'
p1140
(lp1141
g3
ag14
ag6
ag20
ag19
ag25
ag7
ag3
ag14
ag19
ag19
ag30
ag5
ag7
ag3
ag14
ag19
ag19
ag30
ag8
ag7
ag3
ag14
ag19
ag19
ag30
ag11
ag7
ag3
ag14
ag19
ag19
ag19
ag4
asS'M00805'
p1142
(lp1143
g3
ag30
ag4
ag4
ag5
ag25
ag7
ag3
ag30
ag4
ag4
ag5
ag6
ag7
ag3
ag30
ag4
ag4
ag5
ag5
ag35
ag3
ag30
ag4
ag4
ag5
ag8
ag7
ag3
ag30
ag4
ag4
ag5
ag11
ag7
ag3
ag30
ag4
ag4
ag8
ag4
ag7
ag3
ag30
ag4
ag4
ag8
ag14
ag7
ag3
ag30
ag4
ag4
ag8
ag30
asS'M00804'
p1144
(lp1145
g3
ag14
ag4
ag11
ag20
ag20
ag35
ag3
ag14
ag4
ag11
ag20
ag25
ag35
ag3
ag14
ag4
ag11
ag20
ag6
ag7
ag3
ag14
ag4
ag25
ag19
ag25
ag7
ag3
ag4
ag4
ag19
ag5
ag4
ag35
ag3
ag4
ag4
ag19
ag5
ag14
asS'M00807'
p1146
(lp1147
g3
ag30
ag4
ag14
ag14
ag30
ag35
ag3
ag30
ag4
ag14
ag14
ag19
ag35
ag3
ag30
ag4
ag14
ag14
ag20
asS'M00806'
p1148
(lp1149
g3
ag4
ag30
ag5
ag5
ag5
ag35
ag3
ag30
ag4
ag14
ag4
ag5
ag35
ag3
ag30
ag4
ag14
ag4
ag8
asS'M00628'
p1150
(lp1151
g3
ag4
ag8
ag30
ag14
ag8
ag7
ag3
ag4
ag14
ag30
ag4
ag5
ag7
ag3
ag14
ag5
ag8
ag25
ag4
ag7
ag48
ag3
ag4
ag14
ag20
ag6
ag5
ag49
ag3
ag14
ag5
ag8
ag19
ag6
ag50
asS'M00770'
p1152
(lp1153
g3
ag14
ag11
ag6
ag4
ag11
ag7
ag3
ag14
ag11
ag6
ag14
ag4
asS'M00458'
p1154
(lp1155
g3
ag4
ag5
ag6
ag25
ag14
ag7
ag3
ag4
ag5
ag5
ag5
ag25
asS'M00141'
p1156
(lp1157
g3
ag4
ag4
ag6
ag4
ag4
ag7
ag48
ag3
ag4
ag4
ag30
ag8
ag8
ag49
ag48
ag3
ag14
ag19
ag20
ag4
ag19
ag7
ag3
ag14
ag19
ag20
ag4
ag30
ag50
ag50
asS'M00459'
p1158
(lp1159
g3
ag4
ag5
ag6
ag25
ag30
ag7
ag3
ag4
ag5
ag6
ag6
ag8
asS'M00069'
p1160
(lp1161
g3
ag4
ag19
ag19
ag5
ag4
ag7
ag48
ag3
ag4
ag19
ag19
ag5
ag14
ag49
ag3
ag4
ag19
ag19
ag6
ag11
ag50
asS'M00068'
p1162
(lp1163
g3
ag4
ag14
ag11
ag8
ag8
ag7
ag3
ag4
ag4
ag5
ag14
ag11
asS'M00449'
p1164
(lp1165
g3
ag4
ag5
ag6
ag20
ag14
ag7
ag3
ag4
ag5
ag6
ag6
ag19
asS'M00448'
p1166
(lp1167
g3
ag4
ag5
ag6
ag25
ag4
ag7
ag3
ag4
ag5
ag5
ag5
ag4
asS'M00362'
p1168
(lp1169
g3
ag4
ag4
ag11
ag6
ag19
ag7
ag3
ag4
ag4
ag11
ag6
ag25
ag7
ag48
ag3
ag4
ag14
ag5
ag8
ag20
ag49
ag3
ag14
ag5
ag5
ag14
ag6
ag50
ag7
ag48
ag3
ag4
ag4
ag11
ag5
ag30
ag49
ag3
ag4
ag20
ag4
ag20
ag30
ag49
ag3
ag14
ag14
ag25
ag30
ag8
ag50
ag7
ag3
ag4
ag14
ag5
ag11
ag14
ag7
ag3
ag4
ag4
ag4
ag14
ag30
ag7
ag48
ag3
ag4
ag4
ag11
ag6
ag6
ag49
ag3
ag4
ag4
ag11
ag5
ag14
ag49
ag3
ag14
ag6
ag4
ag14
ag14
ag49
ag3
ag14
ag6
ag8
ag8
ag14
ag50
asS'M00363'
p1170
(lp1171
g3
ag14
ag14
ag4
ag4
ag6
ag7
ag3
ag14
ag14
ag4
ag4
ag5
asS'M00364'
p1172
(lp1173
g3
ag4
ag14
ag8
ag30
ag19
ag7
ag48
ag3
ag4
ag4
ag5
ag11
ag25
ag49
ag3
ag14
ag19
ag5
ag8
ag11
ag49
ag3
ag14
ag19
ag5
ag8
ag5
ag50
asS'M00365'
p1174
(lp1175
g3
ag4
ag14
ag8
ag30
ag19
ag7
ag3
ag14
ag19
ag5
ag8
ag5
asS'M00366'
p1176
(lp1177
g3
ag4
ag14
ag8
ag30
ag19
ag7
ag3
ag14
ag20
ag4
ag6
ag6
ag7
ag3
ag4
ag4
ag5
ag8
ag5
ag7
ag3
ag14
ag19
ag5
ag8
ag11
asS'M00367'
p1178
(lp1179
g3
ag4
ag14
ag8
ag30
ag19
ag7
ag3
ag4
ag4
ag5
ag8
ag5
ag7
ag3
ag4
ag4
ag8
ag4
ag20
asS'M00368'
p1180
(lp1181
g3
ag4
ag4
ag5
ag8
ag11
ag7
ag48
ag3
ag4
ag14
ag5
ag6
ag30
ag49
ag3
ag30
ag4
ag5
ag5
ag30
ag50
ag7
ag3
ag4
ag25
ag11
ag19
ag19
asS'M00440'
p1182
(lp1183
g3
ag14
ag25
ag25
ag8
ag20
ag35
ag3
ag14
ag25
ag25
ag8
ag25
ag35
ag3
ag14
ag25
ag25
ag8
ag6
ag35
ag3
ag14
ag25
ag25
ag8
ag5
ag35
ag3
ag14
ag4
ag8
ag30
ag20
asS'M00443'
p1184
(lp1185
g3
ag4
ag5
ag5
ag6
ag8
ag7
ag3
ag4
ag5
ag5
ag5
ag6
asS'M00442'
p1186
(lp1187
g3
ag14
ag25
ag25
ag11
ag8
ag35
ag3
ag14
ag25
ag25
ag11
ag11
ag35
ag3
ag14
ag25
ag6
ag4
ag4
asS'M00445'
p1188
(lp1189
g3
ag4
ag5
ag6
ag19
ag8
ag7
ag3
ag4
ag5
ag6
ag25
ag11
asS'M00444'
p1190
(lp1191
g3
ag4
ag5
ag6
ag19
ag5
ag7
ag3
ag4
ag5
ag6
ag6
ag4
asS'M00649'
p1192
(lp1193
g3
ag14
ag8
ag14
ag20
ag19
ag7
ag3
ag14
ag8
ag14
ag20
ag20
ag7
ag3
ag14
ag8
ag14
ag20
ag25
ag35
ag3
ag14
ag8
ag14
ag20
ag6
ag55
ag3
ag14
ag8
ag14
ag20
ag5
asS'M00446'
p1194
(lp1195
g3
ag4
ag5
ag6
ag19
ag11
ag7
ag3
ag4
ag5
ag6
ag6
ag14
asS'M00328'
p1196
(lp1197
g3
ag14
ag30
ag25
ag19
ag6
ag35
ag3
ag14
ag30
ag25
ag19
ag5
ag35
ag3
ag14
ag30
ag25
ag19
ag8
asS'M00456'
p1198
(lp1199
g3
ag4
ag5
ag6
ag20
ag8
ag7
ag3
ag4
ag5
ag5
ag5
ag19
asS'M00457'
p1200
(lp1201
g3
ag4
ag5
ag6
ag20
ag11
ag7
ag3
ag4
ag5
ag5
ag5
ag20
asS'M00508'
p1202
(lp1203
g3
ag14
ag14
ag25
ag30
ag6
ag7
ag3
ag14
ag14
ag25
ag30
ag30
ag7
ag3
ag14
ag14
ag25
ag30
ag19
asS'M00509'
p1204
(lp1205
g3
ag14
ag19
ag20
ag11
ag4
ag7
ag3
ag14
ag14
ag20
ag20
ag20
ag7
ag3
ag14
ag19
ag20
ag11
ag14
asS'M00504'
p1206
(lp1207
g3
ag14
ag4
ag14
ag30
ag25
ag7
ag3
ag14
ag4
ag14
ag30
ag6
asS'M00505'
p1208
(lp1209
g3
ag14
ag14
ag19
ag8
ag19
ag7
ag3
ag14
ag14
ag19
ag8
ag20
asS'M00506'
p1210
(lp1211
g3
ag4
ag19
ag20
ag4
ag5
ag7
ag3
ag4
ag19
ag20
ag14
ag19
ag7
ag3
ag4
ag19
ag20
ag14
ag30
ag7
ag3
ag14
ag19
ag11
ag30
ag20
ag7
ag3
ag4
ag19
ag20
ag14
ag25
asS'M00507'
p1212
(lp1213
g3
ag4
ag6
ag25
ag11
ag6
ag7
ag3
ag4
ag30
ag20
ag8
ag5
ag7
ag3
ag4
ag30
ag6
ag25
ag5
ag7
ag3
ag4
ag30
ag6
ag25
ag8
ag7
ag3
ag4
ag6
ag25
ag11
ag5
asS'M00500'
p1214
(lp1215
g3
ag4
ag5
ag5
ag14
ag4
ag7
ag3
ag4
ag5
ag5
ag14
ag20
asS'M00501'
p1216
(lp1217
g3
ag4
ag30
ag6
ag6
ag8
ag7
ag3
ag4
ag30
ag6
ag6
ag5
asS'M00502'
p1218
(lp1219
g3
ag4
ag5
ag5
ag14
ag14
ag7
ag3
ag4
ag5
ag5
ag14
ag25
asS'M00503'
p1220
(lp1221
g3
ag4
ag8
ag20
ag5
ag25
ag7
ag3
ag4
ag8
ag20
ag5
ag6
asS'M00329'
p1222
(lp1223
g3
ag14
ag30
ag25
ag19
ag11
ag35
ag3
ag14
ag30
ag25
ag20
ag4
asS'M00067'
p1224
(lp1225
g3
ag4
ag20
ag6
ag30
ag8
ag7
ag3
ag4
ag14
ag4
ag14
ag11
asS'M00066'
p1226
(lp1227
g3
ag4
ag4
ag5
ag30
ag4
ag7
ag3
ag4
ag5
ag25
ag25
ag19
asS'M00065'
p1228
(lp1229
g3
ag4
ag19
ag8
ag25
ag5
ag7
ag3
ag4
ag19
ag20
ag19
ag20
ag7
ag3
ag4
ag25
ag30
ag8
ag19
ag7
ag3
ag4
ag25
ag30
ag8
ag20
ag7
ag3
ag4
ag25
ag30
ag8
ag25
ag7
ag3
ag4
ag5
ag25
ag20
ag30
ag7
ag3
ag4
ag25
ag30
ag8
ag6
ag7
ag3
ag4
ag25
ag30
ag8
ag5
asS'M00064'
p1230
(lp1231
g3
ag4
ag19
ag30
ag5
ag14
ag7
ag48
ag3
ag4
ag19
ag30
ag5
ag30
ag49
ag3
ag30
ag14
ag19
ag20
ag20
ag50
ag7
ag3
ag4
ag19
ag30
ag5
ag19
ag7
ag48
ag3
ag4
ag19
ag30
ag5
ag30
ag49
ag3
ag30
ag14
ag19
ag20
ag25
ag50
ag7
ag3
ag4
ag19
ag30
ag5
ag20
asS'M00063'
p1232
(lp1233
g3
ag4
ag6
ag4
ag20
ag14
ag7
ag3
ag4
ag14
ag6
ag30
ag5
ag7
ag3
ag4
ag19
ag30
ag5
ag4
ag7
ag3
ag4
ag4
ag11
ag5
ag11
asS'M00149'
p1234
(lp1235
g3
ag4
ag4
ag30
ag20
ag14
ag35
ag3
ag4
ag4
ag30
ag20
ag30
ag35
ag3
ag4
ag4
ag30
ag19
ag11
ag35
ag3
ag4
ag4
ag30
ag20
ag4
asS'M00061'
p1236
(lp1237
g3
ag4
ag14
ag8
ag14
ag30
ag7
ag3
ag4
ag4
ag4
ag20
ag4
ag7
ag48
ag3
ag4
ag14
ag6
ag8
ag6
ag49
ag3
ag4
ag8
ag19
ag30
ag19
ag50
ag7
ag3
ag4
ag4
ag8
ag5
ag20
ag7
ag48
ag3
ag4
ag14
ag6
ag30
ag25
ag49
ag3
ag14
ag5
ag20
ag6
ag19
ag50
asS'M00060'
p1238
(lp1239
g3
ag4
ag4
ag6
ag5
ag5
ag7
ag48
ag3
ag4
ag30
ag25
ag19
ag25
ag49
ag3
ag14
ag6
ag19
ag6
ag19
ag50
ag7
ag3
ag4
ag30
ag25
ag19
ag6
ag7
ag3
ag4
ag19
ag30
ag6
ag11
ag7
ag3
ag4
ag4
ag5
ag20
ag8
ag7
ag3
ag4
ag4
ag11
ag14
ag30
ag7
ag3
ag4
ag30
ag25
ag30
ag5
ag7
ag3
ag4
ag30
ag25
ag14
ag5
ag7
ag3
ag4
ag30
ag25
ag6
ag4
asS'M00144'
p1240
(lp1241
g3
ag4
ag4
ag19
ag19
ag4
ag35
ag48
ag3
ag4
ag4
ag19
ag19
ag14
ag35
ag3
ag4
ag4
ag19
ag19
ag30
ag35
ag3
ag4
ag4
ag19
ag19
ag19
ag49
ag3
ag4
ag4
ag19
ag19
ag14
ag35
ag3
ag14
ag19
ag19
ag5
ag8
ag49
ag3
ag14
ag19
ag19
ag8
ag4
ag50
ag35
ag3
ag4
ag4
ag19
ag19
ag20
ag35
ag3
ag4
ag4
ag19
ag19
ag25
ag35
ag3
ag4
ag4
ag19
ag19
ag6
ag35
ag3
ag4
ag4
ag19
ag19
ag5
ag35
ag3
ag4
ag4
ag19
ag19
ag8
ag35
ag3
ag4
ag4
ag19
ag19
ag11
ag35
ag3
ag4
ag4
ag19
ag20
ag4
ag35
ag48
ag3
ag4
ag4
ag19
ag20
ag14
ag35
ag3
ag4
ag4
ag19
ag20
ag30
ag49
ag3
ag14
ag25
ag8
ag6
ag19
ag50
ag35
ag3
ag4
ag4
ag19
ag20
ag19
asS'M00145'
p1242
(lp1243
g3
ag4
ag25
ag25
ag5
ag20
ag35
ag3
ag4
ag25
ag25
ag8
ag30
ag35
ag3
ag4
ag25
ag25
ag8
ag14
ag35
ag3
ag4
ag25
ag25
ag5
ag11
ag35
ag3
ag4
ag25
ag25
ag5
ag30
ag35
ag3
ag4
ag25
ag25
ag8
ag4
ag35
ag3
ag4
ag25
ag25
ag5
ag8
ag35
ag3
ag4
ag25
ag25
ag5
ag6
ag35
ag3
ag4
ag25
ag25
ag5
ag5
ag35
ag3
ag4
ag25
ag25
ag5
ag25
ag35
ag3
ag4
ag25
ag25
ag5
ag19
ag55
ag3
ag4
ag25
ag25
ag8
ag19
ag55
ag3
ag4
ag25
ag25
ag8
ag20
ag55
ag3
ag4
ag25
ag25
ag8
ag25
asS'M00146'
p1244
(lp1245
g3
ag4
ag19
ag11
ag20
ag25
ag35
ag3
ag4
ag19
ag11
ag20
ag6
ag35
ag3
ag4
ag19
ag11
ag20
ag5
ag35
ag3
ag4
ag19
ag11
ag20
ag8
ag35
ag3
ag4
ag19
ag11
ag20
ag11
ag35
ag3
ag4
ag19
ag11
ag25
ag4
ag35
ag3
ag4
ag19
ag11
ag25
ag14
ag35
ag3
ag4
ag19
ag11
ag25
ag30
ag35
ag3
ag4
ag19
ag11
ag25
ag19
ag35
ag3
ag4
ag19
ag11
ag25
ag20
ag35
ag3
ag4
ag19
ag11
ag25
ag25
ag35
ag3
ag4
ag19
ag11
ag25
ag6
ag35
ag3
ag14
ag14
ag19
ag25
ag30
ag35
ag3
ag14
ag14
ag19
ag25
ag19
asS'M00147'
p1246
(lp1247
g3
ag4
ag19
ag11
ag25
ag5
ag35
ag3
ag4
ag19
ag11
ag25
ag8
ag35
ag3
ag4
ag19
ag11
ag25
ag11
ag35
ag3
ag4
ag19
ag11
ag6
ag4
ag35
ag3
ag4
ag19
ag11
ag6
ag14
ag35
ag3
ag4
ag19
ag11
ag6
ag30
ag35
ag3
ag4
ag19
ag11
ag6
ag19
ag35
ag3
ag4
ag19
ag11
ag6
ag20
ag35
ag3
ag4
ag19
ag11
ag6
ag25
ag35
ag3
ag4
ag19
ag11
ag6
ag6
ag35
ag3
ag14
ag14
ag19
ag25
ag14
ag35
ag3
ag4
ag19
ag11
ag6
ag5
ag35
ag3
ag4
ag19
ag11
ag6
ag8
asS'M00140'
p1248
(lp1249
g3
ag4
ag4
ag6
ag4
ag4
ag7
ag3
ag4
ag14
ag20
ag11
ag14
ag7
ag3
ag4
ag14
ag11
ag19
ag8
asS'M00308'
p1250
(lp1251
g3
ag4
ag25
ag19
ag4
ag8
ag7
ag3
ag4
ag4
ag8
ag5
ag20
ag7
ag3
ag4
ag14
ag6
ag30
ag25
ag7
ag48
ag3
ag4
ag4
ag14
ag19
ag20
ag7
ag3
ag4
ag4
ag11
ag30
ag5
ag49
ag3
ag4
ag4
ag14
ag19
ag14
ag49
ag3
ag14
ag8
ag11
ag5
ag8
ag50
asS'M00142'
p1252
(lp1253
g3
ag4
ag19
ag8
ag5
ag8
ag35
ag3
ag4
ag19
ag8
ag5
ag11
ag35
ag3
ag4
ag19
ag8
ag8
ag4
ag35
ag3
ag4
ag19
ag8
ag8
ag14
ag35
ag3
ag4
ag19
ag8
ag8
ag30
ag35
ag3
ag4
ag19
ag8
ag8
ag19
ag35
ag3
ag4
ag19
ag8
ag8
ag20
asS'M00143'
p1254
(lp1255
g3
ag4
ag19
ag11
ag19
ag20
ag35
ag3
ag4
ag19
ag11
ag19
ag25
ag35
ag3
ag4
ag19
ag11
ag19
ag6
ag35
ag3
ag4
ag19
ag11
ag19
ag5
ag35
ag3
ag4
ag19
ag11
ag19
ag8
ag35
ag3
ag4
ag19
ag11
ag19
ag11
ag35
ag3
ag4
ag19
ag11
ag20
ag4
ag35
ag3
ag4
ag19
ag11
ag20
ag14
ag35
ag3
ag4
ag19
ag11
ag20
ag30
ag35
ag3
ag4
ag19
ag11
ag20
ag19
ag55
ag3
ag4
ag19
ag11
ag20
ag20
asS'M00266'
p1256
(lp1257
g3
ag4
ag30
ag5
ag5
ag5
ag35
ag3
ag4
ag30
ag5
ag11
ag4
ag35
ag3
ag4
ag30
ag5
ag11
ag14
asS'M00754'
p1258
(lp1259
g3
ag14
ag14
ag6
ag14
ag5
ag7
ag3
ag14
ag14
ag6
ag14
ag8
ag7
ag3
ag14
ag14
ag6
ag14
ag11
ag35
ag3
ag14
ag14
ag6
ag30
ag4
asS'M00618'
p1260
(lp1261
S'M'
p1262
ag4
ag4
ag19
ag5
ag5
ag7
ag1262
ag4
ag4
ag25
ag5
ag11
asS'M00619'
p1263
(lp1264
g3
ag14
ag5
ag19
ag30
ag6
ag35
ag3
ag14
ag5
ag19
ag30
ag5
ag35
ag3
ag14
ag5
ag19
ag30
ag8
asS'M00591'
p1265
(lp1266
g3
ag14
ag5
ag30
ag4
ag25
ag35
ag3
ag14
ag5
ag30
ag4
ag6
ag35
ag3
ag14
ag5
ag30
ag4
ag5
asS'M00590'
p1267
(lp1268
g3
ag14
ag5
ag30
ag4
ag30
ag35
ag3
ag14
ag5
ag30
ag4
ag19
ag35
ag3
ag14
ag5
ag30
ag4
ag20
asS'M00597'
p1269
(lp1270
g3
ag4
ag8
ag11
ag30
ag8
ag35
ag3
ag4
ag8
ag11
ag30
ag11
asS'M00596'
p1271
(lp1272
g48
ag48
ag3
ag4
ag4
ag11
ag25
ag6
ag35
ag3
ag4
ag4
ag11
ag25
ag5
ag50
ag49
ag3
ag4
ag4
ag11
ag25
ag8
ag50
ag7
ag3
ag4
ag4
ag19
ag11
ag20
ag35
ag3
ag4
ag4
ag19
ag11
ag25
ag7
ag3
ag14
ag14
ag14
ag8
ag4
ag35
ag3
ag14
ag14
ag14
ag8
ag14
asS'M00595'
p1273
(lp1274
g3
ag14
ag5
ag30
ag30
ag30
ag35
ag3
ag14
ag5
ag30
ag30
ag19
ag35
ag3
ag14
ag5
ag30
ag30
ag20
ag55
ag3
ag14
ag5
ag30
ag30
ag25
ag55
ag3
ag4
ag8
ag5
ag19
ag8
ag35
ag3
ag14
ag5
ag30
ag30
ag6
ag35
ag3
ag14
ag5
ag30
ag30
ag5
asS'M00610'
p1275
(lp1276
g3
ag14
ag5
ag20
ag6
ag20
ag35
ag3
ag14
ag5
ag20
ag6
ag25
ag35
ag3
ag14
ag5
ag20
ag6
ag6
ag35
ag3
ag14
ag5
ag20
ag6
ag5
asS'M00611'
p1277
(lp1278
g48
ag1262
ag4
ag4
ag14
ag6
ag14
ag49
ag1262
ag4
ag4
ag14
ag6
ag19
ag50
ag7
ag1262
ag4
ag4
ag14
ag6
ag25
asS'M00599'
p1279
(lp1280
g3
ag14
ag5
ag30
ag19
ag5
ag35
ag3
ag14
ag5
ag30
ag19
ag8
ag35
ag3
ag14
ag5
ag30
ag19
ag11
ag35
ag3
ag14
ag5
ag30
ag20
ag4
asS'M00613'
p1281
(lp1282
g1262
ag4
ag4
ag25
ag11
ag5
ag7
ag1262
ag4
ag4
ag19
ag5
ag6
asS'M00614'
p1283
(lp1284
g1262
ag4
ag4
ag25
ag11
ag8
ag7
ag1262
ag4
ag4
ag14
ag5
ag19
asS'M00615'
p1285
(lp1286
g48
ag3
ag4
ag30
ag25
ag5
ag25
ag49
ag1262
ag4
ag4
ag20
ag19
ag8
ag50
ag7
ag1262
ag4
ag4
ag25
ag19
ag14
asS'M00616'
p1287
(lp1288
g1262
ag4
ag4
ag14
ag8
ag25
ag7
ag1262
ag4
ag4
ag14
ag5
ag6
asS'M00617'
p1289
(lp1290
g1262
ag4
ag4
ag25
ag6
ag5
ag49
ag1262
ag4
ag4
ag19
ag25
ag5
ag49
ag1262
ag4
ag4
ag19
ag25
ag6
ag49
ag1262
ag4
ag4
ag25
ag6
ag19
asS'M00612'
p1291
(lp1292
g1262
ag4
ag4
ag25
ag11
ag5
ag7
ag1262
ag4
ag4
ag14
ag6
ag25
asS'M00391'
p1293
(lp1294
g3
ag4
ag5
ag25
ag5
ag19
ag35
ag3
ag14
ag30
ag25
ag8
ag5
ag35
ag3
ag4
ag19
ag6
ag5
ag11
ag35
ag3
ag4
ag19
ag6
ag8
ag14
ag35
ag3
ag14
ag14
ag6
ag4
ag4
ag35
ag3
ag14
ag30
ag25
ag8
ag11
ag35
ag3
ag14
ag30
ag25
ag8
ag6
ag35
ag3
ag14
ag30
ag25
ag8
ag25
ag35
ag3
ag4
ag19
ag6
ag5
ag8
ag35
ag3
ag14
ag30
ag25
ag11
ag4
asS'M00390'
p1295
(lp1296
g48
ag3
ag4
ag5
ag25
ag5
ag19
ag49
ag3
ag4
ag19
ag6
ag5
ag11
ag50
ag35
ag3
ag14
ag14
ag6
ag4
ag4
ag35
ag3
ag14
ag30
ag25
ag8
ag11
asS'M00393'
p1297
(lp1298
g48
ag3
ag4
ag19
ag25
ag14
ag20
ag49
ag3
ag14
ag30
ag25
ag11
ag6
ag50
ag35
ag3
ag14
ag30
ag25
ag11
ag5
ag35
ag3
ag14
ag30
ag25
ag11
ag8
asS'M00598'
p1299
(lp1300
g3
ag4
ag8
ag11
ag20
ag4
ag35
ag3
ag4
ag8
ag11
ag20
ag14
ag35
ag3
ag4
ag8
ag11
ag20
ag30
ag35
ag3
ag4
ag8
ag11
ag20
ag19
asS'M00395'
p1301
(lp1302
g48
ag3
ag14
ag30
ag6
ag14
ag4
ag49
ag3
ag14
ag30
ag6
ag14
ag14
ag49
ag3
ag14
ag30
ag6
ag14
ag30
ag50
ag35
ag3
ag14
ag30
ag6
ag14
ag19
ag35
ag3
ag14
ag30
ag6
ag14
ag20
ag35
ag3
ag14
ag30
ag6
ag14
ag25
ag35
ag3
ag14
ag30
ag6
ag14
ag5
asS'M00394'
p1303
(lp1304
g3
ag4
ag8
ag19
ag4
ag4
ag35
ag3
ag4
ag19
ag5
ag19
ag30
ag35
ag3
ag4
ag14
ag6
ag8
ag11
ag35
ag3
ag4
ag4
ag11
ag6
ag30
asS'M00397'
p1305
(lp1306
g3
ag14
ag30
ag6
ag30
ag4
ag35
ag3
ag14
ag30
ag6
ag30
ag14
ag35
ag3
ag14
ag30
ag6
ag30
ag30
ag35
ag3
ag14
ag30
ag6
ag30
ag19
ag35
ag3
ag14
ag30
ag6
ag30
ag20
ag35
ag3
ag14
ag30
ag6
ag30
ag25
ag35
ag3
ag14
ag30
ag6
ag30
ag6
asS'M00396'
p1307
(lp1308
g3
ag14
ag30
ag6
ag30
ag14
ag35
ag3
ag14
ag30
ag6
ag30
ag30
ag35
ag3
ag14
ag30
ag6
ag30
ag19
ag35
ag3
ag14
ag30
ag6
ag30
ag20
ag35
ag3
ag14
ag30
ag6
ag30
ag25
ag35
ag3
ag14
ag30
ag6
ag30
ag6
ag35
ag3
ag14
ag30
ag6
ag30
ag5
asS'M00399'
p1309
(lp1310
g3
ag14
ag30
ag8
ag8
ag30
ag35
ag3
ag14
ag30
ag8
ag8
ag19
asS'M00306'
p1311
(lp1312
g3
ag14
ag14
ag30
ag4
ag14
ag35
ag3
ag14
ag14
ag30
ag4
ag30
ag35
ag3
ag14
ag14
ag30
ag4
ag19
asS'M00307'
p1313
(lp1314
g48
ag48
ag3
ag4
ag4
ag14
ag6
ag19
ag49
ag3
ag4
ag4
ag14
ag6
ag14
ag35
ag3
ag4
ag4
ag14
ag6
ag30
ag50
ag35
ag3
ag4
ag4
ag6
ag30
ag5
ag35
ag3
ag4
ag4
ag19
ag8
ag30
ag50
ag49
ag3
ag4
ag4
ag14
ag6
ag11
ag35
ag3
ag4
ag4
ag14
ag5
ag4
ag35
ag3
ag4
ag4
ag14
ag5
ag14
ag35
ag3
ag4
ag4
ag14
ag5
ag30
ag49
ag3
ag4
ag19
ag5
ag19
ag5
asS'M00189'
p1315
(lp1316
g3
ag4
ag30
ag4
ag30
ag4
ag35
ag3
ag4
ag30
ag4
ag14
ag8
ag35
ag3
ag4
ag30
ag4
ag14
ag5
ag55
ag3
ag4
ag25
ag5
ag5
ag6
asS'M00378'
p1317
(lp1318
g48
ag3
ag14
ag14
ag5
ag5
ag11
ag49
ag3
ag14
ag14
ag5
ag8
ag4
ag35
ag3
ag14
ag14
ag5
ag8
ag14
ag50
asS'M00098'
p1319
(lp1320
g48
ag3
ag4
ag14
ag4
ag20
ag6
ag49
ag3
ag14
ag30
ag30
ag11
ag8
ag49
ag3
ag14
ag6
ag8
ag14
ag6
ag49
ag3
ag14
ag19
ag25
ag19
ag20
ag49
ag3
ag14
ag20
ag4
ag5
ag19
ag49
ag3
ag14
ag20
ag4
ag5
ag20
ag49
ag3
ag14
ag20
ag4
ag5
ag25
ag49
ag3
ag14
ag20
ag4
ag5
ag6
ag49
ag3
ag14
ag20
ag20
ag25
ag30
ag49
ag3
ag14
ag20
ag6
ag5
ag20
ag49
ag3
ag14
ag20
ag6
ag5
ag25
ag49
ag3
ag14
ag5
ag11
ag4
ag4
ag50
ag7
ag3
ag4
ag14
ag4
ag25
ag20
asS'M00099'
p1321
(lp1322
g3
ag4
ag4
ag6
ag25
ag20
ag7
ag3
ag4
ag20
ag5
ag4
ag8
ag7
ag48
ag3
ag4
ag20
ag5
ag4
ag11
ag49
ag3
ag4
ag20
ag5
ag14
ag4
ag50
ag7
ag3
ag4
ag20
ag5
ag14
ag30
ag7
ag48
ag3
ag4
ag14
ag20
ag20
ag14
ag49
ag3
ag14
ag30
ag19
ag20
ag8
ag49
ag3
ag14
ag30
ag19
ag20
ag11
ag50
asS'M00092'
p1323
(lp1324
g48
ag3
ag4
ag4
ag8
ag11
ag20
ag49
ag3
ag14
ag20
ag14
ag25
ag6
ag50
ag7
ag3
ag4
ag4
ag11
ag6
ag5
ag7
ag48
ag3
ag4
ag4
ag11
ag11
ag19
ag49
ag3
ag14
ag19
ag6
ag20
ag20
ag50
asS'M00093'
p1325
(lp1326
g3
ag4
ag4
ag11
ag8
ag14
ag7
ag48
ag3
ag4
ag4
ag11
ag11
ag8
ag49
ag3
ag14
ag5
ag14
ag4
ag19
ag50
ag7
ag3
ag4
ag14
ag6
ag14
ag19
asS'M00090'
p1327
(lp1328
g48
ag3
ag4
ag4
ag8
ag6
ag6
ag49
ag3
ag14
ag20
ag14
ag25
ag6
ag50
ag7
ag3
ag4
ag4
ag11
ag6
ag8
ag7
ag48
ag3
ag4
ag4
ag11
ag11
ag20
ag49
ag3
ag14
ag19
ag6
ag20
ag20
ag50
asS'M00091'
p1329
(lp1330
g3
ag4
ag4
ag25
ag25
ag14
ag49
ag48
ag3
ag14
ag6
ag19
ag6
ag11
ag7
ag3
ag4
ag4
ag25
ag25
ag4
ag50
ag49
ag3
ag4
ag4
ag25
ag5
ag4
asS'M00096'
p1331
(lp1332
g3
ag4
ag14
ag6
ag6
ag30
ag7
ag3
ag4
ag4
ag4
ag11
ag11
ag7
ag48
ag3
ag4
ag4
ag11
ag11
ag14
ag49
ag3
ag14
ag30
ag25
ag4
ag6
ag50
ag7
ag3
ag4
ag4
ag11
ag14
ag11
ag7
ag48
ag3
ag4
ag14
ag5
ag5
ag4
ag49
ag3
ag14
ag30
ag25
ag4
ag6
ag50
ag7
ag3
ag4
ag19
ag25
ag30
ag6
ag7
ag3
ag4
ag19
ag25
ag30
ag5
ag7
ag3
ag4
ag14
ag8
ag30
ag19
asS'M00097'
p1333
(lp1334
g3
ag4
ag30
ag30
ag11
ag14
ag7
ag3
ag4
ag30
ag30
ag11
ag19
ag7
ag3
ag14
ag25
ag5
ag20
ag20
ag7
ag3
ag4
ag4
ag25
ag14
ag20
ag7
ag3
ag4
ag11
ag8
ag19
ag25
ag7
ag3
ag4
ag6
ag20
ag20
ag19
asS'M00094'
p1335
(lp1336
g3
ag4
ag4
ag6
ag25
ag20
ag7
ag3
ag4
ag20
ag5
ag4
ag8
ag7
ag48
ag3
ag4
ag20
ag5
ag4
ag11
ag49
ag3
ag4
ag20
ag5
ag14
ag4
ag50
ag7
ag3
ag4
ag20
ag5
ag14
ag30
asS'M00095'
p1337
(lp1338
g3
ag4
ag4
ag6
ag30
ag6
ag7
ag3
ag4
ag14
ag6
ag20
ag14
ag7
ag3
ag4
ag4
ag4
ag30
ag14
ag7
ag3
ag4
ag4
ag8
ag6
ag11
ag7
ag48
ag3
ag4
ag4
ag11
ag19
ag8
ag49
ag3
ag14
ag19
ag30
ag5
ag19
ag50
ag7
ag3
ag4
ag14
ag25
ag11
ag5
ag7
ag3
ag4
ag14
ag8
ag30
ag19
asS'M00689'
p1339
(lp1340
g48
ag3
ag4
ag20
ag20
ag14
ag6
ag49
ag3
ag4
ag20
ag20
ag30
ag4
ag49
ag3
ag4
ag20
ag20
ag30
ag14
ag49
ag3
ag4
ag20
ag20
ag30
ag8
ag49
ag3
ag4
ag20
ag20
ag30
ag11
ag49
ag3
ag4
ag20
ag20
ag30
ag19
ag49
ag3
ag4
ag20
ag20
ag14
ag25
ag49
ag3
ag4
ag20
ag20
ag30
ag6
ag49
ag3
ag4
ag20
ag20
ag30
ag25
ag49
ag3
ag4
ag20
ag20
ag30
ag5
ag49
ag3
ag4
ag20
ag20
ag14
ag5
ag49
ag3
ag4
ag20
ag20
ag14
ag8
ag49
ag3
ag4
ag20
ag20
ag14
ag11
ag49
ag3
ag14
ag5
ag25
ag19
ag20
ag50
ag7
ag48
ag3
ag4
ag20
ag20
ag19
ag30
ag49
ag3
ag4
ag20
ag20
ag19
ag19
ag50
ag7
ag3
ag4
ag20
ag20
ag20
ag14
asS'M00688'
p1341
(lp1342
g48
ag3
ag4
ag20
ag20
ag14
ag6
ag49
ag3
ag4
ag20
ag20
ag30
ag4
ag49
ag3
ag4
ag20
ag20
ag30
ag14
ag49
ag3
ag4
ag20
ag20
ag30
ag8
ag49
ag3
ag4
ag20
ag20
ag30
ag11
ag49
ag3
ag4
ag20
ag20
ag30
ag19
ag49
ag3
ag4
ag20
ag20
ag14
ag25
ag49
ag3
ag4
ag20
ag20
ag30
ag6
ag49
ag3
ag4
ag20
ag20
ag30
ag25
ag49
ag3
ag4
ag20
ag20
ag30
ag5
ag49
ag3
ag4
ag20
ag20
ag14
ag5
ag49
ag3
ag4
ag20
ag20
ag14
ag8
ag49
ag3
ag4
ag20
ag20
ag14
ag11
ag49
ag3
ag14
ag5
ag25
ag19
ag20
ag50
ag7
ag48
ag3
ag4
ag20
ag20
ag19
ag4
ag49
ag7
ag3
ag4
ag20
ag20
ag19
ag14
ag50
ag7
ag3
ag4
ag20
ag20
ag20
ag4
asS'M00687'
p1343
(lp1344
g48
ag3
ag4
ag20
ag19
ag6
ag6
ag49
ag3
ag4
ag8
ag8
ag20
ag25
ag49
ag3
ag4
ag20
ag19
ag6
ag25
ag49
ag3
ag4
ag20
ag19
ag6
ag5
ag50
ag7
ag48
ag3
ag4
ag20
ag19
ag6
ag8
ag49
ag3
ag4
ag20
ag19
ag6
ag11
ag50
ag7
ag3
ag4
ag20
ag19
ag5
ag14
asS'M00686'
p1345
(lp1346
g48
ag3
ag14
ag4
ag14
ag25
ag11
ag49
ag3
ag14
ag4
ag14
ag6
ag4
ag49
ag3
ag14
ag8
ag8
ag4
ag11
ag50
ag7
ag3
ag4
ag20
ag5
ag30
ag11
ag7
ag48
ag3
ag4
ag20
ag5
ag19
ag4
ag35
ag3
ag4
ag20
ag5
ag19
ag19
ag50
ag7
ag3
ag4
ag19
ag14
ag5
ag25
ag7
ag48
ag3
ag4
ag20
ag20
ag30
ag5
ag35
ag3
ag4
ag20
ag20
ag4
ag20
ag55
ag3
ag4
ag20
ag20
ag4
ag19
ag50
ag7
ag48
ag3
ag4
ag5
ag30
ag4
ag11
ag55
ag3
ag4
ag20
ag20
ag6
ag5
ag55
ag3
ag4
ag5
ag30
ag14
ag4
ag50
ag7
ag3
ag4
ag20
ag5
ag19
ag20
ag7
ag48
ag3
ag4
ag30
ag25
ag8
ag4
ag55
ag3
ag4
ag20
ag5
ag19
ag25
ag50
asS'M00685'
p1347
(lp1348
g3
ag4
ag30
ag4
ag8
ag20
ag7
ag48
ag3
ag4
ag20
ag19
ag11
ag11
ag49
ag3
ag4
ag20
ag20
ag8
ag11
ag50
ag7
ag48
ag3
ag4
ag30
ag14
ag8
ag5
ag49
ag3
ag4
ag20
ag19
ag11
ag5
ag50
asS'M00684'
p1349
(lp1350
g48
ag3
ag14
ag14
ag30
ag14
ag5
ag49
ag3
ag4
ag20
ag20
ag20
ag5
ag49
ag3
ag14
ag14
ag30
ag14
ag8
ag49
ag3
ag14
ag14
ag30
ag14
ag11
ag50
ag7
ag48
ag3
ag14
ag14
ag30
ag30
ag4
ag49
ag3
ag14
ag14
ag30
ag30
ag14
ag49
ag3
ag4
ag20
ag6
ag11
ag30
ag49
ag3
ag14
ag14
ag30
ag30
ag30
ag49
ag3
ag14
ag14
ag30
ag30
ag19
ag49
ag3
ag14
ag14
ag30
ag30
ag20
ag49
ag3
ag14
ag14
ag30
ag30
ag25
ag50
ag7
ag48
ag3
ag4
ag20
ag6
ag11
ag20
ag49
ag3
ag4
ag20
ag6
ag11
ag25
ag49
ag3
ag4
ag20
ag6
ag11
ag6
ag49
ag3
ag4
ag20
ag5
ag4
ag14
ag49
ag3
ag4
ag20
ag6
ag11
ag5
ag49
ag3
ag4
ag20
ag6
ag11
ag8
ag49
ag3
ag4
ag20
ag6
ag11
ag11
ag50
asS'M00683'
p1351
(lp1352
g48
ag48
ag3
ag14
ag6
ag6
ag8
ag19
ag49
ag3
ag14
ag6
ag8
ag30
ag14
ag49
ag3
ag14
ag6
ag8
ag30
ag30
ag50
ag35
ag3
ag14
ag6
ag6
ag8
ag20
ag35
ag3
ag14
ag6
ag6
ag8
ag25
ag50
ag7
ag48
ag3
ag4
ag20
ag20
ag14
ag30
ag35
ag3
ag14
ag6
ag6
ag8
ag6
ag50
ag7
ag48
ag3
ag4
ag8
ag5
ag11
ag14
ag35
ag3
ag4
ag6
ag6
ag8
ag25
ag50
ag7
ag48
ag48
ag3
ag14
ag6
ag6
ag8
ag5
ag49
ag3
ag14
ag6
ag8
ag30
ag4
ag50
ag35
ag3
ag4
ag11
ag20
ag20
ag8
ag50
asS'M00682'
p1353
(lp1354
g48
ag3
ag4
ag6
ag4
ag25
ag14
ag49
ag3
ag4
ag6
ag4
ag25
ag11
ag49
ag48
ag3
ag4
ag6
ag14
ag5
ag4
ag35
ag48
ag3
ag4
ag20
ag25
ag4
ag25
ag49
ag3
ag4
ag20
ag25
ag30
ag30
ag49
ag3
ag4
ag6
ag4
ag6
ag4
ag50
ag35
ag3
ag4
ag6
ag14
ag5
ag14
ag35
ag3
ag4
ag6
ag14
ag5
ag30
ag50
ag50
ag7
ag48
ag3
ag4
ag30
ag25
ag11
ag11
ag49
ag3
ag30
ag4
ag11
ag11
ag20
ag49
ag3
ag30
ag4
ag11
ag11
ag25
ag49
ag3
ag30
ag4
ag11
ag11
ag6
ag50
ag7
ag3
ag4
ag6
ag4
ag25
ag19
asS'M00681'
p1355
(lp1356
g3
ag4
ag20
ag6
ag6
ag5
ag7
ag48
ag48
ag3
ag4
ag20
ag6
ag5
ag4
ag49
ag3
ag14
ag19
ag25
ag11
ag6
ag50
ag35
ag3
ag14
ag19
ag25
ag6
ag5
ag50
ag7
ag48
ag3
ag4
ag20
ag25
ag4
ag4
ag35
ag3
ag4
ag20
ag25
ag4
ag14
ag50
asS'M00680'
p1357
(lp1358
g48
ag3
ag14
ag19
ag19
ag5
ag25
ag49
ag3
ag14
ag19
ag19
ag5
ag6
ag49
ag3
ag14
ag19
ag19
ag5
ag5
ag50
ag7
ag48
ag3
ag4
ag20
ag19
ag8
ag8
ag35
ag3
ag4
ag20
ag6
ag5
ag20
ag50
ag7
ag48
ag3
ag4
ag20
ag25
ag4
ag4
ag35
ag3
ag4
ag20
ag25
ag4
ag14
ag50
asS'M00324'
p1359
(lp1360
g3
ag14
ag30
ag19
ag6
ag8
ag35
ag3
ag14
ag30
ag19
ag6
ag11
ag35
ag3
ag14
ag30
ag19
ag5
ag4
ag35
ag3
ag14
ag30
ag19
ag5
ag14
ag35
ag3
ag14
ag30
ag19
ag5
ag30
asS'M00325'
p1361
(lp1362
g3
ag14
ag14
ag4
ag4
ag20
ag35
ag3
ag14
ag14
ag4
ag4
ag19
ag35
ag3
ag14
ag30
ag19
ag20
ag4
asS'M00326'
p1363
(lp1364
g3
ag14
ag30
ag25
ag19
ag4
ag35
ag3
ag14
ag30
ag25
ag19
ag14
ag35
ag3
ag14
ag30
ag25
ag19
ag30
ag35
ag3
ag14
ag30
ag19
ag20
ag4
asS'M00327'
p1365
(lp1366
g3
ag14
ag30
ag25
ag19
ag19
ag35
ag3
ag14
ag30
ag25
ag19
ag20
ag35
ag3
ag14
ag30
ag25
ag19
ag25
asS'M00489'
p1367
(lp1368
g3
ag14
ag14
ag6
ag11
ag14
ag7
ag3
ag14
ag14
ag6
ag11
ag30
asS'M00488'
p1369
(lp1370
g3
ag4
ag5
ag5
ag4
ag14
ag7
ag3
ag4
ag5
ag5
ag4
ag19
asS'M00322'
p1371
(lp1372
g3
ag14
ag14
ag11
ag25
ag20
ag35
ag3
ag14
ag14
ag11
ag25
ag25
ag35
ag3
ag14
ag14
ag11
ag25
ag6
ag35
ag3
ag14
ag14
ag11
ag25
ag5
ag35
ag3
ag14
ag14
ag11
ag25
ag8
asS'M00323'
p1373
(lp1374
g3
ag14
ag14
ag11
ag25
ag11
ag35
ag3
ag14
ag14
ag11
ag6
ag4
ag35
ag3
ag14
ag14
ag11
ag6
ag14
ag35
ag3
ag14
ag14
ag11
ag6
ag30
ag35
ag3
ag14
ag14
ag11
ag6
ag19
asS'M00485'
p1375
(lp1376
g3
ag4
ag30
ag20
ag11
ag14
ag7
ag3
ag4
ag5
ag6
ag11
ag5
ag7
ag3
ag4
ag5
ag6
ag11
ag8
ag7
ag3
ag14
ag19
ag25
ag19
ag30
ag7
ag3
ag14
ag19
ag25
ag19
ag19
ag7
ag3
ag4
ag30
ag20
ag11
ag4
ag7
ag3
ag4
ag5
ag6
ag11
ag11
asS'M00484'
p1377
(lp1378
g3
ag14
ag14
ag6
ag30
ag19
ag7
ag3
ag14
ag14
ag6
ag30
ag20
asS'M00487'
p1379
(lp1380
g3
ag14
ag14
ag6
ag19
ag5
ag7
ag3
ag14
ag14
ag6
ag19
ag8
asS'M00486'
p1381
(lp1382
g3
ag4
ag5
ag5
ag4
ag4
ag7
ag3
ag4
ag5
ag5
ag4
ag30
asS'M00481'
p1383
(lp1384
g3
ag14
ag14
ag6
ag14
ag5
ag7
ag3
ag14
ag14
ag6
ag14
ag8
asS'M00480'
p1385
(lp1386
g3
ag4
ag5
ag6
ag8
ag14
ag7
ag3
ag4
ag5
ag6
ag11
ag20
asS'M00483'
p1387
(lp1388
g3
ag4
ag5
ag6
ag8
ag19
ag7
ag3
ag4
ag5
ag6
ag11
ag6
asS'M00482'
p1389
(lp1390
g3
ag4
ag5
ag6
ag8
ag30
ag7
ag3
ag4
ag5
ag6
ag11
ag25
asS'M00249'
p1391
(lp1392
g3
ag4
ag11
ag6
ag8
ag8
ag35
ag3
ag14
ag4
ag14
ag4
ag5
ag35
ag3
ag4
ag11
ag6
ag8
ag11
asS'M00247'
p1393
(lp1394
g3
ag4
ag14
ag11
ag8
ag11
ag35
ag3
ag4
ag25
ag8
ag19
ag30
ag35
ag3
ag4
ag25
ag8
ag19
ag19
asS'M00246'
p1395
(lp1396
g48
ag3
ag14
ag6
ag11
ag14
ag25
ag49
ag3
ag4
ag30
ag4
ag4
ag11
ag50
ag55
ag3
ag14
ag4
ag4
ag11
ag20
ag35
ag3
ag4
ag30
ag4
ag4
ag8
ag35
ag3
ag4
ag30
ag4
ag4
ag5
ag35
ag3
ag4
ag30
ag4
ag4
ag6
asS'M00245'
p1397
(lp1398
g3
ag4
ag30
ag4
ag4
ag11
ag35
ag3
ag4
ag30
ag4
ag4
ag8
ag35
ag3
ag4
ag30
ag4
ag4
ag5
ag35
ag3
ag4
ag30
ag4
ag4
ag6
asS'M00244'
p1399
(lp1400
g3
ag4
ag30
ag4
ag5
ag5
ag35
ag3
ag4
ag30
ag4
ag5
ag25
ag35
ag3
ag4
ag30
ag4
ag5
ag20
asS'M00243'
p1401
(lp1402
g3
ag4
ag11
ag8
ag14
ag8
ag35
ag3
ag4
ag11
ag8
ag14
ag11
ag35
ag3
ag4
ag11
ag8
ag30
ag4
asS'M00242'
p1403
(lp1404
g3
ag4
ag11
ag8
ag14
ag25
ag35
ag3
ag4
ag11
ag8
ag14
ag6
ag35
ag3
ag4
ag11
ag8
ag14
ag5
asS'M00241'
p1405
(lp1406
g3
ag4
ag6
ag8
ag25
ag8
ag35
ag3
ag4
ag6
ag4
ag5
ag19
ag35
ag3
ag4
ag6
ag4
ag5
ag20
asS'M00240'
p1407
(lp1408
g3
ag4
ag30
ag4
ag14
ag6
ag35
ag3
ag4
ag30
ag4
ag14
ag25
ag35
ag3
ag4
ag30
ag4
ag14
ag19
asS'M00392'
p1409
(lp1410
g3
ag14
ag30
ag25
ag11
ag11
ag35
ag3
ag14
ag30
ag6
ag4
ag4
ag35
ag48
ag3
ag14
ag30
ag6
ag4
ag14
ag49
ag3
ag14
ag30
ag6
ag4
ag30
ag50
asS'M00430'
p1411
(lp1412
g3
ag14
ag30
ag8
ag5
ag6
ag35
ag3
ag14
ag30
ag8
ag5
ag5
ag35
ag3
ag14
ag20
ag19
ag30
ag19
ag35
ag3
ag14
ag19
ag4
ag30
ag25
ag35
ag3
ag14
ag20
ag19
ag30
ag20
ag35
ag3
ag14
ag19
ag14
ag14
ag20
ag35
ag3
ag14
ag30
ag8
ag5
ag25
ag35
ag3
ag14
ag20
ag19
ag30
ag25
ag35
ag3
ag14
ag30
ag8
ag8
ag14
ag35
ag3
ag14
ag30
ag8
ag14
ag30
ag35
ag3
ag14
ag19
ag14
ag5
ag14
ag35
ag3
ag14
ag20
ag30
ag8
ag25
ag35
ag3
ag14
ag20
ag19
ag30
ag6
ag35
ag3
ag14
ag20
ag19
ag30
ag5
ag35
ag3
ag14
ag20
ag19
ag30
ag8
asS'M00432'
p1413
(lp1414
g3
ag4
ag14
ag6
ag20
ag11
ag7
ag48
ag3
ag4
ag14
ag5
ag4
ag30
ag49
ag3
ag4
ag14
ag5
ag4
ag19
ag35
ag3
ag4
ag14
ag5
ag4
ag20
ag50
ag7
ag3
ag4
ag4
ag4
ag25
ag30
asS'M00433'
p1415
(lp1416
g3
ag4
ag14
ag6
ag25
ag25
ag7
ag48
ag3
ag14
ag5
ag20
ag25
ag4
ag7
ag3
ag4
ag14
ag5
ag4
ag25
ag49
ag3
ag14
ag6
ag5
ag11
ag30
ag35
ag3
ag14
ag6
ag5
ag11
ag19
ag50
ag7
ag3
ag4
ag25
ag8
ag30
ag20
asS'M00434'
p1417
(lp1418
g3
ag4
ag5
ag6
ag19
ag6
ag7
ag48
ag3
ag4
ag5
ag6
ag25
ag5
ag49
ag3
ag4
ag5
ag6
ag25
ag8
ag50
asS'M00435'
p1419
(lp1420
g3
ag14
ag25
ag25
ag25
ag14
ag35
ag3
ag14
ag25
ag25
ag25
ag30
ag35
ag3
ag14
ag4
ag8
ag19
ag14
asS'M00436'
p1421
(lp1422
g3
ag14
ag25
ag25
ag25
ag19
ag35
ag3
ag14
ag25
ag25
ag25
ag20
ag35
ag3
ag14
ag25
ag25
ag25
ag25
asS'M00437'
p1423
(lp1424
g3
ag14
ag25
ag25
ag25
ag6
ag35
ag3
ag14
ag25
ag25
ag25
ag5
ag35
ag3
ag14
ag25
ag25
ag25
ag8
asS'M00438'
p1425
(lp1426
g3
ag14
ag25
ag25
ag5
ag6
ag35
ag3
ag14
ag25
ag25
ag5
ag5
ag35
ag3
ag14
ag25
ag25
ag5
ag8
ag55
ag3
ag14
ag25
ag25
ag5
ag11
asS'M00439'
p1427
(lp1428
g3
ag14
ag25
ag25
ag8
ag4
ag35
ag3
ag14
ag25
ag25
ag8
ag14
ag35
ag3
ag14
ag25
ag25
ag8
ag30
ag35
ag3
ag14
ag25
ag25
ag8
ag19
ag35
ag3
ag14
ag4
ag8
ag30
ag19
asS'M00398'
p1429
(lp1430
g3
ag14
ag14
ag4
ag8
ag6
ag35
ag3
ag14
ag14
ag4
ag8
ag5
ag35
ag3
ag14
ag14
ag4
ag11
ag6
ag35
ag3
ag14
ag14
ag4
ag8
ag8
ag35
ag3
ag14
ag14
ag4
ag11
ag5
ag35
ag3
ag14
ag14
ag4
ag11
ag8
ag35
ag3
ag14
ag14
ag4
ag11
ag11
asS'M00029'
p1431
(lp1432
g3
ag4
ag14
ag11
ag20
ag8
ag7
ag3
ag4
ag4
ag6
ag14
ag14
ag7
ag3
ag4
ag14
ag11
ag20
ag4
ag7
ag48
ag3
ag4
ag14
ag5
ag25
ag25
ag49
ag3
ag14
ag20
ag6
ag8
ag14
ag50
ag7
ag3
ag4
ag14
ag20
ag5
ag6
asS'M00028'
p1433
(lp1434
g48
ag3
ag4
ag4
ag6
ag14
ag11
ag49
ag3
ag4
ag4
ag6
ag30
ag4
ag49
ag3
ag4
ag4
ag6
ag14
ag8
ag49
ag3
ag14
ag14
ag4
ag6
ag5
ag49
ag3
ag14
ag20
ag6
ag8
ag14
ag49
ag3
ag14
ag20
ag6
ag8
ag30
ag50
ag7
ag48
ag3
ag4
ag4
ag11
ag19
ag4
ag7
ag3
ag4
ag4
ag14
ag20
ag25
ag49
ag3
ag14
ag30
ag6
ag25
ag11
ag50
ag7
ag48
ag3
ag4
ag4
ag8
ag14
ag8
ag49
ag3
ag4
ag4
ag8
ag30
ag14
ag50
ag7
ag48
ag3
ag4
ag14
ag20
ag19
ag8
ag49
ag3
ag14
ag20
ag6
ag5
ag5
ag49
ag3
ag4
ag4
ag6
ag30
ag4
ag50
asS'M00023'
p1435
(lp1436
g48
ag48
ag48
ag3
ag4
ag14
ag6
ag25
ag5
ag35
ag3
ag4
ag14
ag6
ag25
ag8
ag49
ag3
ag14
ag19
ag25
ag4
ag19
ag49
ag3
ag14
ag19
ag25
ag4
ag14
ag49
ag3
ag4
ag14
ag6
ag25
ag6
ag50
ag7
ag3
ag4
ag4
ag5
ag6
ag6
ag50
ag49
ag3
ag14
ag19
ag20
ag11
ag5
ag50
ag7
ag48
ag48
ag3
ag4
ag14
ag8
ag14
ag5
ag7
ag48
ag3
ag4
ag14
ag6
ag25
ag6
ag49
ag3
ag4
ag14
ag6
ag4
ag11
ag50
ag50
ag49
ag3
ag14
ag19
ag20
ag11
ag8
ag49
ag3
ag14
ag19
ag25
ag4
ag14
ag50
ag7
ag48
ag3
ag4
ag14
ag6
ag11
ag25
ag35
ag48
ag3
ag4
ag14
ag6
ag11
ag6
ag49
ag3
ag4
ag6
ag4
ag4
ag14
ag50
ag49
ag3
ag4
ag14
ag6
ag11
ag20
ag50
asS'M00022'
p1437
(lp1438
g48
ag3
ag4
ag14
ag6
ag30
ag6
ag49
ag3
ag4
ag19
ag8
ag25
ag6
ag49
ag3
ag14
ag19
ag8
ag25
ag19
ag50
ag7
ag48
ag48
ag48
ag3
ag4
ag14
ag5
ag19
ag25
ag49
ag3
ag14
ag19
ag8
ag30
ag11
ag50
ag7
ag48
ag48
ag3
ag4
ag19
ag5
ag8
ag25
ag49
ag3
ag4
ag19
ag5
ag8
ag6
ag50
ag7
ag3
ag4
ag4
ag4
ag14
ag20
ag49
ag3
ag14
ag19
ag8
ag19
ag30
ag50
ag50
ag49
ag3
ag14
ag19
ag8
ag19
ag4
ag50
ag7
ag48
ag48
ag3
ag4
ag4
ag8
ag11
ag14
ag49
ag3
ag14
ag19
ag8
ag30
ag11
ag50
ag7
ag3
ag4
ag4
ag8
ag4
ag4
ag49
ag3
ag14
ag19
ag8
ag19
ag4
ag50
ag7
ag3
ag4
ag14
ag5
ag19
ag6
asS'M00021'
p1439
(lp1440
g3
ag4
ag4
ag6
ag20
ag4
ag7
ag48
ag3
ag4
ag14
ag5
ag19
ag8
ag49
ag3
ag14
ag30
ag19
ag19
ag11
ag49
ag3
ag14
ag19
ag4
ag19
ag20
ag49
ag3
ag14
ag5
ag4
ag6
ag11
ag50
asS'M00020'
p1441
(lp1442
g3
ag4
ag4
ag4
ag25
ag8
ag7
ag3
ag4
ag4
ag8
ag19
ag14
ag7
ag3
ag4
ag14
ag4
ag5
ag11
asS'M00027'
p1443
(lp1444
g3
ag4
ag14
ag25
ag8
ag4
ag7
ag48
ag3
ag14
ag19
ag25
ag30
ag20
ag49
ag3
ag4
ag5
ag30
ag25
ag4
ag49
ag3
ag4
ag4
ag8
ag30
ag19
ag49
ag3
ag14
ag6
ag8
ag5
ag14
ag50
ag7
ag48
ag3
ag4
ag4
ag14
ag19
ag25
ag49
ag3
ag4
ag4
ag14
ag19
ag11
ag50
asS'M00026'
p1445
(lp1446
g48
ag3
ag4
ag4
ag5
ag6
ag25
ag55
ag3
ag4
ag30
ag25
ag4
ag30
ag50
ag7
ag48
ag3
ag4
ag14
ag25
ag30
ag19
ag7
ag3
ag4
ag14
ag20
ag11
ag6
ag49
ag3
ag14
ag14
ag5
ag25
ag25
ag49
ag3
ag14
ag20
ag14
ag25
ag30
ag50
ag7
ag3
ag4
ag14
ag8
ag14
ag20
ag7
ag48
ag3
ag4
ag30
ag25
ag4
ag14
ag35
ag3
ag4
ag30
ag25
ag4
ag4
ag49
ag3
ag4
ag14
ag6
ag6
ag19
ag50
ag7
ag48
ag48
ag3
ag4
ag14
ag6
ag11
ag19
ag7
ag3
ag4
ag4
ag8
ag14
ag5
ag7
ag48
ag3
ag4
ag20
ag20
ag8
ag6
ag49
ag3
ag4
ag25
ag6
ag4
ag30
ag49
ag3
ag14
ag8
ag6
ag20
ag11
ag50
ag50
ag49
ag48
ag3
ag4
ag14
ag4
ag8
ag11
ag7
ag3
ag4
ag4
ag8
ag14
ag5
ag50
ag50
ag7
ag48
ag3
ag4
ag4
ag4
ag14
ag19
ag49
ag3
ag14
ag20
ag14
ag25
ag30
ag50
asS'M00025'
p1447
(lp1448
g48
ag48
ag3
ag4
ag14
ag8
ag25
ag4
ag49
ag3
ag4
ag20
ag4
ag11
ag30
ag49
ag3
ag14
ag20
ag14
ag5
ag4
ag49
ag3
ag4
ag20
ag4
ag11
ag19
ag49
ag3
ag4
ag20
ag25
ag14
ag6
ag49
ag3
ag4
ag6
ag30
ag4
ag8
ag49
ag3
ag4
ag6
ag30
ag4
ag11
ag49
ag3
ag14
ag19
ag8
ag25
ag19
ag50
ag7
ag48
ag3
ag4
ag4
ag30
ag14
ag4
ag49
ag3
ag4
ag20
ag25
ag14
ag5
ag50
ag49
ag3
ag14
ag20
ag14
ag8
ag5
ag50
ag7
ag48
ag3
ag4
ag4
ag8
ag14
ag25
ag49
ag3
ag4
ag4
ag8
ag19
ag30
ag49
ag3
ag4
ag4
ag8
ag19
ag8
ag50
asS'M00024'
p1449
(lp1450
g48
ag48
ag3
ag4
ag14
ag8
ag25
ag4
ag49
ag3
ag4
ag20
ag4
ag11
ag30
ag49
ag3
ag14
ag20
ag14
ag8
ag5
ag49
ag3
ag4
ag20
ag4
ag11
ag19
ag49
ag3
ag4
ag20
ag25
ag14
ag6
ag49
ag3
ag4
ag6
ag30
ag4
ag8
ag49
ag3
ag4
ag6
ag30
ag4
ag11
ag49
ag3
ag14
ag19
ag8
ag25
ag19
ag50
ag7
ag48
ag3
ag4
ag14
ag5
ag14
ag19
ag49
ag3
ag4
ag20
ag25
ag14
ag8
ag49
ag3
ag4
ag25
ag19
ag25
ag11
ag50
ag49
ag3
ag14
ag20
ag14
ag5
ag4
ag50
ag7
ag48
ag3
ag4
ag4
ag8
ag19
ag30
ag49
ag3
ag4
ag4
ag8
ag19
ag8
ag50
asS'M00555'
p1451
(lp1452
g48
ag3
ag14
ag5
ag5
ag25
ag25
ag49
ag48
ag48
ag3
ag4
ag4
ag14
ag4
ag8
ag49
ag3
ag14
ag14
ag20
ag20
ag4
ag50
ag7
ag3
ag4
ag4
ag14
ag19
ag4
ag50
ag50
asS'M00554'
p1453
(lp1454
g3
ag4
ag4
ag8
ag20
ag11
ag7
ag3
ag4
ag4
ag11
ag6
ag25
asS'M00658'
p1455
(lp1456
g3
ag14
ag8
ag19
ag25
ag14
ag7
ag3
ag14
ag8
ag19
ag25
ag30
asS'M00552'
p1457
(lp1458
g3
ag4
ag14
ag6
ag8
ag20
ag7
ag3
ag4
ag4
ag8
ag8
ag19
ag7
ag3
ag4
ag14
ag6
ag19
ag14
ag7
ag3
ag4
ag4
ag14
ag19
ag20
ag7
ag3
ag4
ag4
ag11
ag30
ag5
asS'M00551'
p1459
(lp1460
g3
ag4
ag25
ag25
ag20
ag11
ag35
ag3
ag4
ag25
ag25
ag25
ag4
ag35
ag3
ag4
ag25
ag5
ag8
ag20
ag7
ag3
ag4
ag25
ag5
ag8
ag19
asS'M00550'
p1461
(lp1462
g3
ag4
ag30
ag8
ag30
ag14
ag35
ag3
ag4
ag30
ag8
ag30
ag30
ag35
ag3
ag4
ag19
ag20
ag5
ag25
ag7
ag3
ag4
ag19
ag20
ag5
ag6
ag7
ag3
ag4
ag19
ag4
ag5
ag8
ag7
ag3
ag4
ag19
ag4
ag5
ag11
ag7
ag3
ag4
ag19
ag4
ag5
ag5
asS'M00654'
p1463
(lp1464
g3
ag14
ag8
ag4
ag5
ag30
ag7
ag3
ag14
ag8
ag4
ag5
ag19
asS'M00655'
p1465
(lp1466
g3
ag14
ag8
ag14
ag20
ag19
ag7
ag3
ag14
ag8
ag14
ag20
ag20
asS'M00656'
p1467
(lp1468
g3
ag14
ag8
ag19
ag20
ag25
ag7
ag3
ag14
ag8
ag19
ag20
ag20
asS'M00657'
p1469
(lp1470
g3
ag14
ag8
ag19
ag25
ag4
ag7
ag3
ag14
ag8
ag19
ag20
ag11
asS'M00651'
p1471
(lp1472
g48
ag3
ag14
ag8
ag19
ag20
ag25
ag7
ag3
ag14
ag8
ag19
ag20
ag20
ag7
ag3
ag4
ag5
ag30
ag6
ag4
ag7
ag3
ag14
ag8
ag19
ag20
ag6
ag50
ag49
ag48
ag3
ag14
ag8
ag19
ag25
ag14
ag7
ag3
ag14
ag8
ag19
ag25
ag30
ag7
ag3
ag14
ag8
ag19
ag25
ag20
ag7
ag3
ag14
ag8
ag19
ag25
ag19
ag50
ag7
ag48
ag3
ag14
ag8
ag19
ag20
ag5
ag7
ag3
ag14
ag25
ag5
ag19
ag11
ag7
ag3
ag4
ag8
ag6
ag20
ag14
ag50
asS'M00652'
p1473
(lp1474
g3
ag14
ag8
ag19
ag25
ag4
ag7
ag3
ag14
ag8
ag19
ag20
ag11
ag7
ag3
ag14
ag8
ag19
ag20
ag8
ag7
ag3
ag14
ag8
ag8
ag25
ag6
ag7
ag3
ag14
ag8
ag8
ag6
ag6
asS'M00653'
p1475
(lp1476
g3
ag14
ag5
ag4
ag6
ag4
ag7
ag3
ag14
ag5
ag4
ag6
ag14
asS'M00371'
p1477
(lp1478
g48
ag3
ag4
ag11
ag25
ag8
ag5
ag49
ag3
ag14
ag30
ag6
ag19
ag11
ag50
ag7
ag3
ag4
ag11
ag25
ag8
ag8
ag7
ag3
ag4
ag11
ag25
ag11
ag14
ag7
ag48
ag3
ag14
ag30
ag6
ag19
ag5
ag49
ag3
ag14
ag30
ag6
ag19
ag8
ag50
ag7
ag48
ag3
ag4
ag11
ag25
ag11
ag4
ag49
ag3
ag14
ag30
ag6
ag20
ag4
ag50
asS'M00117'
p1479
(lp1480
g48
ag3
ag4
ag19
ag14
ag8
ag14
ag49
ag3
ag14
ag8
ag30
ag20
ag4
ag50
ag7
ag3
ag4
ag19
ag14
ag5
ag11
ag7
ag48
ag3
ag4
ag19
ag14
ag8
ag30
ag35
ag3
ag4
ag19
ag14
ag8
ag6
ag50
ag7
ag3
ag14
ag8
ag8
ag4
ag4
ag7
ag3
ag4
ag4
ag25
ag6
ag8
ag7
ag3
ag4
ag19
ag14
ag8
ag25
ag7
ag3
ag4
ag19
ag14
ag8
ag19
ag7
ag3
ag4
ag19
ag14
ag8
ag20
ag7
ag3
ag4
ag4
ag25
ag6
ag8
asS'M00116'
p1481
(lp1482
g48
ag3
ag4
ag14
ag8
ag25
ag14
ag49
ag3
ag4
ag30
ag25
ag25
ag30
ag49
ag3
ag4
ag30
ag19
ag6
ag14
ag50
ag7
ag3
ag4
ag30
ag25
ag25
ag14
ag7
ag3
ag4
ag8
ag6
ag8
ag4
ag7
ag3
ag4
ag30
ag25
ag20
ag11
ag7
ag3
ag4
ag14
ag11
ag14
ag14
ag7
ag3
ag4
ag14
ag6
ag6
ag14
ag7
ag48
ag3
ag14
ag30
ag4
ag5
ag19
ag49
ag3
ag14
ag11
ag30
ag30
ag30
ag50
ag7
ag3
ag4
ag30
ag25
ag20
ag8
ag7
ag3
ag4
ag19
ag14
ag8
ag19
asS'M00115'
p1483
(lp1484
g3
ag4
ag4
ag30
ag5
ag8
ag7
ag3
ag4
ag19
ag25
ag14
ag5
ag7
ag3
ag4
ag4
ag5
ag6
ag5
ag7
ag48
ag3
ag4
ag4
ag11
ag6
ag11
ag49
ag3
ag4
ag6
ag30
ag14
ag4
ag50
ag7
ag48
ag3
ag4
ag14
ag11
ag14
ag6
ag49
ag3
ag4
ag14
ag11
ag25
ag4
ag50
asS'M00114'
p1485
(lp1486
g48
ag48
ag3
ag4
ag14
ag8
ag14
ag4
ag49
ag3
ag4
ag6
ag8
ag25
ag11
ag49
ag3
ag14
ag19
ag8
ag14
ag4
ag50
ag7
ag48
ag3
ag4
ag14
ag8
ag4
ag11
ag49
ag3
ag14
ag6
ag4
ag14
ag14
ag50
ag49
ag3
ag14
ag25
ag11
ag14
ag6
ag50
ag7
ag48
ag3
ag14
ag6
ag8
ag8
ag14
ag49
ag48
ag3
ag14
ag5
ag20
ag11
ag5
ag49
ag3
ag4
ag14
ag8
ag20
ag4
ag49
ag3
ag14
ag25
ag5
ag5
ag8
ag50
ag7
ag48
ag3
ag4
ag4
ag11
ag6
ag6
ag49
ag3
ag4
ag4
ag11
ag5
ag14
ag49
ag3
ag14
ag6
ag4
ag14
ag14
ag50
ag50
ag7
ag3
ag14
ag4
ag4
ag20
ag6
ag7
ag3
ag14
ag20
ag14
ag11
ag4
ag7
ag48
ag3
ag14
ag4
ag4
ag20
ag5
ag49
ag3
ag14
ag8
ag6
ag20
ag11
ag50
ag7
ag48
ag3
ag4
ag4
ag4
ag6
ag20
ag49
ag3
ag14
ag5
ag5
ag20
ag20
ag50
ag7
ag3
ag4
ag4
ag30
ag30
ag25
asS'M00113'
p1487
(lp1488
g3
ag4
ag4
ag20
ag25
ag20
ag7
ag3
ag4
ag14
ag5
ag30
ag19
ag7
ag3
ag14
ag4
ag25
ag30
ag25
ag7
ag3
ag4
ag25
ag8
ag11
ag20
ag7
ag3
ag14
ag4
ag25
ag30
ag6
ag7
ag3
ag4
ag4
ag30
ag19
ag30
ag7
ag3
ag14
ag4
ag25
ag30
ag5
ag7
ag48
ag3
ag4
ag4
ag6
ag19
ag30
ag49
ag3
ag4
ag5
ag25
ag14
ag19
ag50
ag7
ag55
ag55
asS'M00112'
p1489
(lp1490
g3
ag4
ag11
ag8
ag19
ag19
ag7
ag48
ag3
ag14
ag30
ag25
ag4
ag30
ag49
ag3
ag14
ag8
ag25
ag19
ag20
ag50
ag7
ag3
ag4
ag11
ag8
ag19
ag20
ag7
ag3
ag4
ag25
ag11
ag30
ag8
asS'M00110'
p1491
(lp1492
g3
ag4
ag4
ag25
ag14
ag30
ag7
ag48
ag3
ag4
ag4
ag4
ag5
ag4
ag49
ag3
ag4
ag14
ag8
ag30
ag30
ag50
ag7
ag3
ag4
ag5
ag20
ag19
ag20
asS'M00294'
p1493
(lp1494
g3
ag4
ag30
ag19
ag19
ag30
ag35
ag3
ag4
ag30
ag19
ag19
ag19
asS'M00370'
p1495
(lp1496
g48
ag3
ag14
ag14
ag8
ag14
ag30
ag49
ag3
ag14
ag14
ag8
ag14
ag19
ag50
ag7
ag3
ag14
ag14
ag8
ag14
ag8
ag7
ag3
ag14
ag14
ag8
ag14
ag11
ag7
ag3
ag14
ag14
ag8
ag30
ag4
ag7
ag3
ag14
ag14
ag8
ag30
ag14
asS'M00296'
p1497
(lp1498
g3
ag14
ag4
ag8
ag4
ag19
ag35
ag3
ag14
ag4
ag5
ag11
ag8
ag35
ag48
ag3
ag4
ag30
ag19
ag19
ag4
ag49
ag3
ag4
ag19
ag25
ag14
ag30
ag49
ag3
ag14
ag4
ag11
ag8
ag14
ag50
ag35
ag3
ag14
ag4
ag5
ag5
ag6
ag35
ag48
ag3
ag14
ag4
ag5
ag5
ag14
ag49
ag3
ag14
ag4
ag5
ag5
ag30
ag50
asS'M00297'
p1499
(lp1500
g3
ag14
ag4
ag8
ag8
ag20
ag35
ag3
ag14
ag4
ag8
ag8
ag25
ag35
ag3
ag4
ag6
ag6
ag20
ag30
asS'M00290'
p1501
(lp1502
g3
ag4
ag19
ag14
ag20
ag14
ag35
ag3
ag4
ag19
ag14
ag20
ag30
ag35
ag3
ag4
ag19
ag14
ag20
ag19
ag35
ag3
ag4
ag19
ag14
ag20
ag20
ag35
ag3
ag14
ag4
ag8
ag20
ag19
ag35
ag3
ag14
ag4
ag8
ag20
ag20
ag35
ag3
ag14
ag4
ag8
ag20
ag25
ag35
ag3
ag4
ag30
ag30
ag4
ag30
ag35
ag3
ag4
ag6
ag6
ag19
ag20
ag35
ag3
ag14
ag4
ag8
ag20
ag30
asS'M00291'
p1503
(lp1504
g3
ag14
ag4
ag8
ag6
ag25
ag35
ag3
ag14
ag4
ag8
ag6
ag6
ag35
ag3
ag14
ag4
ag8
ag6
ag5
asS'M00119'
p1505
(lp1506
g3
ag4
ag4
ag8
ag30
ag6
ag7
ag3
ag4
ag4
ag6
ag4
ag6
ag7
ag3
ag4
ag4
ag4
ag5
ag5
asS'M00293'
p1507
(lp1508
g3
ag4
ag30
ag19
ag25
ag4
ag35
ag48
ag3
ag4
ag19
ag25
ag4
ag8
ag49
ag3
ag14
ag19
ag5
ag30
ag8
ag50
asS'M00058'
p1509
(lp1510
g3
ag4
ag4
ag5
ag20
ag6
ag7
ag48
ag3
ag14
ag19
ag20
ag11
ag11
ag49
ag3
ag4
ag4
ag5
ag20
ag5
ag49
ag3
ag4
ag19
ag20
ag14
ag11
ag50
asS'M00059'
p1511
(lp1512
g48
ag3
ag4
ag30
ag19
ag6
ag11
ag49
ag3
ag4
ag30
ag19
ag5
ag4
ag50
ag7
ag48
ag3
ag4
ag30
ag19
ag6
ag6
ag49
ag3
ag4
ag30
ag19
ag6
ag5
ag50
ag7
ag48
ag3
ag4
ag30
ag19
ag6
ag8
ag49
ag3
ag4
ag30
ag19
ag5
ag4
ag50
ag7
ag48
ag3
ag4
ag30
ag25
ag5
ag6
ag49
ag3
ag4
ag30
ag25
ag5
ag5
ag49
ag3
ag4
ag30
ag25
ag5
ag8
ag49
ag3
ag4
ag30
ag25
ag5
ag11
ag50
ag7
ag3
ag4
ag14
ag5
ag11
ag19
asS'M00056'
p1513
(lp1514
g3
ag4
ag4
ag5
ag14
ag4
ag7
ag48
ag3
ag4
ag4
ag5
ag19
ag14
ag49
ag3
ag4
ag11
ag6
ag25
ag19
ag50
ag7
ag48
ag3
ag4
ag4
ag5
ag30
ag5
ag49
ag3
ag4
ag11
ag6
ag6
ag30
ag49
ag3
ag4
ag11
ag6
ag6
ag19
ag50
ag7
ag3
ag4
ag4
ag5
ag19
ag11
asS'M00057'
p1515
(lp1516
g3
ag4
ag4
ag5
ag5
ag14
ag7
ag3
ag4
ag4
ag5
ag19
ag19
ag7
ag3
ag4
ag4
ag5
ag19
ag20
ag7
ag3
ag14
ag4
ag14
ag25
ag8
asS'M00055'
p1517
(lp1518
g3
ag4
ag14
ag4
ag4
ag14
ag7
ag48
ag3
ag4
ag5
ag20
ag19
ag30
ag35
ag3
ag4
ag5
ag20
ag20
ag14
ag50
ag7
ag3
ag4
ag19
ag8
ag20
ag30
ag7
ag3
ag4
ag19
ag8
ag20
ag19
ag7
ag3
ag4
ag19
ag8
ag20
ag20
ag7
ag3
ag4
ag19
ag8
ag20
ag25
ag7
ag3
ag4
ag19
ag8
ag20
ag6
ag7
ag3
ag4
ag19
ag8
ag20
ag5
ag7
ag3
ag4
ag19
ag8
ag20
ag6
ag7
ag3
ag4
ag4
ag5
ag30
ag11
ag7
ag3
ag4
ag19
ag8
ag20
ag8
ag7
ag3
ag4
ag19
ag8
ag20
ag11
ag7
ag3
ag4
ag19
ag8
ag25
ag4
asS'M00052'
p1519
(lp1520
g48
ag3
ag14
ag19
ag8
ag4
ag4
ag49
ag3
ag14
ag19
ag8
ag4
ag11
ag49
ag3
ag4
ag4
ag11
ag20
ag25
ag49
ag3
ag14
ag19
ag5
ag11
ag11
ag50
ag7
ag48
ag3
ag4
ag4
ag11
ag20
ag4
ag49
ag3
ag14
ag8
ag25
ag19
ag19
ag50
ag7
ag3
ag4
ag14
ag11
ag19
ag5
asS'M00053'
p1521
(lp1522
g48
ag3
ag4
ag4
ag25
ag30
ag20
ag49
ag3
ag4
ag4
ag25
ag30
ag25
ag35
ag3
ag4
ag4
ag25
ag30
ag6
ag49
ag3
ag14
ag4
ag8
ag4
ag5
ag35
ag3
ag14
ag4
ag8
ag4
ag8
ag50
ag7
ag48
ag3
ag4
ag4
ag11
ag20
ag4
ag49
ag3
ag14
ag8
ag25
ag19
ag19
ag50
ag7
ag48
ag3
ag4
ag4
ag25
ag30
ag5
ag49
ag3
ag30
ag14
ag6
ag19
ag6
ag50
ag7
ag3
ag4
ag14
ag20
ag11
ag20
ag7
ag3
ag4
ag14
ag25
ag30
ag4
ag7
ag48
ag3
ag4
ag4
ag25
ag6
ag4
ag49
ag3
ag14
ag19
ag11
ag11
ag8
ag50
ag7
ag3
ag4
ag4
ag11
ag20
ag19
ag7
ag3
ag4
ag4
ag11
ag20
ag4
asS'M00050'
p1523
(lp1524
g3
ag4
ag4
ag4
ag8
ag8
ag7
ag3
ag4
ag14
ag11
ag25
ag14
ag7
ag3
ag4
ag4
ag11
ag20
ag30
ag7
ag48
ag3
ag4
ag4
ag11
ag20
ag4
ag49
ag3
ag4
ag4
ag8
ag5
ag19
ag49
ag3
ag14
ag30
ag20
ag4
ag6
ag50
asS'M00051'
p1525
(lp1526
g48
ag3
ag14
ag14
ag25
ag20
ag4
ag49
ag48
ag3
ag14
ag14
ag25
ag20
ag14
ag7
ag3
ag4
ag14
ag20
ag6
ag25
ag50
ag49
ag48
ag48
ag3
ag4
ag14
ag11
ag25
ag20
ag49
ag3
ag4
ag14
ag11
ag25
ag25
ag35
ag3
ag4
ag14
ag11
ag25
ag6
ag50
ag7
ag48
ag3
ag4
ag4
ag6
ag4
ag11
ag35
ag3
ag4
ag4
ag6
ag14
ag4
ag49
ag3
ag4
ag4
ag6
ag4
ag8
ag50
ag7
ag3
ag4
ag14
ag20
ag6
ag25
ag50
ag50
ag7
ag48
ag3
ag4
ag4
ag30
ag30
ag6
ag49
ag3
ag4
ag4
ag30
ag25
ag20
ag49
ag3
ag14
ag5
ag8
ag30
ag8
ag50
ag7
ag48
ag3
ag14
ag19
ag20
ag30
ag14
ag49
ag3
ag4
ag4
ag5
ag6
ag30
ag7
ag3
ag4
ag14
ag25
ag11
ag14
ag50
asS'M00728'
p1527
(lp1528
g3
ag4
ag5
ag6
ag20
ag4
ag7
ag3
ag4
ag5
ag6
ag6
ag30
ag7
ag48
ag3
ag4
ag20
ag5
ag5
ag14
ag49
ag3
ag4
ag19
ag6
ag5
ag19
ag50
asS'M00729'
p1529
(lp1530
g3
ag4
ag19
ag25
ag25
ag19
ag7
ag3
ag4
ag14
ag19
ag25
ag6
ag7
ag3
ag14
ag8
ag25
ag25
ag25
asS'M00720'
p1531
(lp1532
g3
ag14
ag8
ag11
ag11
ag4
ag35
ag3
ag14
ag8
ag11
ag8
ag11
ag35
ag3
ag14
ag30
ag19
ag20
ag4
asS'M00721'
p1533
(lp1534
g48
ag48
ag3
ag4
ag5
ag5
ag5
ag14
ag7
ag3
ag4
ag5
ag6
ag20
ag19
ag50
ag49
ag48
ag3
ag14
ag8
ag4
ag5
ag30
ag7
ag3
ag14
ag8
ag4
ag5
ag19
ag50
ag49
ag48
ag3
ag4
ag5
ag6
ag19
ag5
ag7
ag3
ag4
ag5
ag6
ag6
ag4
ag50
ag50
ag7
ag3
ag4
ag5
ag8
ag4
ag6
ag35
ag3
ag14
ag4
ag4
ag14
ag30
ag35
ag3
ag14
ag4
ag4
ag14
ag14
ag35
ag3
ag14
ag19
ag4
ag14
ag20
ag35
ag3
ag4
ag5
ag30
ag6
ag20
ag35
ag3
ag14
ag30
ag11
ag6
ag30
ag35
ag3
ag14
ag30
ag11
ag6
ag19
asS'M00722'
p1535
(lp1536
g3
ag4
ag5
ag5
ag5
ag14
ag7
ag3
ag4
ag5
ag6
ag20
ag19
ag7
ag3
ag4
ag19
ag5
ag6
ag4
asS'M00723'
p1537
(lp1538
g3
ag4
ag5
ag6
ag6
ag4
ag7
ag3
ag4
ag5
ag6
ag19
ag5
ag7
ag3
ag14
ag8
ag25
ag14
ag20
ag7
ag3
ag14
ag30
ag11
ag5
ag25
asS'M00724'
p1539
(lp1540
g3
ag4
ag5
ag6
ag6
ag4
ag7
ag3
ag4
ag5
ag6
ag19
ag5
ag7
ag3
ag14
ag30
ag11
ag5
ag19
asS'M00725'
p1541
(lp1542
g3
ag14
ag11
ag4
ag5
ag5
ag7
ag3
ag14
ag11
ag4
ag5
ag8
ag7
ag3
ag4
ag19
ag19
ag6
ag5
ag35
ag3
ag4
ag19
ag5
ag19
ag11
ag35
ag3
ag14
ag20
ag14
ag8
ag8
ag35
ag3
ag4
ag19
ag5
ag20
ag4
asS'M00726'
p1543
(lp1544
g3
ag14
ag11
ag4
ag5
ag5
ag7
ag3
ag14
ag11
ag4
ag5
ag8
ag7
ag3
ag14
ag20
ag30
ag4
ag25
asS'M00727'
p1545
(lp1546
g3
ag4
ag5
ag6
ag20
ag4
ag7
ag3
ag4
ag5
ag6
ag6
ag30
ag7
ag3
ag4
ag14
ag20
ag20
ag8
asS'M00203'
p1547
(lp1548
g3
ag14
ag4
ag14
ag11
ag6
ag35
ag3
ag14
ag4
ag14
ag11
ag5
ag35
ag3
ag14
ag4
ag14
ag11
ag8
ag55
ag3
ag14
ag4
ag14
ag11
ag11
asS'M00202'
p1549
(lp1550
g3
ag14
ag4
ag14
ag11
ag30
ag35
ag3
ag14
ag4
ag14
ag11
ag19
ag35
ag3
ag14
ag4
ag14
ag11
ag20
ag55
ag3
ag14
ag4
ag14
ag11
ag25
asS'M00201'
p1551
(lp1552
g3
ag14
ag4
ag30
ag19
ag30
ag35
ag3
ag14
ag4
ag30
ag19
ag19
ag35
ag3
ag14
ag4
ag30
ag19
ag20
ag55
ag48
ag3
ag14
ag4
ag30
ag19
ag25
ag49
ag3
ag14
ag4
ag14
ag14
ag30
ag50
asS'M00200'
p1553
(lp1554
g3
ag14
ag4
ag30
ag30
ag5
ag35
ag3
ag14
ag4
ag30
ag30
ag8
ag35
ag3
ag14
ag4
ag30
ag30
ag11
ag35
ag48
ag3
ag14
ag4
ag14
ag14
ag14
ag49
ag3
ag14
ag4
ag14
ag14
ag30
ag50
asS'M00207'
p1555
(lp1556
g3
ag4
ag30
ag4
ag30
ag5
ag35
ag3
ag4
ag30
ag4
ag30
ag25
ag35
ag3
ag4
ag30
ag4
ag30
ag6
ag35
ag48
ag3
ag14
ag4
ag14
ag14
ag14
ag49
ag3
ag14
ag4
ag14
ag14
ag30
ag50
asS'M00206'
p1557
(lp1558
g3
ag14
ag4
ag30
ag20
ag4
ag35
ag3
ag14
ag4
ag30
ag20
ag14
ag35
ag3
ag14
ag4
ag30
ag20
ag30
ag35
ag3
ag14
ag4
ag14
ag14
ag30
asS'M00205'
p1559
(lp1560
g3
ag14
ag4
ag30
ag4
ag4
ag35
ag3
ag14
ag4
ag30
ag4
ag14
ag35
ag3
ag14
ag4
ag30
ag4
ag30
asS'M00204'
p1561
(lp1562
g3
ag14
ag4
ag30
ag19
ag6
ag35
ag3
ag14
ag4
ag30
ag19
ag5
ag35
ag3
ag14
ag4
ag30
ag19
ag8
ag35
ag3
ag14
ag4
ag14
ag14
ag14
asS'M00209'
p1563
(lp1564
g3
ag4
ag25
ag8
ag20
ag25
ag35
ag3
ag4
ag25
ag8
ag20
ag6
ag35
ag3
ag4
ag25
ag8
ag20
ag5
asS'M00208'
p1565
(lp1566
g3
ag4
ag30
ag4
ag4
ag30
ag35
ag3
ag4
ag30
ag4
ag4
ag14
ag35
ag3
ag4
ag30
ag4
ag4
ag4
asS'M00834'
p1567
(lp1568
g3
ag30
ag14
ag30
ag25
ag20
ag7
ag3
ag30
ag14
ag30
ag25
ag25
ag7
ag3
ag30
ag14
ag30
ag25
ag6
ag7
ag3
ag30
ag14
ag30
ag25
ag5
ag7
ag3
ag30
ag14
ag30
ag25
ag8
asS'M00835'
p1569
(lp1570
g3
ag14
ag19
ag4
ag6
ag19
ag7
ag3
ag30
ag4
ag30
ag6
ag14
ag7
ag3
ag4
ag6
ag11
ag11
ag8
ag7
ag3
ag30
ag4
ag30
ag6
ag4
ag7
ag3
ag30
ag4
ag30
ag6
ag30
ag7
ag3
ag30
ag14
ag14
ag4
ag19
ag7
ag3
ag30
ag4
ag11
ag20
ag4
asS'M00836'
p1571
(lp1572
g3
ag4
ag19
ag5
ag11
ag25
ag7
ag3
ag4
ag30
ag30
ag30
ag20
ag7
ag48
ag3
ag30
ag14
ag6
ag14
ag4
ag35
ag3
ag30
ag14
ag6
ag14
ag14
ag50
ag7
ag3
ag30
ag14
ag6
ag14
ag30
asS'M00837'
p1573
(lp1574
g3
ag30
ag14
ag5
ag8
ag4
ag35
ag3
ag30
ag14
ag5
ag8
ag14
ag7
ag3
ag30
ag14
ag5
ag8
ag30
ag7
ag3
ag30
ag14
ag5
ag8
ag19
ag7
ag3
ag30
ag14
ag5
ag8
ag20
ag7
ag3
ag30
ag14
ag5
ag8
ag25
ag7
ag3
ag30
ag14
ag5
ag8
ag6
asS'M00830'
p1575
(lp1576
g3
ag30
ag4
ag20
ag30
ag30
ag7
ag3
ag30
ag4
ag20
ag30
ag4
ag7
ag3
ag30
ag4
ag20
ag30
ag14
ag7
ag3
ag30
ag4
ag20
ag30
ag19
asS'M00831'
p1577
(lp1578
g3
ag30
ag14
ag30
ag30
ag14
ag7
ag3
ag30
ag14
ag30
ag30
ag30
ag7
ag3
ag30
ag14
ag30
ag30
ag19
ag7
ag3
ag30
ag14
ag30
ag30
ag20
ag7
ag3
ag30
ag14
ag30
ag30
ag25
asS'M00832'
p1579
(lp1580
g3
ag30
ag14
ag14
ag8
ag19
asS'M00833'
p1581
(lp1582
g3
ag30
ag14
ag30
ag25
ag20
ag7
ag3
ag30
ag14
ag30
ag25
ag25
ag7
ag3
ag30
ag14
ag30
ag25
ag6
ag7
ag3
ag30
ag14
ag30
ag25
ag5
ag7
ag3
ag30
ag14
ag30
ag25
ag8
asS'M00838'
p1583
(lp1584
g3
ag30
ag14
ag5
ag8
ag4
ag35
ag3
ag30
ag14
ag5
ag8
ag14
ag7
ag3
ag30
ag14
ag5
ag8
ag30
ag7
ag3
ag30
ag14
ag5
ag8
ag19
ag7
ag3
ag30
ag14
ag5
ag8
ag20
ag7
ag3
ag30
ag14
ag5
ag8
ag25
ag7
ag3
ag30
ag14
ag5
ag8
ag6
as.