(dp0
S'map01010'
p1
S'Overview of biosynthetic pathways'
p2
sS'map00195'
p3
S'Photosynthesis'
p4
sS'map04330'
p5
S'Notch signaling pathway'
p6
sS'map07221'
p7
S'Nicotinic cholinergic receptor antagonists'
p8
sS'map00650'
p9
S'Butanoate metabolism'
p10
sS'map07218'
p11
S'HIV protease inhibitors'
p12
sS'map00710'
p13
S'Carbon fixation in photosynthetic organisms'
p14
sS'map00300'
p15
S'Lysine biosynthesis'
p16
sS'map07213'
p17
S'Dopamine receptor agonists/antagonists'
p18
sS'map07228'
p19
S'Eicosanoid receptor agonists/antagonists'
p20
sS'map07025'
p21
S'Quinolines'
p22
sS'map07024'
p23
S'HMG-CoA reductase inhibitors'
p24
sS'map07027'
p25
S'Antidepressants'
p26
sS'map07026'
p27
S'Antifungal agents'
p28
sS'map07021'
p29
S'Aminoglycosides'
p30
sS'map07020'
p31
S'Macrolides and ketolides'
p32
sS'map07023'
p33
S'Rifamycins'
p34
sS'map07029'
p35
S'Phenothiazines'
p36
sS'map07028'
p37
S'Antipsychotics'
p38
sS'map05120'
p39
S'Epithelial cell signaling in Helicobacter pylori infection'
p40
sS'map00970'
p41
S'Aminoacyl-tRNA biosynthesis'
p42
sS'map00565'
p43
S'Ether lipid metabolism'
p44
sS'map04650'
p45
S'Natural killer cell mediated cytotoxicity'
p46
sS'map00270'
p47
S'Cysteine and methionine metabolism'
p48
sS'map04658'
p49
S'Th1 and Th2 cell differentiation'
p50
sS'map04662'
p51
S'B cell receptor signaling pathway'
p52
sS'map00563'
p53
S'Glycosylphosphatidylinositol (GPI)-anchor biosynthesis'
p54
sS'map07110'
p55
S'Benzoic acid family'
p56
sS'map07112'
p57
S'1,2-Diphenyl substitution family'
p58
sS'map07114'
p59
S'Naphthalene family'
p60
sS'map07117'
p61
S'Benzodiazepine family'
p62
sS'map07050'
p63
S'Antirheumatics - DMARDs and biological agents'
p64
sS'map07051'
p65
S'Antidiabetics'
p66
sS'map07052'
p67
S'Antidyslipidemic agents'
p68
sS'map07053'
p69
S'Anti-HIV agents'
p70
sS'map07054'
p71
S'Antiglaucoma agents'
p72
sS'map07055'
p73
S'Sulfonamide derivatives - overview'
p74
sS'map07056'
p75
S'Agents for Alzheimer-type dementia'
p76
sS'map04728'
p77
S'Dopaminergic synapse'
p78
sS'map04727'
p79
S'GABAergic synapse'
p80
sS'map04726'
p81
S'Serotonergic synapse'
p82
sS'map04725'
p83
S'Cholinergic synapse'
p84
sS'map04724'
p85
S'Glutamatergic synapse'
p86
sS'map04723'
p87
S'Retrograde endocannabinoid signaling'
p88
sS'map04722'
p89
S'Neurotrophin signaling pathway'
p90
sS'map04721'
p91
S'Synaptic vesicle cycle'
p92
sS'map04720'
p93
S'Long-term potentiation'
p94
sS'map00051'
p95
S'Fructose and mannose metabolism'
p96
sS'map00053'
p97
S'Ascorbate and aldarate metabolism'
p98
sS'map00052'
p99
S'Galactose metabolism'
p100
sS'map05416'
p101
S'Viral myocarditis'
p102
sS'map05414'
p103
S'Dilated cardiomyopathy'
p104
sS'map05412'
p105
S'Arrhythmogenic right ventricular cardiomyopathy (ARVC)'
p106
sS'map05410'
p107
S'Hypertrophic cardiomyopathy (HCM)'
p108
sS'map03010'
p109
S'Ribosome'
p110
sS'map04978'
p111
S'Mineral absorption'
p112
sS'map00280'
p113
S'Valine, leucine and isoleucine degradation'
p114
sS'map00281'
p115
S'Geraniol degradation'
p116
sS'map04972'
p117
S'Pancreatic secretion'
p118
sS'map04973'
p119
S'Carbohydrate digestion and absorption'
p120
sS'map02024'
p121
S'Quorum sensing'
p122
sS'map02025'
p123
S'Biofilm formation - Pseudomonas aeruginosa'
p124
sS'map04976'
p125
S'Bile secretion'
p126
sS'map04977'
p127
S'Vitamin digestion and absorption'
p128
sS'map02020'
p129
S'Two-component system'
p130
sS'map04975'
p131
S'Fat digestion and absorption'
p132
sS'map04150'
p133
S'mTOR signaling pathway'
p134
sS'map04151'
p135
S'PI3K-Akt signaling pathway'
p136
sS'map04152'
p137
S'AMPK signaling pathway'
p138
sS'map05215'
p139
S'Prostate cancer'
p140
sS'map03430'
p141
S'Mismatch repair'
p142
sS'map04270'
p143
S'Vascular smooth muscle contraction'
p144
sS'map04060'
p145
S'Cytokine-cytokine receptor interaction'
p146
sS'map04370'
p147
S'VEGF signaling pathway'
p148
sS'map00020'
p149
S'Citrate cycle (TCA cycle)'
p150
sS'map04072'
p151
S'Phospholipase D signaling pathway'
p152
sS'map00750'
p153
S'Vitamin B6 metabolism'
p154
sS'map04070'
p155
S'Phosphatidylinositol signaling system'
p156
sS'map04075'
p157
S'Plant hormone signal transduction'
p158
sS'map05211'
p159
S'Renal cell carcinoma'
p160
sS'map00450'
p161
S'Selenocompound metabolism'
p162
sS'map05212'
p163
S'Pancreatic cancer'
p164
sS'map00590'
p165
S'Arachidonic acid metabolism'
p166
sS'map00591'
p167
S'Linoleic acid metabolism'
p168
sS'map00592'
p169
S'alpha-Linolenic acid metabolism'
p170
sS'map05213'
p171
S'Endometrial cancer'
p172
sS'map04380'
p173
S'Osteoclast differentiation'
p174
sS'map01120'
p175
S'Microbial metabolism in diverse environments'
p176
sS'map05218'
p177
S'Melanoma'
p178
sS'map05219'
p179
S'Bladder cancer'
p180
sS'map00930'
p181
S'Caprolactam degradation'
p182
sS'map00626'
p183
S'Naphthalene degradation'
p184
sS'map00627'
p185
S'Aminobenzoate degradation'
p186
sS'map00624'
p187
S'Polycyclic aromatic hydrocarbon degradation'
p188
sS'map00625'
p189
S'Chloroalkane and chloroalkene degradation'
p190
sS'map00622'
p191
S'Xylene degradation'
p192
sS'map00623'
p193
S'Toluene degradation'
p194
sS'map00620'
p195
S'Pyruvate metabolism'
p196
sS'map00621'
p197
S'Dioxin degradation'
p198
sS'map01052'
p199
S'Type I polyketide structures'
p200
sS'map01053'
p201
S'Biosynthesis of siderophore group nonribosomal peptides'
p202
sS'map01051'
p203
S'Biosynthesis of ansamycins'
p204
sS'map01056'
p205
S'Biosynthesis of type II polyketide backbone'
p206
sS'map01057'
p207
S'Biosynthesis of type II polyketide products'
p208
sS'map01054'
p209
S'Nonribosomal peptide structures'
p210
sS'map01055'
p211
S'Biosynthesis of vancomycin group antibiotics'
p212
sS'map01058'
p213
S'Acridone alkaloid biosynthesis'
p214
sS'map05214'
p215
S'Glioma'
p216
sS'map01220'
p217
S'Degradation of aromatic compounds'
p218
sS'map05216'
p219
S'Thyroid cancer'
p220
sS'map05217'
p221
S'Basal cell carcinoma'
p222
sS'map00231'
p223
S'Puromycin biosynthesis'
p224
sS'map00230'
p225
S'Purine metabolism'
p226
sS'map04750'
p227
S'Inflammatory mediator regulation of TRP channels'
p228
sS'map00232'
p229
S'Caffeine metabolism'
p230
sS'map00330'
p231
S'Arginine and proline metabolism'
p232
sS'map00331'
p233
S'Clavulanic acid biosynthesis'
p234
sS'map00332'
p235
S'Carbapenem biosynthesis'
p236
sS'map07043'
p237
S'Antineoplastics - hormones'
p238
sS'map07018'
p239
S'Sulfonamide derivatives - hypoglycemic agents'
p240
sS'map07019'
p241
S'Tetracyclines'
p242
sS'map07042'
p243
S'Antineoplastics - agents from natural products'
p244
sS'map07014'
p245
S'Quinolones'
p246
sS'map07015'
p247
S'Local analgesics'
p248
sS'map07016'
p249
S'Sulfonamide derivatives - sulfa drugs'
p250
sS'map07017'
p251
S'Sulfonamide derivatives - diuretics'
p252
sS'map07011'
p253
S'Penicillins'
p254
sS'map07012'
p255
S'Cephalosporins - parenteral agents'
p256
sS'map07013'
p257
S'Cephalosporins - oral agents'
p258
sS'map07040'
p259
S'Antineoplastics - alkylating agents'
p260
sS'map07234'
p261
S'Neurotransmitter transporter inhibitors'
p262
sS'map07235'
p263
S'N-Metyl-D-aspartic acid receptor antagonists'
p264
sS'map00480'
p265
S'Glutathione metabolism'
p266
sS'map07230'
p267
S'GABA-A receptor agonists/antagonists'
p268
sS'map07231'
p269
S'Sodium channel blocking drugs'
p270
sS'map07232'
p271
S'Potassium channel blocking and opening drugs'
p272
sS'map07233'
p273
S'Ion transporter inhibitors'
p274
sS'map00521'
p275
S'Streptomycin biosynthesis'
p276
sS'map00520'
p277
S'Amino sugar and nucleotide sugar metabolism'
p278
sS'map00523'
p279
S'Polyketide sugar unit biosynthesis'
p280
sS'map00522'
p281
S'Biosynthesis of 12-, 14- and 16-membered macrolides'
p282
sS'map00525'
p283
S'Acarbose and validamycin biosynthesis'
p284
sS'map00524'
p285
S'Neomycin, kanamycin and gentamicin biosynthesis'
p286
sS'map00240'
p287
S'Pyrimidine metabolism'
p288
sS'map02060'
p289
S'Phosphotransferase system (PTS)'
p290
sS'map05210'
p291
S'Colorectal cancer'
p292
sS'map04614'
p293
S'Renin-angiotensin system'
p294
sS'map04612'
p295
S'Antigen processing and presentation'
p296
sS'map04611'
p297
S'Platelet activation'
p298
sS'map04610'
p299
S'Complement and coagulation cascades'
p300
sS'map03040'
p301
S'Spliceosome'
p302
sS'map00061'
p303
S'Fatty acid biosynthesis'
p304
sS'map00062'
p305
S'Fatty acid elongation'
p306
sS'map00791'
p307
S'Atrazine degradation'
p308
sS'map00140'
p309
S'Steroid hormone biosynthesis'
p310
sS'map00410'
p311
S'beta-Alanine metabolism'
p312
sS'map04921'
p313
S'Oxytocin signaling pathway'
p314
sS'map04920'
p315
S'Adipocytokine signaling pathway'
p316
sS'map04923'
p317
S'Regulation of lipolysis in adipocytes'
p318
sS'map04922'
p319
S'Glucagon signaling pathway'
p320
sS'map04925'
p321
S'Aldosterone synthesis and secretion'
p322
sS'map04924'
p323
S'Renin secretion'
p324
sS'map04530'
p325
S'Tight junction'
p326
sS'map03460'
p327
S'Fanconi anemia pathway'
p328
sS'map00660'
p329
S'C5-Branched dibasic acid metabolism'
p330
sS'map04320'
p331
S'Dorso-ventral axis formation'
p332
sS'map00460'
p333
S'Cyanoamino acid metabolism'
p334
sS'map05140'
p335
S'Leishmaniasis'
p336
sS'map05142'
p337
S'Chagas disease (American trypanosomiasis)'
p338
sS'map05143'
p339
S'African trypanosomiasis'
p340
sS'map05144'
p341
S'Malaria'
p342
sS'map01501'
p343
S'beta-Lactam resistance'
p344
sS'map01502'
p345
S'Vancomycin resistance'
p346
sS'map01503'
p347
S'Cationic antimicrobial peptide (CAMP) resistance'
p348
sS'map04810'
p349
S'Regulation of actin cytoskeleton'
p350
sS'map00960'
p351
S'Tropane, piperidine and pyridine alkaloid biosynthesis'
p352
sS'map00965'
p353
S'Betalain biosynthesis'
p354
sS'map00966'
p355
S'Glucosinolate biosynthesis'
p356
sS'map05134'
p357
S'Legionellosis'
p358
sS'map05131'
p359
S'Shigellosis'
p360
sS'map05130'
p361
S'Pathogenic Escherichia coli infection'
p362
sS'map05133'
p363
S'Pertussis'
p364
sS'map05132'
p365
S'Salmonella infection'
p366
sS'map05034'
p367
S'Alcoholism'
p368
sS'map05030'
p369
S'Cocaine addiction'
p370
sS'map05031'
p371
S'Amphetamine addiction'
p372
sS'map05032'
p373
S'Morphine addiction'
p374
sS'map05033'
p375
S'Nicotine addiction'
p376
sS'map04666'
p377
S'Fc gamma R-mediated phagocytosis'
p378
sS'map00564'
p379
S'Glycerophospholipid metabolism'
p380
sS'map04664'
p381
S'Fc epsilon RI signaling pathway'
p382
sS'map05323'
p383
S'Rheumatoid arthritis'
p384
sS'map00561'
p385
S'Glycerolipid metabolism'
p386
sS'map04660'
p387
S'T cell receptor signaling pathway'
p388
sS'map00562'
p389
S'Inositol phosphate metabolism'
p390
sS'map01210'
p391
S'2-Oxocarboxylic acid metabolism'
p392
sS'map01212'
p393
S'Fatty acid metabolism'
p394
sS'map04668'
p395
S'TNF signaling pathway'
p396
sS'map00363'
p397
S'Bisphenol degradation'
p398
sS'map00362'
p399
S'Benzoate degradation'
p400
sS'map00361'
p401
S'Chlorocyclohexane and chlorobenzene degradation'
p402
sS'map00360'
p403
S'Phenylalanine metabolism'
p404
sS'map00365'
p405
S'Furfural degradation'
p406
sS'map00364'
p407
S'Fluorobenzoate degradation'
p408
sS'map05320'
p409
S'Autoimmune thyroid disease'
p410
sS'map04712'
p411
S'Circadian rhythm - plant'
p412
sS'map04713'
p413
S'Circadian entrainment'
p414
sS'map04710'
p415
S'Circadian rhythm'
p416
sS'map04711'
p417
S'Circadian rhythm - fly'
p418
sS'map07047'
p419
S'Osteoporosis drugs'
p420
sS'map07046'
p421
S'Immunosuppressive agents'
p422
sS'map07045'
p423
S'Antineoplastics - protein kinases inhibitors'
p424
sS'map07044'
p425
S'Antiviral agents'
p426
sS'map07049'
p427
S'Antithrombosis agents'
p428
sS'map07048'
p429
S'Antimigraines'
p430
sS'map05310'
p431
S'Asthma'
p432
sS'map00510'
p433
S'N-Glycan biosynthesis'
p434
sS'map00511'
p435
S'Other glycan degradation'
p436
sS'map00512'
p437
S'Mucin type O-glycan biosynthesis'
p438
sS'map00513'
p439
S'Various types of N-glycan biosynthesis'
p440
sS'map00514'
p441
S'Other types of O-glycan biosynthesis'
p442
sS'map00100'
p443
S'Steroid biosynthesis'
p444
sS'map02030'
p445
S'Bacterial chemotaxis'
p446
sS'map00290'
p447
S'Valine, leucine and isoleucine biosynthesis'
p448
sS'map04964'
p449
S'Proximal tubule bicarbonate reclamation'
p450
sS'map04966'
p451
S'Collecting duct acid secretion'
p452
sS'map04961'
p453
S'Endocrine and other factor-regulated calcium reabsorption'
p454
sS'map04960'
p455
S'Aldosterone-regulated sodium reabsorption'
p456
sS'map04962'
p457
S'Vasopressin-regulated water reabsorption'
p458
sS'map04146'
p459
S'Peroxisome'
p460
sS'map04145'
p461
S'Phagosome'
p462
sS'map04144'
p463
S'Endocytosis'
p464
sS'map00190'
p465
S'Oxidative phosphorylation'
p466
sS'map04142'
p467
S'Lysosome'
p468
sS'map04141'
p469
S'Protein processing in endoplasmic reticulum'
p470
sS'map04140'
p471
S'Autophagy'
p472
sS'map03420'
p473
S'Nucleotide excision repair'
p474
sS'map03030'
p475
S'DNA replication'
p476
sS'map04360'
p477
S'Axon guidance'
p478
sS'map00030'
p479
S'Pentose phosphate pathway'
p480
sS'map00196'
p481
S'Photosynthesis - antenna proteins'
p482
sS'map04918'
p483
S'Thyroid hormone synthesis'
p484
sS'map04919'
p485
S'Thyroid hormone signaling pathway'
p486
sS'map04910'
p487
S'Insulin signaling pathway'
p488
sS'map04911'
p489
S'Insulin secretion'
p490
sS'map04912'
p491
S'GnRH signaling pathway'
p492
sS'map04913'
p493
S'Ovarian steroidogenesis'
p494
sS'map04914'
p495
S'Progesterone-mediated oocyte maturation'
p496
sS'map04915'
p497
S'Estrogen signaling pathway'
p498
sS'map04916'
p499
S'Melanogenesis'
p500
sS'map04917'
p501
S'Prolactin signaling pathway'
p502
sS'map04213'
p503
S'Longevity regulating pathway - multiple species'
p504
sS'map04212'
p505
S'Longevity regulating pathway - worm'
p506
sS'map04211'
p507
S'Longevity regulating pathway'
p508
sS'map04210'
p509
S'Apoptosis'
p510
sS'map04215'
p511
S'Apoptosis - multiple species'
p512
sS'map04214'
p513
S'Apoptosis - fly'
p514
sS'map00630'
p515
S'Glyoxylate and dicarboxylate metabolism'
p516
sS'map00633'
p517
S'Nitrotoluene degradation'
p518
sS'map00920'
p519
S'Sulfur metabolism'
p520
sS'map00730'
p521
S'Thiamine metabolism'
p522
sS'map01040'
p523
S'Biosynthesis of unsaturated fatty acids'
p524
sS'map05206'
p525
S'MicroRNAs in cancer'
p526
sS'map05205'
p527
S'Proteoglycans in cancer'
p528
sS'map05204'
p529
S'Chemical carcinogenesis'
p530
sS'map05203'
p531
S'Viral carcinogenesis'
p532
sS'map05202'
p533
S'Transcriptional misregulation in cancer'
p534
sS'map05200'
p535
S'Pathways in cancer'
p536
sS'map00950'
p537
S'Isoquinoline alkaloid biosynthesis'
p538
sS'map01130'
p539
S'Biosynthesis of antibiotics'
p540
sS'map05100'
p541
S'Bacterial invasion of epithelial cells'
p542
sS'map07227'
p543
S'Histamine H2/H3 receptor agonists/antagonists'
p544
sS'map07226'
p545
S'Progesterone, androgen and estrogen receptor agonists/antagonists'
p546
sS'map07225'
p547
S'Glucocorticoid and meneralocorticoid receptor agonists/antagonists'
p548
sS'map07224'
p549
S'Opioid receptor agonists/antagonists'
p550
sS'map07223'
p551
S'Retinoic acid receptor (RAR) and retinoid X receptor (RXR) agonists/antagonists'
p552
sS'map07222'
p553
S'Peroxisome proliferator-activated receptor (PPAR) agonists'
p554
sS'map04130'
p555
S'SNARE interactions in vesicular transport'
p556
sS'map07220'
p557
S'Cholinergic and anticholinergic drugs'
p558
sS'map05332'
p559
S'Graft-versus-host disease'
p560
sS'map05330'
p561
S'Allograft rejection'
p562
sS'map00550'
p563
S'Peptidoglycan biosynthesis'
p564
sS'map07229'
p565
S'Angiotensin receptor and endothelin receptor antagonists'
p566
sS'map04139'
p567
S'Mitophagy - yeast'
p568
sS'map00253'
p569
S'Tetracycline biosynthesis'
p570
sS'map00250'
p571
S'Alanine, aspartate and glutamate metabolism'
p572
sS'map00254'
p573
S'Aflatoxin biosynthesis'
p574
sS'map00740'
p575
S'Riboflavin metabolism'
p576
sS'map04622'
p577
S'RIG-I-like receptor signaling pathway'
p578
sS'map04623'
p579
S'Cytosolic DNA-sensing pathway'
p580
sS'map04620'
p581
S'Toll-like receptor signaling pathway'
p582
sS'map04621'
p583
S'NOD-like receptor signaling pathway'
p584
sS'map04626'
p585
S'Plant-pathogen interaction'
p586
sS'map04624'
p587
S'Toll and Imd signaling pathway'
p588
sS'map04740'
p589
S'Olfactory transduction'
p590
sS'map04742'
p591
S'Taste transduction'
p592
sS'map04745'
p593
S'Phototransduction - fly'
p594
sS'map04744'
p595
S'Phototransduction'
p596
sS'map03070'
p597
S'Bacterial secretion system'
p598
sS'map04550'
p599
S'Signaling pathways regulating pluripotency of stem cells'
p600
sS'map00780'
p601
S'Biotin metabolism'
p602
sS'map07057'
p603
S'Antiparkinsonian agents'
p604
sS'map00785'
p605
S'Lipoic acid metabolism'
p606
sS'map00073'
p607
S'Cutin, suberine and wax biosynthesis'
p608
sS'map00072'
p609
S'Synthesis and degradation of ketone bodies'
p610
sS'map00071'
p611
S'Fatty acid degradation'
p612
sS'map05224'
p613
S'Breast cancer'
p614
sS'map05221'
p615
S'Acute myeloid leukemia'
p616
sS'map05220'
p617
S'Chronic myeloid leukemia'
p618
sS'map04950'
p619
S'Maturity onset diabetes of the young'
p620
sS'map05223'
p621
S'Non-small cell lung cancer'
p622
sS'map05222'
p623
S'Small cell lung cancer'
p624
sS'map04520'
p625
S'Adherens junction'
p626
sS'map00790'
p627
S'Folate biosynthesis'
p628
sS'map05150'
p629
S'Staphylococcus aureus infection'
p630
sS'map03410'
p631
S'Base excision repair'
p632
sS'map00670'
p633
S'One carbon pool by folate'
p634
sS'map04310'
p635
S'Wnt signaling pathway'
p636
sS'map00770'
p637
S'Pantothenate and CoA biosynthesis'
p638
sS'map00473'
p639
S'D-Alanine metabolism'
p640
sS'map00472'
p641
S'D-Arginine and D-ornithine metabolism'
p642
sS'map00471'
p643
S'D-Glutamine and D-glutamate metabolism'
p644
sS'map01100'
p645
S'Metabolic pathways'
p646
sS'map05152'
p647
S'Tuberculosis'
p648
sS'map00984'
p649
S'Steroid degradation'
p650
sS'map00983'
p651
S'Drug metabolism - other enzymes'
p652
sS'map00982'
p653
S'Drug metabolism - cytochrome P450'
p654
sS'map00981'
p655
S'Insect hormone biosynthesis'
p656
sS'map00980'
p657
S'Metabolism of xenobiotics by cytochrome P450'
p658
sS'map07211'
p659
S'Serotonin receptor agonists/antagonists'
p660
sS'map00600'
p661
S'Sphingolipid metabolism'
p662
sS'map00601'
p663
S'Glycosphingolipid biosynthesis - lacto and neolacto series'
p664
sS'map00603'
p665
S'Glycosphingolipid biosynthesis - globo and isoglobo series'
p666
sS'map00604'
p667
S'Glycosphingolipid biosynthesis - ganglio series'
p668
sS'map01070'
p669
S'Biosynthesis of plant hormones'
p670
sS'map05020'
p671
S'Prion diseases'
p672
sS'map01200'
p673
S'Carbon metabolism'
p674
sS'map00350'
p675
S'Tyrosine metabolism'
p676
sS'map00351'
p677
S'DDT degradation'
p678
sS'map03320'
p679
S'PPAR signaling pathway'
p680
sS'map04514'
p681
S'Cell adhesion molecules (CAMs)'
p682
sS'map04510'
p683
S'Focal adhesion'
p684
sS'map04512'
p685
S'ECM-receptor interaction'
p686
sS'map00130'
p687
S'Ubiquinone and other terpenoid-quinone biosynthesis'
p688
sS'map00500'
p689
S'Starch and sucrose metabolism'
p690
sS'map02040'
p691
S'Flagellar assembly'
p692
sS'map04670'
p693
S'Leukocyte transendothelial migration'
p694
sS'map04672'
p695
S'Intestinal immune network for IgA production'
p696
sS'map04970'
p697
S'Salivary secretion'
p698
sS'map00533'
p699
S'Glycosaminoglycan biosynthesis - keratan sulfate'
p700
sS'map04971'
p701
S'Gastric acid secretion'
p702
sS'map03020'
p703
S'RNA polymerase'
p704
sS'map04350'
p705
S'TGF-beta signaling pathway'
p706
sS'map03022'
p707
S'Basal transcription factors'
p708
sS'map03450'
p709
S'Non-homologous end-joining'
p710
sS'map04974'
p711
S'Protein digestion and absorption'
p712
sS'map00680'
p713
S'Methane metabolism'
p714
sS'map00430'
p715
S'Taurine and hypotaurine metabolism'
p716
sS'map03440'
p717
S'Homologous recombination'
p718
sS'map00640'
p719
S'Propanoate metabolism'
p720
sS'map00642'
p721
S'Ethylbenzene degradation'
p722
sS'map00643'
p723
S'Styrene degradation'
p724
sS'map00720'
p725
S'Carbon fixation pathways in prokaryotes'
p726
sS'map00310'
p727
S'Lysine degradation'
p728
sS'map00311'
p729
S'Penicillin and cephalosporin biosynthesis'
p730
sS'map07032'
p731
S'Hypnotics'
p732
sS'map07033'
p733
S'Anticonvulsants'
p734
sS'map07030'
p735
S'Anxiolytics'
p736
sS'map07031'
p737
S'Butyrophenones'
p738
sS'map07036'
p739
S'Calcium channel blocking drugs'
p740
sS'map07037'
p741
S'Antiarrhythmic drugs'
p742
sS'map07034'
p743
S'Eicosanoids'
p744
sS'map07035'
p745
S'Prostaglandins'
p746
sS'map07038'
p747
S'Antiulcer drugs'
p748
sS'map07039'
p749
S'Opioid analgesics'
p750
sS'map00860'
p751
S'Porphyrin and chlorophyll metabolism'
p752
sS'map00943'
p753
S'Isoflavonoid biosynthesis'
p754
sS'map00942'
p755
S'Anthocyanin biosynthesis'
p756
sS'map00941'
p757
S'Flavonoid biosynthesis'
p758
sS'map00940'
p759
S'Phenylpropanoid biosynthesis'
p760
sS'map00945'
p761
S'Stilbenoid, diarylheptanoid and gingerol biosynthesis'
p762
sS'map00944'
p763
S'Flavone and flavonol biosynthesis'
p764
sS'map05111'
p765
S'Biofilm formation - Vibrio cholerae'
p766
sS'map05110'
p767
S'Vibrio cholerae infection'
p768
sS'map04640'
p769
S'Hematopoietic cell lineage'
p770
sS'map00540'
p771
S'Lipopolysaccharide biosynthesis'
p772
sS'map00260'
p773
S'Glycine, serine and threonine metabolism'
p774
sS'map00261'
p775
S'Monobactam biosynthesis'
p776
sS'map00380'
p777
S'Tryptophan metabolism'
p778
sS'map04630'
p779
S'Jak-STAT signaling pathway'
p780
sS'map05230'
p781
S'Central carbon metabolism in cancer'
p782
sS'map05231'
p783
S'Choline metabolism in cancer'
p784
sS'map04730'
p785
S'Long-term depression'
p786
sS'map04392'
p787
S'Hippo signaling pathway -multiple species'
p788
sS'map03060'
p789
S'Protein export'
p790
sS'map04390'
p791
S'Hippo signaling pathway'
p792
sS'map04391'
p793
S'Hippo signaling pathway - fly'
p794
sS'map04015'
p795
S'Rap1 signaling pathway'
p796
sS'map04014'
p797
S'Ras signaling pathway'
p798
sS'map00040'
p799
S'Pentose and glucuronate interconversions'
p800
sS'map04540'
p801
S'Gap junction'
p802
sS'map04011'
p803
S'MAPK signaling pathway - yeast'
p804
sS'map04010'
p805
S'MAPK signaling pathway'
p806
sS'map04013'
p807
S'MAPK signaling pathway - fly'
p808
sS'map04012'
p809
S'ErbB signaling pathway'
p810
sS'map04071'
p811
S'Sphingolipid signaling pathway'
p812
sS'map05321'
p813
S'Inflammatory bowel disease (IBD)'
p814
sS'map03008'
p815
S'Ribosome biogenesis in eukaryotes'
p816
sS'map02010'
p817
S'ABC transporters'
p818
sS'map04080'
p819
S'Neuroactive ligand-receptor interaction'
p820
sS'map07219'
p821
S'Cyclooxygenase inhibitors'
p822
sS'map04940'
p823
S'Type I diabetes mellitus'
p824
sS'map07212'
p825
S'Histamine H1 receptor antagonists'
p826
sS'map04120'
p827
S'Ubiquitin mediated proteolysis'
p828
sS'map04122'
p829
S'Sulfur relay system'
p830
sS'map07216'
p831
S'Catecholamine transferase inhibitors'
p832
sS'map07217'
p833
S'Renin-angiotensin system inhibitors'
p834
sS'map07214'
p835
S'beta-Adrenergic receptor agonists/antagonists'
p836
sS'map07215'
p837
S'alpha-Adrenergic receptor agonists/antagonists'
p838
sS'map05322'
p839
S'Systemic lupus erythematosus'
p840
sS'map04341'
p841
S'Hedgehog signaling pathway - fly'
p842
sS'map04260'
p843
S'Cardiac muscle contraction'
p844
sS'map04261'
p845
S'Adrenergic signaling in cardiomyocytes'
p846
sS'map04068'
p847
S'FoxO signaling pathway'
p848
sS'map03013'
p849
S'RNA transport'
p850
sS'map03015'
p851
S'mRNA surveillance pathway'
p852
sS'map03018'
p853
S'RNA degradation'
p854
sS'map04062'
p855
S'Chemokine signaling pathway'
p856
sS'map04064'
p857
S'NF-kappa B signaling pathway'
p858
sS'map04066'
p859
S'HIF-1 signaling pathway'
p860
sS'map00760'
p861
S'Nicotinate and nicotinamide metabolism'
p862
sS'map00440'
p863
S'Phosphonate and phosphinate metabolism'
p864
sS'map07041'
p865
S'Antineoplastics - antimetabolic agents'
p866
sS'map05166'
p867
S'HTLV-I infection'
p868
sS'map05164'
p869
S'Influenza A'
p870
sS'map01110'
p871
S'Biosynthesis of secondary metabolites'
p872
sS'map05162'
p873
S'Measles'
p874
sS'map05160'
p875
S'Hepatitis C'
p876
sS'map05161'
p877
S'Hepatitis B'
p878
sS'map05168'
p879
S'Herpes simplex infection'
p880
sS'map05169'
p881
S'Epstein-Barr virus infection'
p882
sS'map05145'
p883
S'Toxoplasmosis'
p884
sS'map05146'
p885
S'Amoebiasis'
p886
sS'map00909'
p887
S'Sesquiterpenoid and triterpenoid biosynthesis'
p888
sS'map00908'
p889
S'Zeatin biosynthesis'
p890
sS'map00906'
p891
S'Carotenoid biosynthesis'
p892
sS'map00905'
p893
S'Brassinosteroid biosynthesis'
p894
sS'map00904'
p895
S'Diterpenoid biosynthesis'
p896
sS'map00903'
p897
S'Limonene and pinene degradation'
p898
sS'map00902'
p899
S'Monoterpenoid biosynthesis'
p900
sS'map00901'
p901
S'Indole alkaloid biosynthesis'
p902
sS'map00900'
p903
S'Terpenoid backbone biosynthesis'
p904
sS'map05012'
p905
S"Parkinson's disease"
p906
sS'map05010'
p907
S"Alzheimer's disease"
p908
sS'map05016'
p909
S"Huntington's disease"
p910
sS'map05014'
p911
S'Amyotrophic lateral sclerosis (ALS)'
p912
sS'map01066'
p913
S'Biosynthesis of alkaloids derived from terpenoid and polyketide'
p914
sS'map01065'
p915
S'Biosynthesis of alkaloids derived from histidine and purine'
p916
sS'map01064'
p917
S'Biosynthesis of alkaloids derived from ornithine, lysine and nicotinic acid'
p918
sS'map01063'
p919
S'Biosynthesis of alkaloids derived from shikimate pathway'
p920
sS'map01062'
p921
S'Biosynthesis of terpenoids and steroids'
p922
sS'map01061'
p923
S'Biosynthesis of phenylpropanoids'
p924
sS'map01060'
p925
S'Biosynthesis of plant secondary metabolites'
p926
sS'map00220'
p927
S'Arginine biosynthesis'
p928
sS'map04016'
p929
S'MAPK signaling pathway - plant'
p930
sS'map00340'
p931
S'Histidine metabolism'
p932
sS'map01230'
p933
S'Biosynthesis of amino acids'
p934
sS'map00830'
p935
S'Retinol metabolism'
p936
sS'map01522'
p937
S'Endocrine resistance'
p938
sS'map01523'
p939
S'Antifolate resistance'
p940
sS'map01521'
p941
S'EGFR tyrosine kinase inhibitor resistance'
p942
sS'map01524'
p943
S'Platinum drug resistance'
p944
sS'map04110'
p945
S'Cell cycle'
p946
sS'map04111'
p947
S'Cell cycle - yeast'
p948
sS'map04112'
p949
S'Cell cycle - Caulobacter'
p950
sS'map04113'
p951
S'Meiosis - yeast'
p952
sS'map04114'
p953
S'Oocyte meiosis'
p954
sS'map04115'
p955
S'p53 signaling pathway'
p956
sS'map00121'
p957
S'Secondary bile acid biosynthesis'
p958
sS'map00120'
p959
S'Primary bile acid biosynthesis'
p960
sS'map00534'
p961
S'Glycosaminoglycan biosynthesis - heparan sulfate / heparin'
p962
sS'map00532'
p963
S'Glycosaminoglycan biosynthesis - chondroitin sulfate / dermatan sulfate'
p964
sS'map00910'
p965
S'Nitrogen metabolism'
p966
sS'map00531'
p967
S'Glycosaminoglycan degradation'
p968
sS'map05340'
p969
S'Primary immunodeficiency'
p970
sS'map03050'
p971
S'Proteasome'
p972
sS'map04340'
p973
S'Hedgehog signaling pathway'
p974
sS'map04024'
p975
S'cAMP signaling pathway'
p976
sS'map00010'
p977
S'Glycolysis / Gluconeogenesis'
p978
sS'map04020'
p979
S'Calcium signaling pathway'
p980
sS'map04022'
p981
S'cGMP-PKG signaling pathway'
p982
sS'map00402'
p983
S'Benzoxazinoid biosynthesis'
p984
sS'map00403'
p985
S'Indole diterpene alkaloid biosynthesis'
p986
sS'map00400'
p987
S'Phenylalanine, tyrosine and tryptophan biosynthesis'
p988
sS'map00401'
p989
S'Novobiocin biosynthesis'
p990
sS'map00404'
p991
S'Staurosporine biosynthesis'
p992
sS'map04932'
p993
S'Non-alcoholic fatty liver disease (NAFLD)'
p994
sS'map04933'
p995
S'AGE-RAGE signaling pathway in diabetic complications'
p996
sS'map04930'
p997
S'Type II diabetes mellitus'
p998
sS'map04931'
p999
S'Insulin resistance'
p1000
s.