(dp0
S'M00474'
p1
S'K07677 K07676 K07687'
p2
sS'M00475'
p3
S'K07678 K07689'
p4
sS'M00476'
p5
S'K07680 K07691'
p6
sS'M00477'
p7
S'K07679 K07690'
p8
sS'M00470'
p9
S'K11633 K11634'
p10
sS'M00471'
p11
S'K07673 K07684'
p12
sS'M00472'
p13
S'K07674 K07685'
p14
sS'M00473'
p15
S'K07675 K07686'
p16
sS'M00478'
p17
S'K07777 K07692'
p18
sS'M00479'
p19
S'K07778 K07693'
p20
sS'M00276'
p21
S'K02793+K02794+K02795+K02796'
p22
sS'M00277'
p23
S'K02744+K02745+K02746+K02747'
p24
sS'M00274'
p25
S'K02798+K02799+K02800'
p26
sS'M00275'
p27
S'K02759+K02760+K02761'
p28
sS'M00272'
p29
S'K02777+K02752+K02753'
p30
sS'M00273'
p31
S'K02768+K02769+K02770'
p32
sS'M00270'
p33
S'(K02777,K02817)+K02818+K02819'
p34
sS'M00271'
p35
S'K02755+K02756+K02757'
p36
sS'M00377'
p37
S'K00198 K05299-K15022 K01938 K01491 K00297 K15023 K14138+K00197+K00194'
p38
sS'M00376'
p39
S'K02160+K01961+K01962+K01963 K14468 K14469 K15052 K05606 (K01847,K01848+K01849) K14471+K14472 K00239+K00240+K00241 K01679'
p40
sS'M00375'
p41
S'K01964+K15037+K15036 K15017 K15039 K15018 K15019 K15020 K05606 K01848+K01849 (K15038,K15017) K14465 (K14466,K18861) K14534 K15016 K00626'
p42
sS'M00374'
p43
S'K00169+K00170+K00171+K00172 K01007 K01595 K00024 (K01676,K01677+K01678) (K00239+K00240-K00241-K18860) K01902+K01903 (K15038,K15017) K14465 (K14467,K18861) K14534 K15016 K00626'
p44
sS'M00373'
p45
S'K00626 K00023 K17865 K14446 K14447 K14448 K14449 K08691 K14451'
p46
sS'M00372'
p47
S'(K15746,K15747) K09838 -K14594 K09840 K09841 K09842'
p48
sS'M00278'
p49
S'K02812+K02813+K02814+K02815'
p50
sS'M00279'
p51
S'K02773+K02774+K02775'
p52
sS'M00519'
p53
S'K07718 K07720'
p54
sS'M00518'
p55
S'K07717 K07719'
p56
sS'M00513'
p57
S'K10909 K10916 K10911 K10912'
p58
sS'M00512'
p59
S'K13587 K13584 K13589'
p60
sS'M00511'
p61
S'K07716 K11357 K02488 K11443 -K13591'
p62
sS'M00510'
p63
S'K11354 K11355'
p64
sS'M00517'
p65
S'K10715 K13815'
p66
sS'M00516'
p67
S'K11231,K19690,K19691,K19692 K11232 K11233,K15859'
p68
sS'M00515'
p69
S'K10942 K10943'
p70
sS'M00514'
p71
S'K13040 K13041'
p72
sS'M00078'
p73
S'(K07964,K07965) K01136 K01217 K01565 K10532 K01205 -- K01195 K01137'
p74
sS'M00429'
p75
S'K02237+K02238+K02240+K02242+(K02245,K02246,K02247,K02249)+K02243+K02244+K02236-K02248-K01493-K02239-K02241'
p76
sS'M00079'
p77
S'-- K01132 K12309 K01137 K12373'
p78
sS'M00428'
p79
S'K03259+K03260+K03257'
p80
sS'M00012'
p81
S'K01647 (K01681,K01682) K01637 (K01638,K19282) (K00026,K00025,K00024)'
p82
sS'M00013'
p83
S'K00249 (K07511,K07514,K07515) K05605 -- K00140'
p84
sS'M00010'
p85
S'K01647 (K01681,K01682) (K00031,K00030)'
p86
sS'M00011'
p87
S'(K00164+K00658+K00382,K00174+K00175-K00177-K00176) (K01902+K01903,K01899+K01900,K18118) (K00234+K00235+K00236+K00237,K00239+K00240+K00241-(K00242,K18859,K18860),K00244+K00245+K00246-K00247) (K01676,K01679,K01677+K01678) (K00026,K00025,K00024,K00116)'
p88
sS'M00016'
p89
S'(K00928,K12524,K12525,K12526) K00133 K01714 K00215 K00674 (K00821,K14267) K01439 K01778 (K01586,K12526)'
p90
sS'M00017'
p91
S'(K00928,K12524,K12525,K12526) K00133 (K00003,K12524,K12525) K00651 K01739 K01760 (K00548,K00549)'
p92
sS'M00014'
p93
S'K00012 ((K12447 K16190),(K00699 (K01195,K14756))) K00002 K13247 -- K03331 (K05351,K00008) K00854'
p94
sS'M00015'
p95
S'(K00931 K00147,K12657) -- K00286'
p96
sS'M00153'
p97
S'K00425+K00426'
p98
sS'M00152'
p99
S'(K00412+K00413,K00410)+K00411+K00414+K00415+K00416+K00417+K00418+K00419+K00420'
p100
sS'M00018'
p101
S'(K00928,K12524,K12525,K12526) K00133 (K00003,K12524,K12525) (K00872,K02204,K02203) K01733'
p102
sS'M00019'
p103
S'K01652+(K01653,K11258) K00053 K01687 K00826'
p104
sS'M00157'
p105
S'K02111+K02112+K02113+K02114+K02115+K02108+K02109+K02110'
p106
sS'M00156'
p107
S'((K00404+K00405,K15862)+K00407+K00406)'
p108
sS'M00155'
p109
S'K02275+(K02274+K02276,K15408)-K02277'
p110
sS'M00154'
p111
S'(K02257+K02262+K02256+K02261+K02263+K02264+K02265+K02266+K02267+K02268+(K02269,K02270-K02271)+K02272-K02273+K02258+K02259+K02260)'
p112
sS'M00607'
p113
S'K17321+K17322+K17323+K17324+K17325'
p114
sS'M00606'
p115
S'K17329+K17330+K17331+K10112'
p116
sS'M00605'
p117
S'K17315+K17316+K17317+K10112'
p118
sS'M00604'
p119
S'K17311+K17312+K17313-K17314'
p120
sS'M00603'
p121
S'K17318+K17319+K17320'
p122
sS'M00602'
p123
S'K17234+K17235+K17236+K10112'
p124
sS'M00601'
p125
S'K17244+K17245+K17246'
p126
sS'M00600'
p127
S'K17241+K17242+K17243'
p128
sS'M00764'
p129
S'K19506+K19507+K19508+K19509'
p130
sS'M00765'
p131
S'K19575 K19578'
p132
sS'M00766'
p133
S'K10673 K04343'
p134
sS'M00767'
p135
S'K05804 K19587 K19586+K19585'
p136
sS'M00760'
p137
S'K19060 K06979'
p138
sS'M00761'
p139
S'K10011 K07806 K10012 K13014'
p140
sS'M00609'
p141
S'K00789 K17462 (K01243,K18284) K07173 K17216 K17217'
p142
sS'M00608'
p143
S'K10977 K16792+K16793 K10978'
p144
sS'M00568'
p145
S'K03381 K01856 K03464 (K01055,K14727)'
p146
sS'M00569'
p147
S'(K00446,K07104) ((K10217 K01821 K01617),K10216) (K18364,K02554) (K18365,K01666) (K18366,K04073)'
p148
sS'M00566'
p149
S'K16199+K16200+K16201+K16202'
p150
sS'M00567'
p151
S'(K00200+K00201+K00202+K00203-K11261+(K00205,K11260,K00204)) K00672 K01499 (K00319,K13942) K00320 (K00577+K00578+K00579+K00580+K00581-K00582-K00583+K00584) (K00399+K00401+K00402) (K03388+K03389+K03390)'
p152
sS'M00564'
p153
S'K15842 K12086 -K12087 K12088 K12089 K12090 K03196 K12091 -K12092 K12093 K12094 K12095 K12096 K12097 K12098 -K12099 -K12100 K12101 K12102 K12103 K12104 K12105 K12106 K12107 K12108 K12109 K12110'
p154
sS'M00565'
p155
S'K00975 K00703 (K00700,K16149) K01214 K06044 K01236'
p156
sS'M00563'
p157
S'K14082 ((K16177-K16176),(K16179-K16178),(K14084-K14083)) K00399+K00401+K00402 K03388+K03389+K03390'
p158
sS'M00280'
p159
S'K02781+K02782+K02783'
p160
sS'M00128'
p161
S'K06125 K00591 K06126 K06127 K06134 K00591'
p162
sS'M00129'
p163
S'K00963 K00012 K00699 (K01195,K14756) -- K01053 K00103'
p164
sS'M00126'
p165
S'(K01495,K09007) (K01077,K01113) (K13939,K13940 (K00796,K18974,K18824,K18825),K01633 K00950 (K00796,K18974,K18824,K18825),K01633 K13941) (K11754,K01930,K20457) (K00287,K13998,K13938)'
p166
sS'M00127'
p167
S'K03147 (K00877,K00941,K14153)'
p168
sS'M00124'
p169
S'K03472 K03473 K00831 K00097 -- K03474 K00275'
p170
sS'M00125'
p171
S'(K01497,K14652) (K01498 K00082,K11752) (K20860,K20861,K20862,K21063,K21064)'
p172
sS'M00122'
p173
S'(K00798,K19221) K02232 (K02225,K02227) K02231'
p174
sS'M00123'
p175
S'K00652 ((K00833,K19563) K01935,K19562) K01012'
p176
sS'M00120'
p177
S'(K00867,K03525,K09680,K01947) ((K01922,K21977) K01598,K13038) (K02318,(K00954,K02201) K00859)'
p178
sS'M00121'
p179
S'(K01885,K14163) K02492 K01845 K01698 K01749 (K01719,K13542,K13543)'
p180
sS'M00089'
p181
S'(K00629,K13506,K13507,K00630,K13508,K00631,K03621,K08591) (K00655,K13509,K13513,K13517,K13519,K13523,K14674) K01080 (K00635,K11155,K11160,K14456,K18851)'
p182
sS'M00088'
p183
S'K00626 K01641 K01640'
p184
sS'M00379'
p185
S'K03868+K03347+K03094+K10259'
p186
sS'M00081'
p187
S'K01051 K01184 K01213'
p188
sS'M00080'
p189
S'K02527 K02841 K02843 K02850 K02848 K02849 K02844 K02840 K03278 K03279 K03280 K02847'
p190
sS'M00083'
p191
S'K00665,(K00667 K00668),K11533,((K00647,K09458,K00648) K00059 (K02372,K01716,K16363) (K00208,K02371,K10780,K00209))'
p192
sS'M00082'
p193
S'(K11262,(K02160+K01961,K11263)+(K01962+K01963,K18472)) (K00665,K00667+K00668,K11533,(K00645 (K00648,K18473)))'
p194
sS'M00085'
p195
S'(K07508,K07509) (K00022 K07511,K07515) K07512'
p196
sS'M00670'
p197
S'K02067+K02066+K02065+K18481'
p198
sS'M00087'
p199
S'(K00232,K00249,K00255,K06445,K09479) (((K01692,K07511,K13767) (K00022,K07516)),K01825,K01782,K07514,K07515,K10527) (K00632,K07508,K07509,K07513)'
p200
sS'M00086'
p201
S'K01897,K15013'
p202
sS'M00320'
p203
S'K07091+K11720+K06861'
p204
sS'M00298'
p205
S'K11051+K11050'
p206
sS'M00321'
p207
S'K11950+K11951+K11952+K11953'
p208
sS'M00589'
p209
S'K17073+K17074+K17076'
p210
sS'M00333'
p211
S'K03199+K03196-K03198-K03201+K03203+K03195-K03194-K03197-K03200-K03202+K03204+K03205'
p212
sS'M00332'
p213
S'K03224+K03226+K03227+K03228+K03229+K03230+K03225-K03223-K04054+K03222-K03220+K03219-K03221-K04057-K04056-K04053-K04059-K04058'
p214
sS'M00331'
p215
S'K02453+K02452+K02455+K02456+K02457+K02458+K02459+K02460+K02461+K02462+K02454+(K02464,K02654)-K02450-K02451-K02463-K02465'
p216
sS'M00330'
p217
S'K12541+K12542+K12543'
p218
sS'M00337'
p219
S'K02725+K02726+K02727+K02728+K02729+K02730+K02731+K02732+K02734+K02735+K02736+K02741+K02733+K02740+K06696+K06697'
p220
sS'M00336'
p221
S'K03116-K03117+K03118-K03425'
p222
sS'M00335'
p223
S'(K03072+K03074,K12257)+K03073+K03075-K13301+K03076+K03210+K03217+K03070+K03110-K03071-K03106'
p224
sS'M00334'
p225
S'(K11902,K11910,K11911)+K11901+K11900+K11903+(K11897,K11905,K11919)+K11896+K11895+K11907+K11904+K11906+K11893+K11892+K11891'
p226
sS'M00339'
p227
S'K13408+K13409+K12340'
p228
sS'M00338'
p229
S'(K01697,K10150) K01758'
p230
sS'M00771'
p231
S'K19616 K19617'
p232
sS'M00238'
p233
S'K02073+K02072+K02071'
p234
sS'M00239'
p235
S'K02035+K02033+K02034+K02031+K02032'
p236
sS'M00232'
p237
S'K09969+K09970+K09971+K09972'
p238
sS'M00233'
p239
S'K10005+K10006+K10007+K10008'
p240
sS'M00230'
p241
S'K10001+K10002+K10003+K10004'
p242
sS'M00231'
p243
S'K10018+K10019+K10020+K10021'
p244
sS'M00236'
p245
S'K02030+K02029+K02028'
p246
sS'M00237'
p247
S'K01999+K01997+K01998+K01995+K01996'
p248
sS'M00234'
p249
S'K02424+K10009+K10010'
p250
sS'M00235'
p251
S'K10022+K10023+K10024+K10025'
p252
sS'M00786'
p253
S'K18281 K14132 K17475 K18280 K17827 K17826 K14134 K17825 K18279'
p254
sS'M00787'
p255
S'K19546 K19547 K19550 K19549 K19548 K13037'
p256
sS'M00784'
p257
S'K19566 K19567 K19568 K19569 K19570'
p258
sS'M00785'
p259
S'K19741 K19723'
p260
sS'M00782'
p261
S'K15959 K15960 K15961 K15963 K15964 K15965 K15966 K15967'
p262
sS'M00783'
p263
S'K15968 K15969 K15886 -K15970 K15971 K15972'
p264
sS'M00780'
p265
S'K14251 K14252 K14253 K14254 K14255 K14256 K21301'
p266
sS'M00781'
p267
S'K15941 K15942 K15943 K15944'
p268
sS'M00788'
p269
S'K19835 K19834'
p270
sS'M00789'
p271
S'K14266 K19884 K19885 K19886+K19887 K19888 K19889'
p272
sS'M00369'
p273
S'K13027 K13029 K13030'
p274
sS'M00180'
p275
S'K03006+K03010+K03011+K03008+K03012+K03015+K03017+K03013+K03014+K03016+K03009+K03007'
p276
sS'M00346'
p277
S'K00600 K00830 K00018 K11529 K01689 K01595 K00024 K08692+K14067 K08691'
p278
sS'M00344'
p279
S'K17100 K00863 K01624 K03841'
p280
sS'M00345'
p281
S'((K08093,K13812) K08094,K13831) (K00850,K16370) K01624'
p282
sS'M00342'
p283
S'K03432+K03433+K13527+K13571'
p284
sS'M00343'
p285
S'K03432+K03433+K03420'
p286
sS'M00340'
p287
S'K02725+K02726+K02727+K02728+K02729+K02730+K02731+K02732+K02734+K02735+K02736+K02737+K02738+K02739'
p288
sS'M00341'
p289
S'K03061+K03062+K03063+K03064+K03065+K03066+K03028+K03032+K03033+K03035+K03036+K03037+K03038+K03039+K03029+K03030+K03031+K06691+K10881'
p290
sS'M00427'
p291
S'K09291+K14295+K14296+K03345+K14297+K14298+K14004+K14299+K14300+K14301+K14302+K14303+K14304+K14305+K14306+K14307+K14308+K14309+K14310+K14311+K14312+K14313+K14314+K14315+K14316+K14317+K14318+K12172+K14319+K10577+K12160+K14320+K14321'
p292
sS'M00426'
p293
S'K13129+K13130-K13131-K13132-K13133-K13134-K13135-K13136-K13137'
p294
sS'M00425'
p295
S'K11128+K11129+K11130+K11131'
p296
sS'M00424'
p297
S'K11109+K11110+K11111+K11112+K11113-K11114'
p298
sS'M00423'
p299
S'K15495+K15496+K15497'
p300
sS'M00422'
p301
S'K00192+K00195 K00193+K00197+K00194'
p302
sS'M00348'
p303
S'K13889+K13890+K13891+K13892'
p304
sS'M00349'
p305
S'K13893+K13894+K13895+K13896'
p306
sS'M00648'
p307
S'K07642 K07664 K07799+K07788+K07789'
p308
sS'M00522'
p309
S'K14988 K14989'
p310
sS'M00523'
p311
S'K15011 K15012'
p312
sS'M00520'
p313
S'K14980 K14981'
p314
sS'M00521'
p315
S'K14982 K14983'
p316
sS'M00526'
p317
S'(K00928,K12524,K12525,K12526) K00133 K01714 K00215 K03340 (K01586,K12526)'
p318
sS'M00527'
p319
S'(K00928,K12524,K12525,K12526) K00133 K01714 K00215 K10206 K01778 (K01586,K12526)'
p320
sS'M00524'
p321
S'K14986 K14987'
p322
sS'M00525'
p323
S'K00928 K00133 K01714 K00215 K05822 K00841 K05823 K01778 K01586'
p324
sS'M00643'
p325
S'K18129 K18094+K18095+K18139'
p326
sS'M00642'
p327
S'K18301 K18302+K18303-K18139'
p328
sS'M00528'
p329
S'K10944+K10945+K10946 K10535'
p330
sS'M00529'
p331
S'(K00370+K00371+K00374,K02567+K02568) (K00368,K15864) (K04561+K02305,K15877) K00376'
p332
sS'M00647'
p333
S'(K03577,K18992,K13632,K13631,K05804,K18325,K18991) (K03585+K18138+(K18139,K12340))'
p334
sS'M00641'
p335
S'K18297 K18298+K18299-K18300'
p336
sS'M00645'
p337
S'K07642 K07664 K18321+K18322+K18323'
p338
sS'M00644'
p339
S'K18304 K18099 K18305+K18306+K18307-K18308'
p340
sS'M00646'
p341
S'K07642 K07664 K03585+K18324+K12340'
p342
sS'M00162'
p343
S'K02635+K02637+K02634+K02636+K02642+K02643+K03689+K02640'
p344
sS'M00163'
p345
S'K02689+K02690+K02691+K02692+K02693+K02694'
p346
sS'M00160'
p347
S'K02145+K02147+K02148+K02149+K02150+K02151+K02152+K02144+K02154+(K03661,K02155)+K02146+K02153+K03662'
p348
sS'M00161'
p349
S'K02703+K02706+K02705+K02704+K02707+K02708'
p350
sS'M00166'
p351
S'K00855 (K01601-K01602) K00927 (K05298,K00150,K00134)'
p352
sS'M00167'
p353
S'(K01623,K01624) (K03841,K02446,K11532,K01086,K04041) K00615 (K01623,K01624) (K01100,K11532,K01086) K00615 (K01807,K01808)'
p354
sS'M00165'
p355
S'K00855 (K01601-K01602) K00927 (K05298,K00150,K00134) (K01623,K01624) (K03841,K02446,K11532,K01086,K04041) K00615 (K01623,K01624) (K01100,K11532,K01086) K00615 (K01807,K01808)'
p356
sS'M00283'
p357
S'K02821+K02822+K03475'
p358
sS'M00282'
p359
S'K02763+K02764+K02765'
p360
sS'M00168'
p361
S'K01595 (K00025,K00026,K00024)'
p362
sS'M00169'
p363
S'K00029 K01006'
p364
sS'M00287'
p365
S'K02744+K10984+K10985+K10986'
p366
sS'M00286'
p367
S'K10732+K10733+K10734+K10735'
p368
sS'M00285'
p369
S'K02540+K02541+K02212+K02209+K02542+K02210'
p370
sS'M00284'
p371
S'K02603+K02604+K02605+K02606+K02607+K02608'
p372
sS'M00737'
p373
S'K19083+K19084 K19081 K19082 K11631+K11632'
p374
sS'M00736'
p375
S'K19102+K19103+K05375 K19104 K19105 K19106'
p376
sS'M00734'
p377
S'K19081 K19082'
p378
sS'M00733'
p379
S'K19077 K19078'
p380
sS'M00732'
p381
S'K19080+K19079'
p382
sS'M00731'
p383
S'K19084+K19083'
p384
sS'M00730'
p385
S'K19077 K19078 K19079+K19080'
p386
sS'M00045'
p387
S'K01745 K01712 K01468 K01479'
p388
sS'M00044'
p389
S'K03334 K00457 K00451 K01800 (K01555,K16171)'
p390
sS'M00047'
p391
S'K00613 K00542 K00933'
p392
sS'M00046'
p393
S'K00207,K17722+K17723 K01464 K01431,K06016'
p394
sS'M00040'
p395
S'(K00832,K15849) (K00220,K15226,K15227)'
p396
sS'M00739'
p397
S'K19226+K19227+K19228+K19229+K19230'
p398
sS'M00042'
p399
S'(K00505,K00501) (K01592,K01593) K00503 K00553'
p400
sS'M00638'
p401
S'K18242+K18243+K14578+K14581'
p402
sS'M00639'
p403
S'K18294 K18295+K18296-K08721'
p404
sS'M00636'
p405
S'K18251+K18252-K18253-K18254 K18255 K18256'
p406
sS'M00637'
p407
S'(K05599+K05600+K11311,K16319+K16320+K18248+K18249)'
p408
sS'M00634'
p409
S'K18233+K18232'
p410
sS'M00635'
p411
S'K18216+K18217'
p412
sS'M00632'
p413
S'K01785 K00849 K00965 K01784'
p414
sS'M00633'
p415
S'K05308 K18126 K11395 (K00131,K18978)'
p416
sS'M00630'
p417
S'(K18106,K19634) K18102 K18103 K18107'
p418
sS'M00631'
p419
S'K01812 K00041 (K01685,K16849+K16850) K00874 (K01625,K17463)'
p420
sS'M00823'
p421
S'K14251 K14252 K14253 K14254 K14255 K14256 K21301 K14257+K21297'
p422
sS'M00822'
p423
S'K21135+K21133+K18139'
p424
sS'M00821'
p425
S'K21136+K21137+K21134+K12340'
p426
sS'M00820'
p427
S'K20973,K20974,K20975 K20976 K20977'
p428
sS'M00827'
p429
S'K21183'
p430
sS'M00826'
p431
S'K20159+K21175 K20156 K21176 K21177 K21178 K21179'
p432
sS'M00825'
p433
S'K15314 K21168+K21169+K21170+K21171+K21172+K21173+K21174'
p434
sS'M00824'
p435
S'K15314 K21160+K21161+K21162+K21163+K21164+K21165+K21166+K21167'
p436
sS'M00829'
p437
S'K15320 K21191 K21192'
p438
sS'M00828'
p439
S'K21183'
p440
sS'M00463'
p441
S'K07656 K07672'
p442
sS'M00462'
p443
S'K07655 K07671'
p444
sS'M00461'
p445
S'K07654 K07670'
p446
sS'M00460'
p447
S'K07653 K07669'
p448
sS'M00467'
p449
S'K08479 K10697 K11329'
p450
sS'M00466'
p451
S'K07769 K11332'
p452
sS'M00465'
p453
S'K11520 K11521'
p454
sS'M00464'
p455
S'K11328 K11330'
p456
sS'M00469'
p457
S'K11629 K11630'
p458
sS'M00468'
p459
S'K10681 K10682'
p460
sS'M00265'
p461
S'K02777+K02778+K02779'
p462
sS'M00264'
p463
S'K02322+K02323'
p464
sS'M00267'
p465
S'K02802+K02803+K02804'
p466
sS'M00309'
p467
S'K05308 (K11395,K18127) (K18020+K18021+K18022,K18128,K03738)'
p468
sS'M00261'
p469
S'K02320+K02321+K02685+K02684'
p470
sS'M00260'
p471
S'K02337+(K03763,K02342,K14159)-K02345+K02338+K02340+K02341+K02343-K02339-K02344'
p472
sS'M00263'
p473
S'K02324+K02325+K02326+K03506'
p474
sS'M00262'
p475
S'K02327+K02328+K03504+K03505'
p476
sS'M00302'
p477
S'K11081+K11082+K11083+K11084'
p478
sS'M00303'
p479
S'K02777+K11191+K11192'
p480
sS'M00300'
p481
S'K11073+K11074+K11075+K11076'
p482
sS'M00301'
p483
S'K11077+K11078+K11079+K11080'
p484
sS'M00269'
p485
S'K02808+K02809+K02810'
p486
sS'M00268'
p487
S'K02777+K02749+K02750'
p488
sS'M00304'
p489
S'K11194+K11195+K11196+K02771'
p490
sS'M00305'
p491
S'K11198+K11199+K11200'
p492
sS'M00289'
p493
S'K10754+K10755+K10756'
p494
sS'M00288'
p495
S'K07466+(K10739,K10741)+K10740'
p496
sS'M00416'
p497
S'K02827+K02826+K02828+K02829'
p498
sS'M00417'
p499
S'K02297+K02298+K02299+K02300'
p500
sS'M00414'
p501
S'K10901+K03165+K10990+K15365'
p502
sS'M00415'
p503
S'(K10247,K10205,K10248,K10249,K10244,K10203,K10250,K15397,K10245,K10246) K10251 K10703 K10258'
p504
sS'M00412'
p505
S'K12191+K12192+K12193+K12194+K12195+K12196+K12197+K12198+K15053'
p506
sS'M00413'
p507
S'K10888+K10889+K10890+K10892+K10893+K10894+K10606+K10896+K10898+K10993'
p508
sS'M00410'
p509
S'K12188+K12189+K12190'
p510
sS'M00411'
p511
S'K03868+K03347+K03094+K03360'
p512
sS'M00418'
p513
S'K07540 K07543+K07544 K07545 K07546 K07547+K07548 K07549+K07550'
p514
sS'M00419'
p515
S'K10616+K18293 K10617 K10618'
p516
sS'M00281'
p517
S'K02786+K02787+K02788'
p518
sS'M00181'
p519
S'K03018+K03021+K03027+K03020+K03023+K03026+K14721+K03025+K03024+K03022+K03019+K03013+K03014+K03016+K03009+K03007'
p520
sS'M00001'
p521
S'(K00844,K12407,K00845,K00886,K08074,K00918) (K01810,K06859,K13810,K15916) (K00850,K16370,K00918) (K01623,K01624,K11645,K16305,K16306) K01803 ((K00134,K00150) K00927,K11389) (K01834,K15633,K15634,K15635) K01689 (K00873,K12406)'
p522
sS'M00003'
p523
S'(K01596,K01610) K01689 (K01834,K15633,K15634,K15635) K00927 (K00134,K00150) K01803 ((K01623,K01624,K11645) (K03841,K02446,K11532,K01086,K04041),K01622)'
p524
sS'M00002'
p525
S'K01803 ((K00134,K00150) K00927,K11389) (K01834,K15633,K15634,K15635) K01689 (K00873,K12406)'
p526
sS'M00005'
p527
S'K00948'
p528
sS'M00004'
p529
S'(K13937,((K00036,K19243) (K01057,K07404))) K00033 K01783 (K01807,K01808) K00615 K00616 (K01810,K06859,K13810,K15916)'
p530
sS'M00007'
p531
S'K00615 (K00616,K13810) K01783 (K01807,K01808)'
p532
sS'M00006'
p533
S'(K13937,((K00036,K19243) (K01057,K07404))) K00033'
p534
sS'M00009'
p535
S'K01647 (K01681,K01682) (K00031,K00030) (K00164+K00658+K00382,K00174+K00175-K00177-K00176) (K01902+K01903,K01899+K01900,K18118) (K00234+K00235+K00236+K00237,K00239+K00240+K00241-(K00242,K18859,K18860),K00244+K00245+K00246-K00247) (K01676,K01679,K01677+K01678) (K00026,K00025,K00024,K00116)'
p536
sS'M00008'
p537
S'K00036 (K01057,K07404) K01690 K01625'
p538
sS'M00672'
p539
S'K12743 K04126 K10852'
p540
sS'M00673'
p541
S'K12743 K04126 K04127 K12744 K12745 K04128 K18062 K18063'
p542
sS'M00779'
p543
S'K05556 (K14626,K14627) (K14628,K14629) (K14630+K14631,K14632)'
p544
sS'M00778'
p545
S'K05551+K05552+K05553 -K12420 ((K05554,K14249,K15884,K15885) (K05555,K14250),K15886)'
p546
sS'M00676'
p547
S'K04527 K16172 K00922+K02649 K04456 (K07201,K09408)'
p548
sS'M00677'
p549
S'(K00182,K00312,K00408,K00444,K00445,K00572,K00714,K01064,K01357,K01384,K01558,K03209) (K02432,K02235,K02329,K02354,K02375,K02376,K02842,K04690) K02353 K03083 K02105 (K02620,K04490,K04491,K04492)'
p550
sS'M00674'
p551
S'K12673 K12674 K12675 K12676'
p552
sS'M00675'
p553
S'K18317 K18316 K18315'
p554
sS'M00773'
p555
S'K15988 K15989+K15990 K15992 K15991 K15993 K15994 K15995 K15996'
p556
sS'M00772'
p557
S'K19661 K19641'
p558
sS'M00678'
p559
S'(K06224,K11989,K11990,K11988) K06225 K06226 K18806+K06229 (K16797,K16798,K06230,K16799)'
p560
sS'M00679'
p561
S'(K21283,K04662,K04663,K16620,K16621,K16622,K04664,K04665) ((K04671,K04670,K13596,K13597,K04672)+(K04673,K13578,K04675)) ((K04676,K16790,K16791)+K04501)'
p562
sS'M00777'
p563
S'K14371 K14372 K14373 K14374 K14375'
p564
sS'M00776'
p565
S'K16000+K16001+K16002-K16003 K16004 K16005 K16006'
p566
sS'M00775'
p567
S'K16007 K16008 K16009 K13320 K16010'
p568
sS'M00774'
p569
S'K10817 K14366 K14367 K14368+K15997 K14370 K14369'
p570
sS'M00579'
p571
S'(K00625,K13788,K15024) K00925'
p572
sS'M00575'
p573
S'K11029 K11004 K07389 K11003 K12340'
p574
sS'M00574'
p575
S'K11023 -K11024 K11025 K11026 K11027'
p576
sS'M00577'
p577
S'K01906 K00652 (K00833,K19563) K01935 K01012'
p578
sS'M00571'
p579
S'K16300+K16299+K12340'
p580
sS'M00570'
p581
S'(K17989,K01754) K01652+(K01653,K11258) K00053 K01687 K00826'
p582
sS'M00573'
p583
S'K16593 K00652 (K00833,K19563) K01935 K01012'
p584
sS'M00572'
p585
S'K02169 (K00647,K09458) K00059 K02372 K00208 (K02170,K09789,K19560,K19561)'
p586
sS'M00049'
p587
S'K01939 K01756 (K00939,K18532,K18533,K00944) (K00940,K00873,K12406)'
p588
sS'M00048'
p589
S'K00764 (K01945,K11787,K11788,K13713) (K00601,K11175,K08289,K11787) K01952 (K01933,K11787,K11788) (K01587,K11808,K01589 K01588) (K01923,K01587,K13713) K01756 (K00602,K01492,K06863 K11176)'
p590
sS'M00159'
p591
S'K02117+K02118+K02119+K02120+K02121+K02122+K02107+K02123+K02124'
p592
sS'M00158'
p593
S'K02132+K02133+K02136+K02134+K02135+K02137+K02126+K02127+K02128+K02138+(K02129,K01549)+(K02130,K02139)+K02140+(K02141,K02131)-K02142-K02143+K02125'
p594
sS'M00138'
p595
S'K00475 K13082 K05277'
p596
sS'M00135'
p597
S'K00657 K00274 (K00128,K14085,K00149) --'
p598
sS'M00134'
p599
S'K01476 K01581'
p600
sS'M00137'
p601
S'K10775 K00487 K01904 K00660 K01859'
p602
sS'M00136'
p603
S'K09470 K09471 K09472 K09473'
p604
sS'M00131'
p605
S'K01106 (K01107,K15422) K01109 (K01092,K15759,K10047,K18649)'
p606
sS'M00130'
p607
S'(K00888,K19801,K13711) (K00889,K13712) (K01116,K05857,K05858,K05859,K05860,K05861) K00911'
p608
sS'M00133'
p609
S'(K01583,K01584,K01585,K02626) K01480'
p610
sS'M00132'
p611
S'K00913 K00915 K10572'
p612
sS'M00708'
p613
S'K18891+K18892'
p614
sS'M00709'
p615
S'K07637 K07660 K05685+K13888+K12340'
p616
sS'M00706'
p617
S'K18887+K18888'
p618
sS'M00707'
p619
S'K18889+K18890'
p620
sS'M00704'
p621
S'K18906 K08168'
p622
sS'M00705'
p623
S'K18909 K18908'
p624
sS'M00702'
p625
S'(K18906,K18907) K08170'
p626
sS'M00700'
p627
S'(K18906,K18907) K18104'
p628
sS'M00701'
p629
S'K15974 K03543+K03446'
p630
sS'M00043'
p631
S'K00431'
p632
sS'M00738'
p633
S'K11629 K11630 K11631+K11632'
p634
sS'M00151'
p635
S'((K00412+K00413,K00410)+K00411),K03886+K03887+K03888,K03890+K03891+K03889'
p636
sS'M00360'
p637
S'K01872 K01887 (K01893,K01876,K09759) K01883 (K01886,K01885,K09698) ((K01878+K01879),K14164,K01880) K01892 K01870 K01869 (K04567,K04566) K01874 K01889+K01890 K01881 K01875 K01868 K01867 K01866 K01873 -K07587 -K11627 -K01884'
p638
sS'M00150'
p639
S'K00244+K00245+K00246+K00247'
p640
sS'M00361'
p641
S'K00963 K01784 K00972 K00012 K08678 (K00966,K00971)'
p642
sS'M00229'
p643
S'(K09996,K09997)+K09998+K09999+K10000'
p644
sS'M00228'
p645
S'K10039+K10040+K10041'
p646
sS'M00182'
p647
S'K02999+K03002+K03027+K03020+K03000-K03001-K03003+K03004+K03005+K03013+K03014+K03016+K03009+K03007'
p648
sS'M00183'
p649
S'K03040+(K03043+K03046,K13797)+K03060-K03048'
p650
sS'M00184'
p651
S'K03042+K03041+(K03044+K03045,K13798)+K03053+K03055+K03058+K03047+K03049+K03050+K03056+K03059+K03051-K03052-K03054'
p652
sS'M00185'
p653
S'K02048+K02046+K02047+K02045'
p654
sS'M00186'
p655
S'K05772+K05773+K06857'
p656
sS'M00221'
p657
S'K02058+K02057+K02056'
p658
sS'M00220'
p659
S'K10559+K10560+K10561+K10562'
p660
sS'M00223'
p661
S'K02044+K02042+K02041'
p662
sS'M00222'
p663
S'K02040+K02037+K02038+K02036'
p664
sS'M00225'
p665
S'K10013+K10015+K10016+K10017'
p666
sS'M00224'
p667
S'K16905+K16906+K16907'
p668
sS'M00227'
p669
S'K10036+K10037+K10038'
p670
sS'M00226'
p671
S'K10014+K10015+K10016+K10017'
p672
sS'M00795'
p673
S'K19855 K12710 K17625'
p674
sS'M00794'
p675
S'K13312 K13313'
p676
sS'M00797'
p677
S'K13308 K13309 (K13310,K16436) (K13311,K13326)'
p678
sS'M00796'
p679
S'K19853 K19854 K13307'
p680
sS'M00791'
p681
S'K19971+K19972+K10830'
p682
sS'M00790'
p683
S'K14266 K19981 K14257 K19982'
p684
sS'M00793'
p685
S'K00973 K01710 K01790 K00067'
p686
sS'M00792'
p687
S'K19975+K19976+K19973'
p688
sS'M00812'
p689
S'K20339 K20340'
p690
sS'M00768'
p691
S'K19592 K19595+K19594+K18139'
p692
sS'M00810'
p693
S'K19818+K19819+K19820 (K19826,K19890) K19185+K19186+K19187 K19188 -K20155'
p694
sS'M00811'
p695
S'K20170,K20169 (K20170,(K20158 K19700)) K20171-K20172 K15359,K18276'
p696
sS'M00799'
p697
S'K16435 K13315 K16438 K19856 K19857'
p698
sS'M00798'
p699
S'K16435 K13315 K13317 (K13316,K16438) K13318'
p700
sS'M00814'
p701
S'K19969 K19979 K19974 K20424 K20425 K20426 K20427 K20430 -- --'
p702
sS'M00769'
p703
S'K18304 K19591 K19595+K19594+K19593'
p704
sS'M00188'
p705
S'K02051+K02050+K02049'
p706
sS'M00447'
p707
S'K07640 K07662'
p708
sS'M00355'
p709
S'K11086+K11087+K11096+K11088+K11097+K11098+K11099+K12856+K12854+K12852+K12857+K10599+K12860+K12861+K12862+K12863+K06063+K12867+K12868+K12869+K12870+K12871+K12872+K12873+K12874+K09564+K12733+K12816+K13117+K03283+K13123'
p710
sS'M00354'
p711
S'K11086+K11087+K11096+K11088+K11097+K11098+K11099+K12621+K12622+K12623+K12624+K12625+K12626+K12627+K12843+K12662+K09567+K12844+K12845+K12852-K12853+K12855+K12856+K12857+K12854+K12858+K12859+K13099+K11984+K12847+K12846'
p712
sS'M00357'
p713
S'(K00925 (K00625,K13788),K01895) (K00193+K00197+K00194) (K00577+K00578+K00579+K00580+K00581-K00582-K00583+K00584) (K00399+K00401+K00402) (K03388+K03389+K03390)'
p714
sS'M00356'
p715
S'K14080+K04480+K14081 K00399+K00401+K00402 K03388+K03389+K03390'
p716
sS'M00351'
p717
S'K11086+K11087+K11096+K11088+K11097+K11098+K11099+K11093+K11091+K11095'
p718
sS'M00350'
p719
S'(K10775,K13064) K00487 K01904 K00588'
p720
sS'M00353'
p721
S'K10599+K12860+K12861+K12862+K12863+K12864+K03283+K12865+K12866'
p722
sS'M00352'
p723
S'K11086+K11087+K11096+K11088+K11097+K11098+K11099+K11092+K11094+K12825+K12826+K12827+K12828+K12829+K12830+K12831+K12832+K12833+K12835+K12834'
p724
sS'M00452'
p725
S'K07644 K07665'
p726
sS'M00453'
p727
S'K07645 K07666'
p728
sS'M00450'
p729
S'K07642 K07664'
p730
sS'M00451'
p731
S'K07643 K07771'
p732
sS'M00359'
p733
S'K01872 K01887 K01893 K01876 K01883 K01886 K01885 K01880 K01892 K01870 K01869 K04567 K01874 (K01889+K01890) K01881 K01875 K01868 K01867 K01866 K01873 -K14163'
p734
sS'M00358'
p735
S'K08097 K05979 K05884 K13039+K06034'
p736
sS'M00454'
p737
S'K07646 K07667'
p738
sS'M00455'
p739
S'K07647 K07772'
p740
sS'M00762'
p741
S'K19341+K19340'
p742
sS'M00763'
p743
S'K05826'
p744
sS'M00319'
p745
S'K11707+K11708+K11709+K11710'
p746
sS'M00318'
p747
S'K11704+K11705+K11706'
p748
sS'M00531'
p749
S'(K00367,K10534,K00372-K00360) (K00366,K17877)'
p750
sS'M00530'
p751
S'(K00370+K00371+K00374,K02567+K02568) (K00362+K00363,K03385+K15876)'
p752
sS'M00533'
p753
S'K00455 (K00151,K10219) K01826 K05921'
p754
sS'M00532'
p755
S'(K01601-K01602) K19269 K11517 K03781 K14272 K00600 K00830 (K15893,K15919) K15918'
p756
sS'M00535'
p757
S'K09011 K01703+K01704 K00052'
p758
sS'M00534'
p759
S'K14579+K14580+K14578+K14581 K14582 K14583 K14584 K14585 K00152'
p760
sS'M00537'
p761
S'K15757+K15758 K00055 K00141'
p762
sS'M00539'
p763
S'K10619+K16303+K16304+K18227 K10620 K10621 K10622 K10623'
p764
sS'M00538'
p765
S'K15760+K15761-K15762+K15763+K15764-K15765 K00055 K00141'
p766
sS'M00171'
p767
S'K01595 K14454 K14455 (K00025,K00026) K00028 (K00814,K14272) K01006'
p768
sS'M00170'
p769
S'K01595 K14454 K14455 K01610'
p770
sS'M00173'
p771
S'(K00169+K00170+K00171+K00172,K03737) ((K01007,K01006) K01595,K01959+K01960,K01958) K00024 (K01676,K01679,K01677+K01678) (K00239+K00240-K00241-K00242,K00244+K00245-K00246-K00247,K18556+K18557+K18558+K18559+K18560) (K01902+K01903) (K00174+K00175-K00177-K00176) K00031 (K01681,K01682) (K15230+K15231,K15232+K15233 K15234)'
p772
sS'M00172'
p773
S'K01595 K00051 K00029 K01006'
p774
sS'M00175'
p775
S'K02588+K02586+K02591-K00531'
p776
sS'M00174'
p777
S'((K10944+K10945+K10946),(K16157+K16158+K16159+K16160+K16161+K16162)) ((K14028-K14029),K17066)'
p778
sS'M00177'
p779
S'K02981+K02985+K02984+K02987+K02989+K02991+K02993+K02995+K02997+K02947+K02949+K02951+K02953+K02955+K02958+K02957+K02960+K02962+K02964+K02966+K02969+K02971+K02973+K02974+K02975+K02976+K02978+K02977+K02979+K02980-K02983+K02998+K02925+K02930+K02932+K02934+K02937+K02936+K02938+K02940+K02866+K02865+K02868+K02870+K02873+K02872+K02875+K02877+K02880+K02883+K02882+K02885+K02889+K02891+K02894+K02893+K02896+K02898+K02901+K02900+K02903+K02905+K02908+K02910+K02912+K02915+K02918+K02917+K02920+K02922+K02921+K02923+K02924+K02927-K02928+K02929+K02941+K02942+K02943'
p780
sS'M00176'
p781
S'(K13811,K00958+K00860,K00955+K00957,K00956+K00957+K00860) K00390 (K00380+K00381,K00392)'
p782
sS'M00179'
p783
S'K02946+K02906+K02930+K02892+K02886+K02965+K02890+K02982+K02904+K02961+K02874+K02895+K02987+K02931+K02954+K02994+K02933+K02912+K02885+K02881+K02988+K02907+K02876+K02952+K02948+K02986+K02883+K02871+K02996+K02992+K02950+K02936+K02979+K02896+K02869+K02864+K02863+K02867+K02967+K02956+K02978+K02929+K02877+K02984+K02991+K02974+K02977+K02962+K02910+K02924+K02866+K02889+K02922+K02921+K02995+K02966+K02927-K02944-K02976-K02975-K02983-K02873-K02917-K02928-K02915-K02875+K02908'
p784
sS'M00178'
p785
S'K02946+K02906+K02926+K02892+K02886+K02965+K02890+K02982+K02878+K02904+K02961+K02874+K02895+K02931+K02954+K02994+K02933+K02881+K02988+K02907+K02876+K02919+K02952+K02948+K02986+K02879+K02871+K02996+K02992+K02950-K07590+K02935+K02864+K02863+K02867+K02967+K02956+K02916+K02887+K02914+K02939+K02963+K02990+K02888+K02899+K02902+K02913+K02911+K02909-K02897+K02959+K02884+K02968+K02945-K02970'
p786
sS'M00314'
p787
S'K11632+K11631'
p788
sS'M00742'
p789
S'(K07638 K07659 K19416),(K04088 K04087) K03798'
p790
sS'M00743'
p791
S'K07638 K07659 K03799'
p792
sS'M00740'
p793
S'K01647 K01681 K00031 K00261 K19268+K01846 K04835 K19280 K14449 K19281 K19282 K00024'
p794
sS'M00741'
p795
S'(K01965+K01966,K11263+(K18472,K19312),K01964+K15036+K15037) K05606 (K01847,K01848+K01849)'
p796
sS'M00746'
p797
S'K13632 K18513 K09476'
p798
sS'M00747'
p799
S'K19310+K19309'
p800
sS'M00744'
p801
S'K07637 K07660 K08477'
p802
sS'M00745'
p803
S'(K18072 K18073),(K07644 K07665),K18297 K18093'
p804
sS'M00070'
p805
S'K03766 (K07819,K07820,K03877)'
p806
sS'M00071'
p807
S'K03766 (K07966,K07967,K07968,K07969)'
p808
sS'M00072'
p809
S'K07151+K12666+K12667+K12668+K12669+K12670-K00730-K12691'
p810
sS'M00073'
p811
S'K01228 K05546 K01230'
p812
sS'M00074'
p813
S'K05546 K01230 K05528 K05529+K05530 K05529+K05531+K05532+K05533+K05534 K05535'
p814
sS'M00075'
p815
S'K01231 K00736'
p816
sS'M00076'
p817
S'-- K01136 K01217 K01135 K01197 K01195'
p818
sS'M00077'
p819
S'K01135 K01197 K01195 K01132'
p820
sS'M00584'
p821
S'K16918+K16919+K16920+K16921'
p822
sS'M00585'
p823
S'K16956+K16957+K16958+K16959+K16960'
p824
sS'M00586'
p825
S'K16961+K16962+K16963'
p826
sS'M00587'
p827
S'K17062+K17063'
p828
sS'M00580'
p829
S'(K08094 (K08093,K13812),K13831) K01807'
p830
sS'M00581'
p831
S'K03523+K16783+K16784'
p832
sS'M00582'
p833
S'(K03523,K16923,K16924,K16925,K16926,K16927,K16928,K16929)+K16785+K16786+K16787'
p834
sS'M00583'
p835
S'K16916+K16917'
p836
sS'M00625'
p837
S'K02547 K02546 K02545'
p838
sS'M00624'
p839
S'K18074+K18075+K18077 K18076'
p840
sS'M00627'
p841
S'K02172 K02171 (K18766,K17836)'
p842
sS'M00620'
p843
S'K00169+K00170+K00171+K00172 K01959+K01960 K00024 K01677+K01678 K18209+K18210 K01902+K01903 K00174+K00175+K00176+K00177'
p844
sS'M00623'
p845
S'K18068+K18069 K18067 K04102'
p846
sS'M00622'
p847
S'K18029+K18030 K14974 K18028 K15357 K13995 K01799'
p848
sS'M00593'
p849
S'K17213+K17214+K17215'
p850
sS'M00382'
p851
S'K03868+K03347+K03094+(K10099,K10100)'
p852
sS'M00383'
p853
S'K03868+K03870+K03872+K03873+K03871'
p854
sS'M00380'
p855
S'K03868+K03347+K03094+K03362'
p856
sS'M00381'
p857
S'K03868+K03347+K03094+K03875'
p858
sS'M00386'
p859
S'K03868+K10609+K10610+K10570'
p860
sS'M00387'
p861
S'K03868+K03347+K03094+K10260'
p862
sS'M00384'
p863
S'K03868+K03869+K10523'
p864
sS'M00385'
p865
S'K03868+K10609+K10610+K10140'
p866
sS'M00388'
p867
S'K10611+K10612+K03872+K03873+(K04701,K04694,K04695,K04696,K04697,K04698,K04699)'
p868
sS'M00389'
p869
S'K03358+K03349+(K03363,K03364)+K03348+K03350+K03351+K03352+K03353+(K03354,K03356)+K03355+K03357+(K03359,K12456)'
p870
sS'M00118'
p871
S'(K11204+K11205,K01919) (K21456,K01920)'
p872
sS'M00592'
p873
S'K17208+K17209+K17210'
p874
sS'M00690'
p875
S'(K04420,K04421) K04463 K04464'
p876
sS'M00691'
p877
S'(K06640,K04728) (K02216,(K06641,K02831)) (K06645,K05866,K05867,K02555)'
p878
sS'M00692'
p879
S'((((K02089,K02091)+(K04503,K10151,K10152))+(K02206+K06626)) (K06618+(K17454,K09389,K06620))),((K02206+(K18810+K14505+K18811+K18812+K18813)) (K04681+K06620)),(((K04563+K06646)+(K04563+(K06650,K12760))) (K12413+K09249))'
p880
sS'M00693'
p881
S'((K05867,K06632) (K02087+(K06627,K05868))),((K18065,K06632) ((K02206,K07760)+(K06627,K05868))),((K02555,K03114) (K04563+K02220))'
p882
sS'M00694'
p883
S'(K12323,K12324,(K12318+K12319)) (K07376,K18283,(K04948+K04952))'
p884
sS'M00695'
p885
S'(K04632,K04630) (K08041,K08042,K08043,K08044,K08045,K08046,K08047,K08048,K08049,K01768) K04345'
p886
sS'M00696'
p887
S'K18140 K18141+K18142+K12340'
p888
sS'M00697'
p889
S'K07690 K18898+K18899+K12340'
p890
sS'M00698'
p891
S'K18900 K18901+K18902+K18903'
p892
sS'M00699'
p893
S'K18905 K03585+K18138+K18904'
p894
sS'M00498'
p895
S'K13598 K13599'
p896
sS'M00499'
p897
S'K07709 K07713'
p898
sS'M00496'
p899
S'K12294 K12295'
p900
sS'M00497'
p901
S'K07708 K07712'
p902
sS'M00494'
p903
S'K11640 K11641'
p904
sS'M00495'
p905
S'K07706 K07707'
p906
sS'M00492'
p907
S'K07704 K07705'
p908
sS'M00493'
p909
S'K08082 K08083'
p910
sS'M00490'
p911
S'K11614 K11615'
p912
sS'M00491'
p913
S'K15770+K15771+K15772+(K10111,K10112)'
p914
sS'M00250'
p915
S'K09690+K09691'
p916
sS'M00251'
p917
S'K09692+K09693'
p918
sS'M00252'
p919
S'K09694+K09695'
p920
sS'M00253'
p921
S'K09696+K09697'
p922
sS'M00254'
p923
S'K01992+K01990'
p924
sS'M00255'
p925
S'K09808+K09810'
p926
sS'M00256'
p927
S'K09811+K09812'
p928
sS'M00257'
p929
S'K09813+K09814'
p930
sS'M00258'
p931
S'K02004+K02003'
p932
sS'M00259'
p933
S'K02195+K02194+K02193'
p934
sS'M00315'
p935
S'K11636+K11635'
p936
sS'M00818'
p937
S'K20263 K20264'
p938
sS'M00317'
p939
S'K11604+K11605+K11606+K11607'
p940
sS'M00316'
p941
S'K11601+K11602+K11603'
p942
sS'M00819'
p943
S'K12250 K15907 -- K18056 K17747 K18091 K18057 K17476'
p944
sS'M00813'
p945
S'K20459+K20460+K20461'
p946
sS'M00405'
p947
S'K12878+K12879+K13174+K13175+K13176'
p948
sS'M00404'
p949
S'K14004+K14005+K14006+K14007+K07953'
p950
sS'M00407'
p951
S'K03868+K03347+K03094+K03361'
p952
sS'M00406'
p953
S'K12878+K12879+K13174+K13175+K13176+K12880+K12881+K12812'
p954
sS'M00401'
p955
S'K10956+K09481+K07342'
p956
sS'M00400'
p957
S'K13525+K14016+K14015'
p958
sS'M00403'
p959
S'K10601+K14026+(K10088,K14008)+K14027+K11519+K13989+K14025+K13525+K14015+K14016'
p960
sS'M00402'
p961
S'K13249+K13250+K13251+K04571'
p962
sS'M00816'
p963
S'K20487 K20488'
p964
sS'M00409'
p965
S'K12183+K12184+K12185+K12186'
p966
sS'M00408'
p967
S'K12182+K04705'
p968
sS'M00817'
p969
S'K20491+(K20492,K20494)+K20490'
p970
sS'M00815'
p971
S'K19969 K20431 K20432 K20433 K20434 K20435 K20436 K20437 K20438'
p972
sS'M00038'
p973
S'(K00453,K00463) (K01432,K14263,K07130) K00486 K01556 K00452 K03392 K10217'
p974
sS'M00039'
p975
S'(K10775,K13064) K00487 K01904 K13065 K09754 -K18368 K00588 K09753 K09755 K13066 K00083'
p976
sS'M00034'
p977
S'K00789 K01611 K00797 ((K01243,K18284,K01244) K00899,K00772) K08963 (K16054,K08964 (K09880,K08965 K08966)) K08967 (K00815,K08969,K00832,K00838)'
p978
sS'M00035'
p979
S'K00789 (K00558,K17398,K17399) K01251 (K01697,K10150)'
p980
sS'M00036'
p981
S'K00826 ((K00166+K00167,K11381)+K09699+K00382) (K00253,K00249) (K01968+K01969) (K05607,K13766) K01640'
p982
sS'M00037'
p983
S'K00502 K01593 K00669 K00543'
p984
sS'M00030'
p985
S'K01655 K17450 K01705 K05824 K00838 K00143 K00293 K00290'
p986
sS'M00031'
p987
S'K05826'
p988
sS'M00032'
p989
S'(K00290 K00293,K14157) K14085 K00825 K00164 K00658 K00252 (K01825,K01782,K07514,(K01692,K07515,K07511) K00022)'
p990
sS'M00033'
p991
S'K00928 K00133 K00836 K06718 K06720'
p992
sS'M00661'
p993
S'K18385 K18386 K18387'
p994
sS'M00660'
p995
S'K03222+K03226+K03227+K03228+K03229+K03230+K03224+K03225+K03223+K18374+K18376 K18373 K18375 K18377 K18378 K18379 K18380 K18381'
p996
sS'M00663'
p997
S'K14978 K14979'
p998
sS'M00662'
p999
S'K02489 K18444'
p1000
sS'M00664'
p1001
S'K14658 K14659 K14666 K14657'
p1002
sS'M00667'
p1003
S'K18219 K18218'
p1004
sS'M00669'
p1005
S'K02067+K02066+K02065+K18480'
p1006
sS'M00668'
p1007
S'K18476 K08151'
p1008
sS'M00299'
p1009
S'K11069+K11070+K11071+K11072'
p1010
sS'M00548'
p1011
S'K16249+K16243+K16244+K16242+K16245+K16246'
p1012
sS'M00549'
p1013
S'(K00844,K00845,K12407,K00886) K01835 K00963'
p1014
sS'M00540'
p1015
S'K04116 K04117 K07534 K07535 K07536'
p1016
sS'M00541'
p1017
S'(K04112+K04113+K04114+K04115,K19515+K19516) K07537 K07538 K07539'
p1018
sS'M00542'
p1019
S'K03221+K03219+K03222+K03226+K03227+K03228+K03229+K03230+K03224+K03225 K12784 K12787 K12785 K12786 K12788 K16041 K16042'
p1020
sS'M00543'
p1021
S'K08689+K15750+K18087+K18088 K08690 K00462 K10222'
p1022
sS'M00544'
p1023
S'K15751-K15752-K15753 K15754+K15755 K15756'
p1024
sS'M00545'
p1025
S'(((K05708+K05709+K05710+K00529) K05711),K05712) K05713 K05714 K02554 K01666 K04073'
p1026
sS'M00546'
p1027
S'(K00106,K00087+K13479+K13480,K13481+K13482,K11177+K11178+K13483) (K00365,K16838,K16839) (K13484,K07127 (K13485,K16838,K16840)) (K01466,K16842) K01477'
p1028
sS'M00547'
p1029
S'K03268+K16268+K18089+K18090 K16269'
p1030
sS'M00295'
p1031
S'K10605+K08735+K08737+K08734+K10858+K10754+K10755+K10756+K04802+K10865+K10866+K10867+K10901+K04728'
p1032
sS'M00108'
p1033
S'K00513 (K00497,K07433) K07433'
p1034
sS'M00109'
p1035
S'K00512 K00513 (K00497,K07433) (K15680,K00071)'
p1036
sS'M00292'
p1037
S'K10865+K10866+K10868'
p1038
sS'M00100'
p1039
S'K04718 K01634'
p1040
sS'M00101'
p1041
S'K01852 K05917 K00222 K07750 K07748 (K09827,K13373) K09828 K01824 K00227 K00213'
p1042
sS'M00102'
p1043
S'K00559 K09829 K00227 K09831 K00223'
p1044
sS'M00103'
p1045
S'K07419 K07438'
p1046
sS'M00104'
p1047
S'K00489 K12408 K07431 K00251 K00037 K00488 K08748 K01796 K10214 K12405 K08764 K11992'
p1048
sS'M00106'
p1049
S'K08748 K00659'
p1050
sS'M00107'
p1051
S'K00498 (K00070,K01822)'
p1052
sS'M00719'
p1053
S'K18986 K18987'
p1054
sS'M00718'
p1055
S'K18131 K03585+K18138+K18139'
p1056
sS'M00715'
p1057
S'K18939 K18926'
p1058
sS'M00714'
p1059
S'K18938 K08167'
p1060
sS'M00717'
p1061
S'(K18940 K18941,K18906) K08153'
p1062
sS'M00716'
p1063
S'K18940 K18941'
p1064
sS'M00711'
p1065
S'K11742+K11743'
p1066
sS'M00710'
p1067
S'K11814+K11815'
p1068
sS'M00713'
p1069
S'K18937 K08167'
p1070
sS'M00712'
p1071
S'K18924+K18925'
p1072
sS'M00214'
p1073
S'K10540+K10541+K10542'
p1074
sS'M00215'
p1075
S'K10543+K10544+K10545'
p1076
sS'M00216'
p1077
S'K10546+K10547+K10548'
p1078
sS'M00217'
p1079
S'K10549+K10550+K10551'
p1080
sS'M00210'
p1081
S'K07323+K02067+K02066+K02065+K07122'
p1082
sS'M00211'
p1083
S'K02069+K02068'
p1084
sS'M00212'
p1085
S'K10439+K10440+K10441'
p1086
sS'M00213'
p1087
S'K10537+K10538+K10539'
p1088
sS'M00148'
p1089
S'K00236+K00237+K00234+K00235'
p1090
sS'M00218'
p1091
S'K10552+K10553+K10554'
p1092
sS'M00219'
p1093
S'K10555+K10556+K10557+K10558'
p1094
sS'M00199'
p1095
S'K10188+K10189+K10190-K10191'
p1096
sS'M00198'
p1097
S'K05813+K05814+K05815+K05816'
p1098
sS'M00197'
p1099
S'K10120+K10121+K10122+K10112'
p1100
sS'M00196'
p1101
S'K10117+K10118+K10119+K10112'
p1102
sS'M00194'
p1103
S'K10108+K10109+K10110+(K10111,K10112)'
p1104
sS'M00193'
p1105
S'K02055+K02053+K02054+K02052'
p1106
sS'M00192'
p1107
S'K05777+K05778+K05779'
p1108
sS'M00191'
p1109
S'K02064+K02063+K02062'
p1110
sS'M00190'
p1111
S'K02012+K02011+K02010'
p1112
sS'M00809'
p1113
S'K20116+K20117+K20118'
p1114
sS'M00808'
p1115
S'K20086 K20087+K20088 K20089 K20090'
p1116
sS'M00801'
p1117
S'K16435 K13327 K19858 K13319'
p1118
sS'M00800'
p1119
S'K16435 K16436 K13326 K16438 K13322'
p1120
sS'M00803'
p1121
S'K16435 K19859 K16436 K13332'
p1122
sS'M00802'
p1123
S'K16435 K13327 K13328 K13329 K13330'
p1124
sS'M00805'
p1125
S'K20075 K20076 K20077+K20078 K20079 K20080 K20081 K20082'
p1126
sS'M00804'
p1127
S'K10944+K10945+K10946 K10535 K00370+K00371'
p1128
sS'M00807'
p1129
S'K20112+K20113+K20114'
p1130
sS'M00806'
p1131
S'K02777+K20107+K20108'
p1132
sS'M00628'
p1133
S'K08218 K01207 K17850 (K01467,K17836)'
p1134
sS'M00770'
p1135
S'K19609 K19610'
p1136
sS'M00458'
p1137
S'K07651 K07775'
p1138
sS'M00141'
p1139
S'K00600 (K00288,(K13403 K13402))'
p1140
sS'M00459'
p1141
S'K07652 K07668'
p1142
sS'M00069'
p1143
S'K03370 (K03371,K03369)'
p1144
sS'M00068'
p1145
S'K01988 K00719'
p1146
sS'M00449'
p1147
S'K07641 K07663'
p1148
sS'M00448'
p1149
S'K07650 K07770'
p1150
sS'M00362'
p1151
S'K00963 K00965 (K01784,K17716) (K00972,K04042,K11528) K01791 K00012 (K00966,K00971,K16011,K16881)'
p1152
sS'M00363'
p1153
S'K11006 K11007'
p1154
sS'M00364'
p1155
S'K01823 (K00795,K13789,K13787)'
p1156
sS'M00365'
p1157
S'K01823 K13787'
p1158
sS'M00366'
p1159
S'K01823 K14066 K00787 K13789'
p1160
sS'M00367'
p1161
S'K01823 K00787 K00804'
p1162
sS'M00368'
p1163
S'K00789 (K01762,K20772) K05933'
p1164
sS'M00440'
p1165
S'K15584+K15585+K15586+K15587+K10824'
p1166
sS'M00443'
p1167
S'K07768 K07776'
p1168
sS'M00442'
p1169
S'K15598+K15599+K15600'
p1170
sS'M00445'
p1171
S'K07638 K07659'
p1172
sS'M00444'
p1173
S'K07637 K07660'
p1174
sS'M00649'
p1175
S'K18143 K18144 K18145+K18146-K18147'
p1176
sS'M00446'
p1177
S'K07639 K07661'
p1178
sS'M00328'
p1179
S'K12536+K12537+K12538'
p1180
sS'M00456'
p1181
S'K07648 K07773'
p1182
sS'M00457'
p1183
S'K07649 K07774'
p1184
sS'M00508'
p1185
S'K11526 K11522 K11523'
p1186
sS'M00509'
p1187
S'K13490 K11444 K13491'
p1188
sS'M00504'
p1189
S'K10125 K10126'
p1190
sS'M00505'
p1191
S'K11383 K11384'
p1192
sS'M00506'
p1193
S'K03407 K03413 K03412 K13924 K03415'
p1194
sS'M00507'
p1195
S'K06596 K02487 K02657 K02658 K06597'
p1196
sS'M00500'
p1197
S'K07710 K07714'
p1198
sS'M00501'
p1199
S'K02668 K02667'
p1200
sS'M00502'
p1201
S'K07711 K07715'
p1202
sS'M00503'
p1203
S'K08475 K08476'
p1204
sS'M00329'
p1205
S'K12539+K12540'
p1206
sS'M00067'
p1207
S'K04628 K01019'
p1208
sS'M00066'
p1209
S'K00720 K07553'
p1210
sS'M00065'
p1211
S'K03857 K03434 K05283 K05284 K05285 K07542 K05286 K05287'
p1212
sS'M00064'
p1213
S'K03271 (K03272,K21344) K03273 (K03272,K21345) K03274'
p1214
sS'M00063'
p1215
S'K06041 K01627 K03270 K00979'
p1216
sS'M00149'
p1217
S'K00241+K00242+K00239+K00240'
p1218
sS'M00061'
p1219
S'K01812 K00040 (K01686,K08323) K00874 (K01625,K17463)'
p1220
sS'M00060'
p1221
S'K00677 (K02535,K16363) K02536 K03269 K00748 K00912 K02527 K02517 K02560'
p1222
sS'M00144'
p1223
S'K00330+(K00331+K00332+K00333,K00331+K13378,K13380)+K00334+K00335+K00336+K00337+K00338+K00339+K00340+(K00341+K00342,K15863)+K00343'
p1224
sS'M00145'
p1225
S'K05574+K05582+K05581+K05579+K05572+K05580+K05578+K05576+K05577+K05575+K05573-K05583-K05584-K05585'
p1226
sS'M00146'
p1227
S'K03945+K03946+K03947+K03948+K03949+K03950+K03951+K03952+K03953+K03954+K03955+K03956+K11352+K11353'
p1228
sS'M00147'
p1229
S'K03957+K03958+K03959+K03960+K03961+K03962+K03963+K03964+K03965+K03966+K11351+K03967+K03968'
p1230
sS'M00140'
p1231
S'K00600 K01491 K01938'
p1232
sS'M00308'
p1233
S'K05308 K00874 K01625 (K00134 K00927,K00131,K18978)'
p1234
sS'M00142'
p1235
S'K03878+K03879+K03880+K03881+K03882+K03883+K03884'
p1236
sS'M00143'
p1237
S'K03934+K03935+K03936+K03937+K03938+K03939+K03940+K03941+K03942+K03943-K03944'
p1238
sS'M00266'
p1239
S'K02777+K02790+K02791'
p1240
sS'M00754'
p1241
S'K11617 K11618 K11619+K11620'
p1242
sS'M00618'
p1243
S'M00377 M00579'
p1244
sS'M00619'
p1245
S'K17326+K17327+K17328'
p1246
sS'M00591'
p1247
S'K17205+K17206+K17207'
p1248
sS'M00590'
p1249
S'K17202+K17203+K17204'
p1250
sS'M00597'
p1251
S'K08928+K08929'
p1252
sS'M00596'
p1253
S'((K00956+K00957),K00958) K00394+K00395 K11180+K11181'
p1254
sS'M00595'
p1255
S'K17222+K17223+K17224-K17225-K08738+K17226+K17227'
p1256
sS'M00610'
p1257
S'K17464+K17465+K17466+K17467'
p1258
sS'M00611'
p1259
S'(M00161,M00163) M00165'
p1260
sS'M00599'
p1261
S'K17237+K17238+K17239+K17240'
p1262
sS'M00613'
p1263
S'M00597 M00376'
p1264
sS'M00614'
p1265
S'M00598 M00173'
p1266
sS'M00615'
p1267
S'(K02575,M00438) M00531'
p1268
sS'M00616'
p1269
S'M00185 M00176'
p1270
sS'M00617'
p1271
S'M00567,M00357,M00356,M00563'
p1272
sS'M00612'
p1273
S'M00597 M00165'
p1274
sS'M00391'
p1275
S'K07573+K12587+K03679+K03681+K11600+K12589+K12586+K12585+K03678+K12590'
p1276
sS'M00390'
p1277
S'(K07573,K03679)+K11600+K12589'
p1278
sS'M00393'
p1279
S'(K03514,K12596)+K12597+K12598'
p1280
sS'M00598'
p1281
S'K08940+K08941+K08942+K08943'
p1282
sS'M00395'
p1283
S'(K12610,K12611,K12612)+K12613+K12614+K12615+K12617'
p1284
sS'M00394'
p1285
S'K08300+K03732+K01689+K00962'
p1286
sS'M00397'
p1287
S'K12620+K12621+K12622+K12623+K12624+K12625+K12626'
p1288
sS'M00396'
p1289
S'K12621+K12622+K12623+K12624+K12625+K12626+K12627'
p1290
sS'M00399'
p1291
S'K12882+K12883'
p1292
sS'M00306'
p1293
S'K11201+K11202+K11203'
p1294
sS'M00307'
p1295
S'((K00163,K00161+K00162)+K00627+K00382),K00169+K00170+K00171+K00172,K03737'
p1296
sS'M00189'
p1297
S'K02020+K02018+K02017-K05776'
p1298
sS'M00378'
p1299
S'(K11779,K11780+K11781)'
p1300
sS'M00098'
p1301
S'(K01046,K12298,K16816,K13534,K14073,K14074,K14075,K14076,K14452,K14674,K14675,K17900) K01054'
p1302
sS'M00099'
p1303
S'K00654 K04708 (K04709,K04710) K04712 (K01441,K12348,K12349)'
p1304
sS'M00092'
p1305
S'(K00894,K14156) K00967 (K00993,K13644)'
p1306
sS'M00093'
p1307
S'K00981 (K00998,K17103) K01613'
p1308
sS'M00090'
p1309
S'(K00866,K14156) K00968 (K00994,K13644)'
p1310
sS'M00091'
p1311
S'K00551,(K16369 K00550),K00570'
p1312
sS'M00096'
p1313
S'K01662 K00099 (K00991,K12506) K00919 (K01770,K12506) K03526 K03527 K01823'
p1314
sS'M00097'
p1315
S'K02291 K02293 K15744 K00514 K09835 K06443'
p1316
sS'M00094'
p1317
S'K00654 K04708 (K04709,K04710) K04712'
p1318
sS'M00095'
p1319
S'K00626 K01641 K00021 K00869 (K00938,K13273) K01597 K01823'
p1320
sS'M00689'
p1321
S'(K04416,K04420,K04421,K04428,K04429,K04423,K04415,K04426,K04425,K04427,K04417,K04418,K04419,K17534) (K04432,K04433) K04441'
p1322
sS'M00688'
p1323
S'(K04416,K04420,K04421,K04428,K04429,K04423,K04415,K04426,K04425,K04427,K04417,K04418,K04419,K17534) (K04430, K04431) K04440'
p1324
sS'M00687'
p1325
S'(K04366,K08845,K04365,K04367) (K04368,K04369) K04371'
p1326
sS'M00686'
p1327
S'(K10159,K10160,K18809) K04729 (K04730+K04733) K03175 (K04427+K04404-K04403) (K07209-K04467-K07210) K04734 (K02580-K04735)'
p1328
sS'M00685'
p1329
S'K02084 (K04399,K04489) (K02187,K04397)'
p1330
sS'M00684'
p1331
S'(K11217,K04447,K11218,K11219) (K11220,K11221,K04692,K11222,K11223,K11224,K11225) (K04694,K04695,K04696,K04701,K04697,K04698,K04699)'
p1332
sS'M00683'
p1333
S'((K16683,K16821,K16822)+K16684+K16685) (K04412+K16686) (K08791+K06685) ((K16687,K16820)+K09448)'
p1334
sS'M00682'
p1335
S'(K06051,K06059,(K06170+(K04505,K04522,K06060)+K06171+K06172)) (K02599,K20994,K20995,K20996) K06053'
p1336
sS'M00681'
p1337
S'K04667 ((K04670,K13596)+K13567) (K04500+K04501)'
p1338
sS'M00680'
p1339
S'(K13375,K13376,K13377) (K04388+K04674) (K04500+K04501)'
p1340
sS'M00324'
p1341
S'K12368+K12369+K12370+K12371+K12372'
p1342
sS'M00325'
p1343
S'K11004+K11003+K12340'
p1344
sS'M00326'
p1345
S'K12530+K12531+K12532+K12340'
p1346
sS'M00327'
p1347
S'K12533+K12534+K12535'
p1348
sS'M00489'
p1349
S'K11691 K11692'
p1350
sS'M00488'
p1351
S'K07701 K07703'
p1352
sS'M00322'
p1353
S'K11954+K11955+K11956+K11957+K11958'
p1354
sS'M00323'
p1355
S'K11959+K11960+K11961+K11962+K11963'
p1356
sS'M00485'
p1357
S'K02491 K07697 K07698 K13532 K13533 K02490 K07699'
p1358
sS'M00484'
p1359
S'K11623 K11624'
p1360
sS'M00487'
p1361
S'K11637 K11638'
p1362
sS'M00486'
p1363
S'K07700 K07702'
p1364
sS'M00481'
p1365
S'K11617 K11618'
p1366
sS'M00480'
p1367
S'K07681 K07694'
p1368
sS'M00483'
p1369
S'K07683 K07696'
p1370
sS'M00482'
p1371
S'K07682 K07695'
p1372
sS'M00249'
p1373
S'K09688+K10107+K09689'
p1374
sS'M00247'
p1375
S'K01989+K05832+K05833'
p1376
sS'M00246'
p1377
S'(K16915,K02009)-K10094+K02008+K02007+K02006'
p1378
sS'M00245'
p1379
S'K02009+K02008+K02007+K02006'
p1380
sS'M00244'
p1381
S'K02077+K02075+K02074'
p1382
sS'M00243'
p1383
S'K09818+K09819+K09820'
p1384
sS'M00242'
p1385
S'K09815+K09816+K09817'
p1386
sS'M00241'
p1387
S'K06858+K06073+K06074'
p1388
sS'M00240'
p1389
S'K02016+K02015+K02013'
p1390
sS'M00392'
p1391
S'K12599+K12600+(K12601,K12602)'
p1392
sS'M00430'
p1393
S'K12876+K12877+K14323+K13025+K14324+K13114+K12875+K14325+K12881+K12812+K13171+K14285+K14326+K14327+K14328'
p1394
sS'M00432'
p1395
S'K01649 (K01702,K01703+K01704) K00052'
p1396
sS'M00433'
p1397
S'K01655 (K17450 K01705,K16792+K16793) K05824'
p1398
sS'M00434'
p1399
S'K07636 (K07657,K07658)'
p1400
sS'M00435'
p1401
S'K15551+K15552+K10831'
p1402
sS'M00436'
p1403
S'K15553+K15554+K15555'
p1404
sS'M00437'
p1405
S'K15556+K15557+K15558'
p1406
sS'M00438'
p1407
S'K15576+K15577+K15578-K15579'
p1408
sS'M00439'
p1409
S'K15580+K15581+K15582+K15583+K10823'
p1410
sS'M00398'
p1411
S'K11086+K11087+K11096+K11088+K11097+K11098+K11099'
p1412
sS'M00029'
p1413
S'K01948 K00611 K01940 (K01755,K14681) K01476'
p1414
sS'M00028'
p1415
S'(K00619,K00620,K00618,K11067,K14681,K14682) (K00930 K00145,K12659) (K00818,K00821) (K01438,K14677,K00620)'
p1416
sS'M00023'
p1417
S'(((K01657+K01658,K13503,K13501,K01656) K00766),K13497) ((K01817 (K01656,K01609)),K13498,K13501) (K01695+(K01696,K06001),K01694)'
p1418
sS'M00022'
p1419
S'(K01626,K03856,K13853) (((K01735,K13829) ((K03785,K03786) K00014,K13832)),K13830) ((K00891,K13829) K00800,K13830) K01736'
p1420
sS'M00021'
p1421
S'K00640 (K01738,K12339,K13034,K17069)'
p1422
sS'M00020'
p1423
S'K00058 K00831 K01079'
p1424
sS'M00027'
p1425
S'K01580 (K13524,K07250,K00823,K16871) (K00135,K00139)'
p1426
sS'M00026'
p1427
S'(K00765-K02502) (K01523 K01496,K11755,K14152) K01814 (K02501+K02500,K01663) ((K01693 K00817 (K04486,K05602,K18649)),(K01089 K00817)) (K00013,K14152)'
p1428
sS'M00025'
p1429
S'((K01850,K04092,K14170,K04093,K04516,K06208,K06209,K13853) (K00210,K04517),K14187) (K00815,K00832,K00838)'
p1430
sS'M00024'
p1431
S'((K01850,K04092,K14187,K04093,K04516,K06208,K06209,K13853) (K01713,K04518,K05359),K14170) (K00832,K00838)'
p1432
sS'M00555'
p1433
S'(K17755,((K00108,K11440) K00130))'
p1434
sS'M00554'
p1435
S'K00849 K00965'
p1436
sS'M00658'
p1437
S'K18351 K18352'
p1438
sS'M00552'
p1439
S'K01684 K00883 K01631 K00134 K00927'
p1440
sS'M00551'
p1441
S'K05549+K05550+K05784 K05783'
p1442
sS'M00550'
p1443
S'K02821+K02822+K03475 K03476 K03078 K03079 K03077'
p1444
sS'M00654'
p1445
S'K18072 K18073'
p1446
sS'M00655'
p1447
S'K18143 K18144'
p1448
sS'M00656'
p1449
S'K18345 K18344'
p1450
sS'M00657'
p1451
S'K18350 K18349'
p1452
sS'M00651'
p1453
S'(K18345 K18344 K07260 K18346),(K18351 K18352 K18354 K18353) (K18347 K15739 K08641)'
p1454
sS'M00652'
p1455
S'K18350 K18349 K18348 K18856 K18866'
p1456
sS'M00653'
p1457
S'K17060 K17061'
p1458
sS'M00371'
p1459
S'(K09587,K12639) K09588 K09591 (K12637,K12638) (K09590,K12640)'
p1460
sS'M00117'
p1461
S'(K03181,K18240) K03179 (K03182+K03186) K18800 K00568 K03185 K03183 K03184 K00568'
p1462
sS'M00116'
p1463
S'(K01851,K02552,K02361) K02551 K08680 K02549 K01911 K01661 (K12073,K19222) K02548 K03183'
p1464
sS'M00115'
p1465
S'K00278 K03517 K00767 (K00969,K06210) (K01916,K01950)'
p1466
sS'M00114'
p1467
S'((K01810,K06859,K13810) (K01809,K16011),K15916) (K16881,(K17497,K01840,K15778) (K00966,K00971,K16011)) K10046 K14190 (K10047,K18649) (K00064,K17744) K00225'
p1468
sS'M00113'
p1469
S'K00454 K01723 K10525 K05894 K10526 K00232 K10527 (K00632,K07513) --'
p1470
sS'M00112'
p1471
S'K09833 (K12502,K18534) K09834 K05928'
p1472
sS'M00110'
p1473
S'K00512 (K00070,K01822) K07434'
p1474
sS'M00294'
p1475
S'K02332+K02333'
p1476
sS'M00370'
p1477
S'(K11812,K11813) K11818 K11819 K11820 K11821'
p1478
sS'M00296'
p1479
S'K10803+K10798+(K02330,K03512,K10981)+K10776+(K10771,K10772)'
p1480
sS'M00297'
p1481
S'K10884+K10885+K06642'
p1482
sS'M00290'
p1483
S'K03141+K03142+K03143+K03144+K10843+K10844+K10845+K02202+K06634+K10842'
p1484
sS'M00291'
p1485
S'K10865+K10866+K10867'
p1486
sS'M00119'
p1487
S'K00826 K00606 K00077'
p1488
sS'M00293'
p1489
S'K02350+(K03508,K13728)'
p1490
sS'M00058'
p1491
S'K00746 (K13499,K00747,K03419)'
p1492
sS'M00059'
p1493
S'(K02369,K02370) (K02366,K02367) (K02368,K02370) (K02576,K02577,K02578,K02579) K01793'
p1494
sS'M00056'
p1495
S'K00710 (K00731,K09653) (K00727,K09662,K09663) K00739'
p1496
sS'M00057'
p1497
S'K00771 K00733 K00734 K10158'
p1498
sS'M00055'
p1499
S'K01001 (K07432+K07441) K03842 K03843 K03844 K03845 K03846 K03847 K03846 K00729 K03848 K03849 K03850'
p1500
sS'M00052'
p1501
S'(K13800,K13809,K00945,K13799) (K00940,K18533) K01937'
p1502
sS'M00053'
p1503
S'(K00524,K00525+K00526,K10807+K10808) (K00940,K18533) (K00527,K21636) K01494 K01520 (K00560,K13998) K00943 K00940'
p1504
sS'M00050'
p1505
S'K00088 K01951 K00942 (K00940,K00873,K12406)'
p1506
sS'M00051'
p1507
S'(K11540,(K11541 K01465),((K01954,K01955+K01956) (K00609+K00610,K00608) K01465)) (K00226,K00254,K17828) (K13421,K00762 K01591)'
p1508
sS'M00728'
p1509
S'K07640 K07662 (K04771,K03673)'
p1510
sS'M00729'
p1511
S'K03553 K01356 K18555'
p1512
sS'M00720'
p1513
S'K18990+K18989+K12340'
p1514
sS'M00721'
p1515
S'((K07771 K07643),(K18072 K18073),(K07637 K07660)) K07806+K10012+K10011+K13014+K07264+K12962+K12963'
p1516
sS'M00722'
p1517
S'K07771 K07643 K03760'
p1518
sS'M00723'
p1519
S'K07660 K07637 K18514 K12975'
p1520
sS'M00724'
p1521
S'K07660 K07637 K12973'
p1522
sS'M00725'
p1523
S'K19077 K19078 K03367+K03739+K14188+K03740'
p1524
sS'M00726'
p1525
S'K19077 K19078 K14205'
p1526
sS'M00727'
p1527
S'K07640 K07662 K01448'
p1528
sS'M00203'
p1529
S'K10196+K10197+K10198-K10199'
p1530
sS'M00202'
p1531
S'K10192+K10193+K10194-K10195'
p1532
sS'M00201'
p1533
S'K10232+K10233+K10234-(K10235,K10112)'
p1534
sS'M00200'
p1535
S'K10227+K10228+K10229+(K10111,K10112)'
p1536
sS'M00207'
p1537
S'K02027+K02025+K02026+(K10111,K10112)'
p1538
sS'M00206'
p1539
S'K10240+K10241+K10242+K10112'
p1540
sS'M00205'
p1541
S'K10200+K10201+K10202'
p1542
sS'M00204'
p1543
S'K10236+K10237+K10238+K10111'
p1544
sS'M00209'
p1545
S'K05845+K05846+K05847'
p1546
sS'M00208'
p1547
S'K02002+K02001+K02000'
p1548
sS'M00834'
p1549
S'K21254 K21255 K21256 K21257 K21258'
p1550
sS'M00835'
p1551
S'K13063 K20261 K06998 K20260 K20262 K21103 K20940'
p1552
sS'M00836'
p1553
S'K03795 K02224 (K21610+K21611) K21612'
p1554
sS'M00837'
p1555
S'K21780+K21781 K21782 K21783 K21784 K21785 K21786'
p1556
sS'M00830'
p1557
S'K20422 K20420 K20421 K20423'
p1558
sS'M00831'
p1559
S'K21221 K21222 K21223 K21224 K21225'
p1560
sS'M00832'
p1561
S'K21183'
p1562
sS'M00833'
p1563
S'K21254 K21255 K21256 K21257 K21258'
p1564
sS'M00838'
p1565
S'K21780+K21781 K21782 K21783 K21784 K21785 K21786'
p1566
s.